
u-boot:     file format elf32-littlearm

Disassembly of section .text:

30000000 <_start>:
30000000:	ea000012 	b	30000050 <start_code>
30000004:	e59ff014 	ldr	pc, [pc, #20]	; 30000020 <_undefined_instruction>
30000008:	e59ff014 	ldr	pc, [pc, #20]	; 30000024 <_software_interrupt>
3000000c:	e59ff014 	ldr	pc, [pc, #20]	; 30000028 <_prefetch_abort>
30000010:	e59ff014 	ldr	pc, [pc, #20]	; 3000002c <_data_abort>
30000014:	e59ff014 	ldr	pc, [pc, #20]	; 30000030 <_not_used>
30000018:	e59ff014 	ldr	pc, [pc, #20]	; 30000034 <_irq>
3000001c:	e59ff014 	ldr	pc, [pc, #20]	; 30000038 <_fiq>

30000020 <_undefined_instruction>:
30000020:	30000120 	.word	0x30000120

30000024 <_software_interrupt>:
30000024:	30000180 	.word	0x30000180

30000028 <_prefetch_abort>:
30000028:	300001e0 	.word	0x300001e0

3000002c <_data_abort>:
3000002c:	30000240 	.word	0x30000240

30000030 <_not_used>:
30000030:	300002a0 	.word	0x300002a0

30000034 <_irq>:
30000034:	30000300 	.word	0x30000300

30000038 <_fiq>:
30000038:	30000360 	.word	0x30000360
3000003c:	deadbeef 	.word	0xdeadbeef

30000040 <_TEXT_BASE>:
30000040:	33f80000 	.word	0x33f80000

30000044 <_armboot_start>:
30000044:	30000000 	.word	0x30000000

30000048 <_bss_start>:
30000048:	3001c280 	.word	0x3001c280

3000004c <_bss_end>:
3000004c:	300210a4 	.word	0x300210a4

30000050 <start_code>:
30000050:	e10f0000 	mrs	r0, CPSR
30000054:	e3c0001f 	bic	r0, r0, #31	; 0x1f
30000058:	e38000d3 	orr	r0, r0, #211	; 0xd3
3000005c:	e129f000 	msr	CPSR_fc, r0
30000060:	eb0000de 	bl	300003e0 <__coloured_LED_init>
30000064:	eb0000de 	bl	300003e4 <__red_LED_on>
30000068:	e3a00453 	mov	r0, #1392508928	; 0x53000000
3000006c:	e3a01000 	mov	r1, #0	; 0x0
30000070:	e5801000 	str	r1, [r0]
30000074:	e3e01000 	mvn	r1, #0	; 0x0
30000078:	e59f0340 	ldr	r0, [pc, #832]	; 300003c0 <fiq+0x60>
3000007c:	e5801000 	str	r1, [r0]
30000080:	e59f133c 	ldr	r1, [pc, #828]	; 300003c4 <fiq+0x64>
30000084:	e59f033c 	ldr	r0, [pc, #828]	; 300003c8 <fiq+0x68>
30000088:	e5801000 	str	r1, [r0]
3000008c:	e3a00313 	mov	r0, #1275068416	; 0x4c000000
30000090:	e3e01000 	mvn	r1, #0	; 0x0
30000094:	e5801000 	str	r1, [r0]
30000098:	e59f032c 	ldr	r0, [pc, #812]	; 300003cc <fiq+0x6c>
3000009c:	e3a01005 	mov	r1, #5	; 0x5
300000a0:	e5801000 	str	r1, [r0]
300000a4:	ee110f10 	mrc	15, 0, r0, cr1, cr0, {0}
300000a8:	e3800103 	orr	r0, r0, #-1073741824	; 0xc0000000
300000ac:	ee010f10 	mcr	15, 0, r0, cr1, cr0, {0}
300000b0:	e59f0318 	ldr	r0, [pc, #792]	; 300003d0 <fiq+0x70>
300000b4:	e59f1318 	ldr	r1, [pc, #792]	; 300003d4 <fiq+0x74>
300000b8:	e5801000 	str	r1, [r0]

300000bc <stack_setup>:
300000bc:	e51f0084 	ldr	r0, [pc, #-132]	; 30000040 <_TEXT_BASE>
300000c0:	e2400803 	sub	r0, r0, #196608	; 0x30000
300000c4:	e2400080 	sub	r0, r0, #128	; 0x80
300000c8:	e240d00c 	sub	sp, r0, #12	; 0xc

300000cc <clear_bss>:
300000cc:	e51f008c 	ldr	r0, [pc, #-140]	; 30000048 <_bss_start>
300000d0:	e51f108c 	ldr	r1, [pc, #-140]	; 3000004c <_bss_end>
300000d4:	e3a02000 	mov	r2, #0	; 0x0

300000d8 <clbss_l>:
300000d8:	e5802000 	str	r2, [r0]
300000dc:	e2800004 	add	r0, r0, #4	; 0x4
300000e0:	e1500001 	cmp	r0, r1
300000e4:	dafffffb 	ble	300000d8 <clbss_l>
300000e8:	e59f02e8 	ldr	r0, [pc, #744]	; 300003d8 <fiq+0x78>
300000ec:	e3a01b55 	mov	r1, #87040	; 0x15400
300000f0:	e5801000 	str	r1, [r0]
300000f4:	e59f02e0 	ldr	r0, [pc, #736]	; 300003dc <fiq+0x7c>
300000f8:	e3a01d07 	mov	r1, #448	; 0x1c0
300000fc:	e5801000 	str	r1, [r0]
30000100:	e51ff004 	ldr	pc, [pc, #-4]	; 30000104 <_start_armboot>

30000104 <_start_armboot>:
30000104:	30000404 	.word	0x30000404
30000108:	e1a00000 	.word	0xe1a00000
3000010c:	e1a00000 	.word	0xe1a00000
30000110:	e1a00000 	.word	0xe1a00000
30000114:	e1a00000 	.word	0xe1a00000
30000118:	e1a00000 	.word	0xe1a00000
3000011c:	e1a00000 	.word	0xe1a00000

30000120 <undefined_instruction>:
30000120:	e51fd0e4 	ldr	sp, [pc, #-228]	; 30000044 <_armboot_start>
30000124:	e24dd802 	sub	sp, sp, #131072	; 0x20000
30000128:	e24dd803 	sub	sp, sp, #196608	; 0x30000
3000012c:	e24dd088 	sub	sp, sp, #136	; 0x88
30000130:	e58de000 	str	lr, [sp]
30000134:	e14fe000 	mrs	lr, SPSR
30000138:	e58de004 	str	lr, [sp, #4]
3000013c:	e3a0d013 	mov	sp, #19	; 0x13
30000140:	e169f00d 	msr	SPSR_fc, sp
30000144:	e1a0e00f 	mov	lr, pc
30000148:	e1b0f00e 	movs	pc, lr
3000014c:	e24dd048 	sub	sp, sp, #72	; 0x48
30000150:	e88d1fff 	stm	sp, {r0, r1, r2, r3, r4, r5, r6, r7, r8, r9, sl, fp, ip}
30000154:	e51f2118 	ldr	r2, [pc, #-280]	; 30000044 <_armboot_start>
30000158:	e2422802 	sub	r2, r2, #131072	; 0x20000
3000015c:	e2422803 	sub	r2, r2, #196608	; 0x30000
30000160:	e2422088 	sub	r2, r2, #136	; 0x88
30000164:	e892000c 	ldm	r2, {r2, r3}
30000168:	e28d0048 	add	r0, sp, #72	; 0x48
3000016c:	e28d5034 	add	r5, sp, #52	; 0x34
30000170:	e1a0100e 	mov	r1, lr
30000174:	e885000f 	stm	r5, {r0, r1, r2, r3}
30000178:	e1a0000d 	mov	r0, sp
3000017c:	eb000165 	bl	30000718 <do_undefined_instruction>

30000180 <software_interrupt>:
30000180:	e51fd144 	ldr	sp, [pc, #-324]	; 30000044 <_armboot_start>
30000184:	e24dd802 	sub	sp, sp, #131072	; 0x20000
30000188:	e24dd803 	sub	sp, sp, #196608	; 0x30000
3000018c:	e24dd088 	sub	sp, sp, #136	; 0x88
30000190:	e58de000 	str	lr, [sp]
30000194:	e14fe000 	mrs	lr, SPSR
30000198:	e58de004 	str	lr, [sp, #4]
3000019c:	e3a0d013 	mov	sp, #19	; 0x13
300001a0:	e169f00d 	msr	SPSR_fc, sp
300001a4:	e1a0e00f 	mov	lr, pc
300001a8:	e1b0f00e 	movs	pc, lr
300001ac:	e24dd048 	sub	sp, sp, #72	; 0x48
300001b0:	e88d1fff 	stm	sp, {r0, r1, r2, r3, r4, r5, r6, r7, r8, r9, sl, fp, ip}
300001b4:	e51f2178 	ldr	r2, [pc, #-376]	; 30000044 <_armboot_start>
300001b8:	e2422802 	sub	r2, r2, #131072	; 0x20000
300001bc:	e2422803 	sub	r2, r2, #196608	; 0x30000
300001c0:	e2422088 	sub	r2, r2, #136	; 0x88
300001c4:	e892000c 	ldm	r2, {r2, r3}
300001c8:	e28d0048 	add	r0, sp, #72	; 0x48
300001cc:	e28d5034 	add	r5, sp, #52	; 0x34
300001d0:	e1a0100e 	mov	r1, lr
300001d4:	e885000f 	stm	r5, {r0, r1, r2, r3}
300001d8:	e1a0000d 	mov	r0, sp
300001dc:	eb000144 	bl	300006f4 <do_software_interrupt>

300001e0 <prefetch_abort>:
300001e0:	e51fd1a4 	ldr	sp, [pc, #-420]	; 30000044 <_armboot_start>
300001e4:	e24dd802 	sub	sp, sp, #131072	; 0x20000
300001e8:	e24dd803 	sub	sp, sp, #196608	; 0x30000
300001ec:	e24dd088 	sub	sp, sp, #136	; 0x88
300001f0:	e58de000 	str	lr, [sp]
300001f4:	e14fe000 	mrs	lr, SPSR
300001f8:	e58de004 	str	lr, [sp, #4]
300001fc:	e3a0d013 	mov	sp, #19	; 0x13
30000200:	e169f00d 	msr	SPSR_fc, sp
30000204:	e1a0e00f 	mov	lr, pc
30000208:	e1b0f00e 	movs	pc, lr
3000020c:	e24dd048 	sub	sp, sp, #72	; 0x48
30000210:	e88d1fff 	stm	sp, {r0, r1, r2, r3, r4, r5, r6, r7, r8, r9, sl, fp, ip}
30000214:	e51f21d8 	ldr	r2, [pc, #-472]	; 30000044 <_armboot_start>
30000218:	e2422802 	sub	r2, r2, #131072	; 0x20000
3000021c:	e2422803 	sub	r2, r2, #196608	; 0x30000
30000220:	e2422088 	sub	r2, r2, #136	; 0x88
30000224:	e892000c 	ldm	r2, {r2, r3}
30000228:	e28d0048 	add	r0, sp, #72	; 0x48
3000022c:	e28d5034 	add	r5, sp, #52	; 0x34
30000230:	e1a0100e 	mov	r1, lr
30000234:	e885000f 	stm	r5, {r0, r1, r2, r3}
30000238:	e1a0000d 	mov	r0, sp
3000023c:	eb000123 	bl	300006d0 <do_prefetch_abort>

30000240 <data_abort>:
30000240:	e51fd204 	ldr	sp, [pc, #-516]	; 30000044 <_armboot_start>
30000244:	e24dd802 	sub	sp, sp, #131072	; 0x20000
30000248:	e24dd803 	sub	sp, sp, #196608	; 0x30000
3000024c:	e24dd088 	sub	sp, sp, #136	; 0x88
30000250:	e58de000 	str	lr, [sp]
30000254:	e14fe000 	mrs	lr, SPSR
30000258:	e58de004 	str	lr, [sp, #4]
3000025c:	e3a0d013 	mov	sp, #19	; 0x13
30000260:	e169f00d 	msr	SPSR_fc, sp
30000264:	e1a0e00f 	mov	lr, pc
30000268:	e1b0f00e 	movs	pc, lr
3000026c:	e24dd048 	sub	sp, sp, #72	; 0x48
30000270:	e88d1fff 	stm	sp, {r0, r1, r2, r3, r4, r5, r6, r7, r8, r9, sl, fp, ip}
30000274:	e51f2238 	ldr	r2, [pc, #-568]	; 30000044 <_armboot_start>
30000278:	e2422802 	sub	r2, r2, #131072	; 0x20000
3000027c:	e2422803 	sub	r2, r2, #196608	; 0x30000
30000280:	e2422088 	sub	r2, r2, #136	; 0x88
30000284:	e892000c 	ldm	r2, {r2, r3}
30000288:	e28d0048 	add	r0, sp, #72	; 0x48
3000028c:	e28d5034 	add	r5, sp, #52	; 0x34
30000290:	e1a0100e 	mov	r1, lr
30000294:	e885000f 	stm	r5, {r0, r1, r2, r3}
30000298:	e1a0000d 	mov	r0, sp
3000029c:	eb000102 	bl	300006ac <do_data_abort>

300002a0 <not_used>:
300002a0:	e51fd264 	ldr	sp, [pc, #-612]	; 30000044 <_armboot_start>
300002a4:	e24dd802 	sub	sp, sp, #131072	; 0x20000
300002a8:	e24dd803 	sub	sp, sp, #196608	; 0x30000
300002ac:	e24dd088 	sub	sp, sp, #136	; 0x88
300002b0:	e58de000 	str	lr, [sp]
300002b4:	e14fe000 	mrs	lr, SPSR
300002b8:	e58de004 	str	lr, [sp, #4]
300002bc:	e3a0d013 	mov	sp, #19	; 0x13
300002c0:	e169f00d 	msr	SPSR_fc, sp
300002c4:	e1a0e00f 	mov	lr, pc
300002c8:	e1b0f00e 	movs	pc, lr
300002cc:	e24dd048 	sub	sp, sp, #72	; 0x48
300002d0:	e88d1fff 	stm	sp, {r0, r1, r2, r3, r4, r5, r6, r7, r8, r9, sl, fp, ip}
300002d4:	e51f2298 	ldr	r2, [pc, #-664]	; 30000044 <_armboot_start>
300002d8:	e2422802 	sub	r2, r2, #131072	; 0x20000
300002dc:	e2422803 	sub	r2, r2, #196608	; 0x30000
300002e0:	e2422088 	sub	r2, r2, #136	; 0x88
300002e4:	e892000c 	ldm	r2, {r2, r3}
300002e8:	e28d0048 	add	r0, sp, #72	; 0x48
300002ec:	e28d5034 	add	r5, sp, #52	; 0x34
300002f0:	e1a0100e 	mov	r1, lr
300002f4:	e885000f 	stm	r5, {r0, r1, r2, r3}
300002f8:	e1a0000d 	mov	r0, sp
300002fc:	eb0000e1 	bl	30000688 <do_not_used>

30000300 <irq>:
30000300:	e51fd2c4 	ldr	sp, [pc, #-708]	; 30000044 <_armboot_start>
30000304:	e24dd802 	sub	sp, sp, #131072	; 0x20000
30000308:	e24dd803 	sub	sp, sp, #196608	; 0x30000
3000030c:	e24dd088 	sub	sp, sp, #136	; 0x88
30000310:	e58de000 	str	lr, [sp]
30000314:	e14fe000 	mrs	lr, SPSR
30000318:	e58de004 	str	lr, [sp, #4]
3000031c:	e3a0d013 	mov	sp, #19	; 0x13
30000320:	e169f00d 	msr	SPSR_fc, sp
30000324:	e1a0e00f 	mov	lr, pc
30000328:	e1b0f00e 	movs	pc, lr
3000032c:	e24dd048 	sub	sp, sp, #72	; 0x48
30000330:	e88d1fff 	stm	sp, {r0, r1, r2, r3, r4, r5, r6, r7, r8, r9, sl, fp, ip}
30000334:	e51f22f8 	ldr	r2, [pc, #-760]	; 30000044 <_armboot_start>
30000338:	e2422802 	sub	r2, r2, #131072	; 0x20000
3000033c:	e2422803 	sub	r2, r2, #196608	; 0x30000
30000340:	e2422088 	sub	r2, r2, #136	; 0x88
30000344:	e892000c 	ldm	r2, {r2, r3}
30000348:	e28d0048 	add	r0, sp, #72	; 0x48
3000034c:	e28d5034 	add	r5, sp, #52	; 0x34
30000350:	e1a0100e 	mov	r1, lr
30000354:	e885000f 	stm	r5, {r0, r1, r2, r3}
30000358:	e1a0000d 	mov	r0, sp
3000035c:	eb0000b7 	bl	30000640 <do_irq>

30000360 <fiq>:
30000360:	e51fd324 	ldr	sp, [pc, #-804]	; 30000044 <_armboot_start>
30000364:	e24dd802 	sub	sp, sp, #131072	; 0x20000
30000368:	e24dd803 	sub	sp, sp, #196608	; 0x30000
3000036c:	e24dd088 	sub	sp, sp, #136	; 0x88
30000370:	e58de000 	str	lr, [sp]
30000374:	e14fe000 	mrs	lr, SPSR
30000378:	e58de004 	str	lr, [sp, #4]
3000037c:	e3a0d013 	mov	sp, #19	; 0x13
30000380:	e169f00d 	msr	SPSR_fc, sp
30000384:	e1a0e00f 	mov	lr, pc
30000388:	e1b0f00e 	movs	pc, lr
3000038c:	e24dd048 	sub	sp, sp, #72	; 0x48
30000390:	e88d1fff 	stm	sp, {r0, r1, r2, r3, r4, r5, r6, r7, r8, r9, sl, fp, ip}
30000394:	e51f2358 	ldr	r2, [pc, #-856]	; 30000044 <_armboot_start>
30000398:	e2422802 	sub	r2, r2, #131072	; 0x20000
3000039c:	e2422803 	sub	r2, r2, #196608	; 0x30000
300003a0:	e2422088 	sub	r2, r2, #136	; 0x88
300003a4:	e892000c 	ldm	r2, {r2, r3}
300003a8:	e28d0048 	add	r0, sp, #72	; 0x48
300003ac:	e28d5034 	add	r5, sp, #52	; 0x34
300003b0:	e1a0100e 	mov	r1, lr
300003b4:	e885000f 	stm	r5, {r0, r1, r2, r3}
300003b8:	e1a0000d 	mov	r0, sp
300003bc:	eb0000a8 	bl	30000664 <do_fiq>
300003c0:	4a000008 	.word	0x4a000008
300003c4:	00007fff 	.word	0x00007fff
300003c8:	4a00001c 	.word	0x4a00001c
300003cc:	4c000014 	.word	0x4c000014
300003d0:	4c000004 	.word	0x4c000004
300003d4:	0005c011 	.word	0x0005c011
300003d8:	56000010 	.word	0x56000010
300003dc:	56000014 	.word	0x56000014

300003e0 <__coloured_LED_init>:
300003e0:	e1a0f00e 	mov	pc, lr

300003e4 <__red_LED_on>:
300003e4:	e1a0f00e 	mov	pc, lr

300003e8 <__red_LED_off>:
300003e8:	e1a0f00e 	mov	pc, lr

300003ec <__green_LED_on>:
300003ec:	e1a0f00e 	mov	pc, lr

300003f0 <__green_LED_off>:
300003f0:	e1a0f00e 	mov	pc, lr

300003f4 <__yellow_LED_on>:
300003f4:	e1a0f00e 	mov	pc, lr

300003f8 <__yellow_LED_off>:
300003f8:	e1a0f00e 	mov	pc, lr

300003fc <__blue_LED_on>:
300003fc:	e1a0f00e 	mov	pc, lr

30000400 <__blue_LED_off>:
30000400:	e1a0f00e 	mov	pc, lr

30000404 <start_armboot>:
30000404:	e3a03456 	mov	r3, #1442840576	; 0x56000000
30000408:	e3a02000 	mov	r2, #0	; 0x0
3000040c:	e5832014 	str	r2, [r3, #20]
30000410:	e2822b55 	add	r2, r2, #87040	; 0x15400
30000414:	e5832010 	str	r2, [r3, #16]
30000418:	eafffffe 	b	30000418 <start_armboot+0x14>

3000041c <hang>:
3000041c:	e59f0004 	ldr	r0, [pc, #4]	; 30000428 <hang+0xc>
30000420:	eb0017a5 	bl	300062bc <puts>
30000424:	eafffffe 	b	30000424 <hang+0x8>
30000428:	30017069 	.word	0x30017069

3000042c <display_dram_config>:
3000042c:	e5983000 	ldr	r3, [r8]
30000430:	e92d4010 	push	{r4, lr}
30000434:	e5934018 	ldr	r4, [r3, #24]
30000438:	e59f0014 	ldr	r0, [pc, #20]	; 30000454 <display_dram_config+0x28>
3000043c:	eb00179e 	bl	300062bc <puts>
30000440:	e1a00004 	mov	r0, r4
30000444:	e59f100c 	ldr	r1, [pc, #12]	; 30000458 <display_dram_config+0x2c>
30000448:	eb00313e 	bl	3000c948 <print_size>
3000044c:	e3a00000 	mov	r0, #0	; 0x0
30000450:	e8bd8010 	pop	{r4, pc}
30000454:	30017093 	.word	0x30017093
30000458:	3001a096 	.word	0x3001a096

3000045c <display_banner>:
3000045c:	e92d4010 	push	{r4, lr}
30000460:	e59f000c 	ldr	r0, [pc, #12]	; 30000474 <display_banner+0x18>
30000464:	e59f100c 	ldr	r1, [pc, #12]	; 30000478 <display_banner+0x1c>
30000468:	eb0017a5 	bl	30006304 <printf>
3000046c:	e3a00000 	mov	r0, #0	; 0x0
30000470:	e8bd8010 	pop	{r4, pc}
30000474:	3001709b 	.word	0x3001709b
30000478:	3001700c 	.word	0x3001700c

3000047c <init_baudrate>:
3000047c:	e92d4070 	push	{r4, r5, r6, lr}
30000480:	e24dd040 	sub	sp, sp, #64	; 0x40
30000484:	e59f0044 	ldr	r0, [pc, #68]	; 300004d0 <init_baudrate+0x54>
30000488:	e1a0100d 	mov	r1, sp
3000048c:	e3a02040 	mov	r2, #64	; 0x40
30000490:	eb001182 	bl	30004aa0 <getenv_r>
30000494:	e3500000 	cmp	r0, #0	; 0x0
30000498:	e1a0600d 	mov	r6, sp
3000049c:	e1a04008 	mov	r4, r8
300004a0:	e5985000 	ldr	r5, [r8]
300004a4:	d59f0028 	ldrle	r0, [pc, #40]	; 300004d4 <init_baudrate+0x58>
300004a8:	c1a0000d 	movgt	r0, sp
300004ac:	c3a01000 	movgt	r1, #0	; 0x0
300004b0:	c3a0200a 	movgt	r2, #10	; 0xa
300004b4:	cb003522 	blgt	3000d944 <simple_strtoul>
300004b8:	e5840008 	str	r0, [r4, #8]
300004bc:	e5943008 	ldr	r3, [r4, #8]
300004c0:	e3a00000 	mov	r0, #0	; 0x0
300004c4:	e5853000 	str	r3, [r5]
300004c8:	e28dd040 	add	sp, sp, #64	; 0x40
300004cc:	e8bd8070 	pop	{r4, r5, r6, pc}
300004d0:	300170a2 	.word	0x300170a2
300004d4:	0001c200 	.word	0x0001c200

300004d8 <enable_interrupts>:
300004d8:	e1a0f00e 	mov	pc, lr

300004dc <disable_interrupts>:
300004dc:	e3a00000 	mov	r0, #0	; 0x0
300004e0:	e1a0f00e 	mov	pc, lr

300004e4 <show_regs>:
300004e4:	e92d4030 	push	{r4, r5, lr}
300004e8:	e24dd08c 	sub	sp, sp, #140	; 0x8c
300004ec:	e1a04000 	mov	r4, r0
300004f0:	e59f1104 	ldr	r1, [pc, #260]	; 300005fc <show_regs+0x118>
300004f4:	e3a02080 	mov	r2, #128	; 0x80
300004f8:	e28d0008 	add	r0, sp, #8	; 0x8
300004fc:	eb003483 	bl	3000d710 <memcpy>
30000500:	e284502c 	add	r5, r4, #44	; 0x2c
30000504:	e8951020 	ldm	r5, {r5, ip}
30000508:	e594103c 	ldr	r1, [r4, #60]
3000050c:	e5942038 	ldr	r2, [r4, #56]
30000510:	e5943034 	ldr	r3, [r4, #52]
30000514:	e58dc000 	str	ip, [sp]
30000518:	e58d5004 	str	r5, [sp, #4]
3000051c:	e59f00dc 	ldr	r0, [pc, #220]	; 30000600 <show_regs+0x11c>
30000520:	e5945040 	ldr	r5, [r4, #64]
30000524:	eb001776 	bl	30006304 <printf>
30000528:	e5941028 	ldr	r1, [r4, #40]
3000052c:	e5942024 	ldr	r2, [r4, #36]
30000530:	e5943020 	ldr	r3, [r4, #32]
30000534:	e59f00c8 	ldr	r0, [pc, #200]	; 30000604 <show_regs+0x120>
30000538:	eb001771 	bl	30006304 <printf>
3000053c:	e594c010 	ldr	ip, [r4, #16]
30000540:	e594101c 	ldr	r1, [r4, #28]
30000544:	e5942018 	ldr	r2, [r4, #24]
30000548:	e5943014 	ldr	r3, [r4, #20]
3000054c:	e59f00b4 	ldr	r0, [pc, #180]	; 30000608 <show_regs+0x124>
30000550:	e58dc000 	str	ip, [sp]
30000554:	eb00176a 	bl	30006304 <printf>
30000558:	e594c000 	ldr	ip, [r4]
3000055c:	e594100c 	ldr	r1, [r4, #12]
30000560:	e5942008 	ldr	r2, [r4, #8]
30000564:	e5943004 	ldr	r3, [r4, #4]
30000568:	e59f009c 	ldr	r0, [pc, #156]	; 3000060c <show_regs+0x128>
3000056c:	e58dc000 	str	ip, [sp]
30000570:	eb001763 	bl	30006304 <printf>
30000574:	e3150101 	tst	r5, #1073741824	; 0x40000000
30000578:	13a0205a 	movne	r2, #90	; 0x5a
3000057c:	03a0207a 	moveq	r2, #122	; 0x7a
30000580:	e3150202 	tst	r5, #536870912	; 0x20000000
30000584:	13a03043 	movne	r3, #67	; 0x43
30000588:	03a03063 	moveq	r3, #99	; 0x63
3000058c:	e3150201 	tst	r5, #268435456	; 0x10000000
30000590:	e205520f 	and	r5, r5, #-268435456	; 0xf0000000
30000594:	13a0c056 	movne	ip, #86	; 0x56
30000598:	03a0c076 	moveq	ip, #118	; 0x76
3000059c:	e3550000 	cmp	r5, #0	; 0x0
300005a0:	b3a0104e 	movlt	r1, #78	; 0x4e
300005a4:	a3a0106e 	movge	r1, #110	; 0x6e
300005a8:	e59f0060 	ldr	r0, [pc, #96]	; 30000610 <show_regs+0x12c>
300005ac:	e58dc000 	str	ip, [sp]
300005b0:	eb001753 	bl	30006304 <printf>
300005b4:	e5943040 	ldr	r3, [r4, #64]
300005b8:	e59fc054 	ldr	ip, [pc, #84]	; 30000614 <show_regs+0x130>
300005bc:	e59f2054 	ldr	r2, [pc, #84]	; 30000618 <show_regs+0x134>
300005c0:	e3130080 	tst	r3, #128	; 0x80
300005c4:	11a0100c 	movne	r1, ip
300005c8:	01a01002 	moveq	r1, r2
300005cc:	e203001f 	and	r0, r3, #31	; 0x1f
300005d0:	e3130040 	tst	r3, #64	; 0x40
300005d4:	e28de088 	add	lr, sp, #136	; 0x88
300005d8:	e08e0100 	add	r0, lr, r0, lsl #2
300005dc:	11a0200c 	movne	r2, ip
300005e0:	e59fc034 	ldr	ip, [pc, #52]	; 3000061c <show_regs+0x138>
300005e4:	e5103080 	ldr	r3, [r0, #-128]
300005e8:	e59f0030 	ldr	r0, [pc, #48]	; 30000620 <show_regs+0x13c>
300005ec:	e58dc000 	str	ip, [sp]
300005f0:	eb001743 	bl	30006304 <printf>
300005f4:	e28dd08c 	add	sp, sp, #140	; 0x8c
300005f8:	e8bd8030 	pop	{r4, r5, pc}
300005fc:	30015f30 	.word	0x30015f30
30000600:	300170ab 	.word	0x300170ab
30000604:	300170f0 	.word	0x300170f0
30000608:	30017114 	.word	0x30017114
3000060c:	30017144 	.word	0x30017144
30000610:	30017174 	.word	0x30017174
30000614:	30017184 	.word	0x30017184
30000618:	30017ef5 	.word	0x30017ef5
3000061c:	30018e0b 	.word	0x30018e0b
30000620:	30017188 	.word	0x30017188

30000624 <bad_mode>:
30000624:	e92d4010 	push	{r4, lr}
30000628:	e59f000c 	ldr	r0, [pc, #12]	; 3000063c <bad_mode+0x18>
3000062c:	eb003626 	bl	3000decc <panic>
30000630:	e3a00000 	mov	r0, #0	; 0x0
30000634:	e8bd4010 	pop	{r4, lr}
30000638:	ea00427b 	b	3001102c <reset_cpu>
3000063c:	300171a7 	.word	0x300171a7

30000640 <do_irq>:
30000640:	e92d4010 	push	{r4, lr}
30000644:	e1a04000 	mov	r4, r0
30000648:	e59f0010 	ldr	r0, [pc, #16]	; 30000660 <do_irq+0x20>
3000064c:	eb00172c 	bl	30006304 <printf>
30000650:	e1a00004 	mov	r0, r4
30000654:	ebffffa2 	bl	300004e4 <show_regs>
30000658:	e8bd4010 	pop	{r4, lr}
3000065c:	eafffff0 	b	30000624 <bad_mode>
30000660:	300171bf 	.word	0x300171bf

30000664 <do_fiq>:
30000664:	e92d4010 	push	{r4, lr}
30000668:	e1a04000 	mov	r4, r0
3000066c:	e59f0010 	ldr	r0, [pc, #16]	; 30000684 <do_fiq+0x20>
30000670:	eb001723 	bl	30006304 <printf>
30000674:	e1a00004 	mov	r0, r4
30000678:	ebffff99 	bl	300004e4 <show_regs>
3000067c:	e8bd4010 	pop	{r4, lr}
30000680:	eaffffe7 	b	30000624 <bad_mode>
30000684:	300171ba 	.word	0x300171ba

30000688 <do_not_used>:
30000688:	e92d4010 	push	{r4, lr}
3000068c:	e1a04000 	mov	r4, r0
30000690:	e59f0010 	ldr	r0, [pc, #16]	; 300006a8 <do_not_used+0x20>
30000694:	eb00171a 	bl	30006304 <printf>
30000698:	e1a00004 	mov	r0, r4
3000069c:	ebffff90 	bl	300004e4 <show_regs>
300006a0:	e8bd4010 	pop	{r4, lr}
300006a4:	eaffffde 	b	30000624 <bad_mode>
300006a8:	300171d2 	.word	0x300171d2

300006ac <do_data_abort>:
300006ac:	e92d4010 	push	{r4, lr}
300006b0:	e1a04000 	mov	r4, r0
300006b4:	e59f0010 	ldr	r0, [pc, #16]	; 300006cc <do_data_abort+0x20>
300006b8:	eb001711 	bl	30006304 <printf>
300006bc:	e1a00004 	mov	r0, r4
300006c0:	ebffff87 	bl	300004e4 <show_regs>
300006c4:	e8bd4010 	pop	{r4, lr}
300006c8:	eaffffd5 	b	30000624 <bad_mode>
300006cc:	300171dc 	.word	0x300171dc

300006d0 <do_prefetch_abort>:
300006d0:	e92d4010 	push	{r4, lr}
300006d4:	e1a04000 	mov	r4, r0
300006d8:	e59f0010 	ldr	r0, [pc, #16]	; 300006f0 <do_prefetch_abort+0x20>
300006dc:	eb001708 	bl	30006304 <printf>
300006e0:	e1a00004 	mov	r0, r4
300006e4:	ebffff7e 	bl	300004e4 <show_regs>
300006e8:	e8bd4010 	pop	{r4, lr}
300006ec:	eaffffcc 	b	30000624 <bad_mode>
300006f0:	300171e8 	.word	0x300171e8

300006f4 <do_software_interrupt>:
300006f4:	e92d4010 	push	{r4, lr}
300006f8:	e1a04000 	mov	r4, r0
300006fc:	e59f0010 	ldr	r0, [pc, #16]	; 30000714 <do_software_interrupt+0x20>
30000700:	eb0016ff 	bl	30006304 <printf>
30000704:	e1a00004 	mov	r0, r4
30000708:	ebffff75 	bl	300004e4 <show_regs>
3000070c:	e8bd4010 	pop	{r4, lr}
30000710:	eaffffc3 	b	30000624 <bad_mode>
30000714:	300171f8 	.word	0x300171f8

30000718 <do_undefined_instruction>:
30000718:	e92d4010 	push	{r4, lr}
3000071c:	e1a04000 	mov	r4, r0
30000720:	e59f0010 	ldr	r0, [pc, #16]	; 30000738 <do_undefined_instruction+0x20>
30000724:	eb0016f6 	bl	30006304 <printf>
30000728:	e1a00004 	mov	r0, r4
3000072c:	ebffff6c 	bl	300004e4 <show_regs>
30000730:	e8bd4010 	pop	{r4, lr}
30000734:	eaffffba 	b	30000624 <bad_mode>
30000738:	3001720c 	.word	0x3001720c

3000073c <s3c24x0_get_base_uart>:
3000073c:	e2800905 	add	r0, r0, #81920	; 0x14000
30000740:	e1a00700 	lsl	r0, r0, #14
30000744:	e1a0f00e 	mov	pc, lr

30000748 <_serial_getc>:
30000748:	e92d4010 	push	{r4, lr}
3000074c:	ebfffffa 	bl	3000073c <s3c24x0_get_base_uart>
30000750:	e5903010 	ldr	r3, [r0, #16]
30000754:	e3130001 	tst	r3, #1	; 0x1
30000758:	0afffffc 	beq	30000750 <_serial_getc+0x8>
3000075c:	e5d00024 	ldrb	r0, [r0, #36]
30000760:	e8bd8010 	pop	{r4, pc}

30000764 <serial_getc>:
30000764:	e3a00000 	mov	r0, #0	; 0x0
30000768:	eafffff6 	b	30000748 <_serial_getc>

3000076c <serial_putc>:
3000076c:	e3a01000 	mov	r1, #0	; 0x0
30000770:	eaffffff 	b	30000774 <_serial_putc>

30000774 <_serial_putc>:
30000774:	e92d4010 	push	{r4, lr}
30000778:	e1a04000 	mov	r4, r0
3000077c:	e1a00001 	mov	r0, r1
30000780:	ebffffed 	bl	3000073c <s3c24x0_get_base_uart>
30000784:	e5903010 	ldr	r3, [r0, #16]
30000788:	e3130002 	tst	r3, #2	; 0x2
3000078c:	0afffffc 	beq	30000784 <_serial_putc+0x10>
30000790:	e354000a 	cmp	r4, #10	; 0xa
30000794:	e5c04020 	strb	r4, [r0, #32]
30000798:	18bd8010 	popne	{r4, pc}
3000079c:	e3a0000d 	mov	r0, #13	; 0xd
300007a0:	e8bd4010 	pop	{r4, lr}
300007a4:	eafffff0 	b	3000076c <serial_putc>

300007a8 <_serial_tstc>:
300007a8:	e92d4010 	push	{r4, lr}
300007ac:	ebffffe2 	bl	3000073c <s3c24x0_get_base_uart>
300007b0:	e5900010 	ldr	r0, [r0, #16]
300007b4:	e2000001 	and	r0, r0, #1	; 0x1
300007b8:	e8bd8010 	pop	{r4, pc}

300007bc <serial_tstc>:
300007bc:	e3a00000 	mov	r0, #0	; 0x0
300007c0:	eafffff8 	b	300007a8 <_serial_tstc>

300007c4 <_serial_puts>:
300007c4:	e92d4070 	push	{r4, r5, r6, lr}
300007c8:	e1a06000 	mov	r6, r0
300007cc:	e1a05001 	mov	r5, r1
300007d0:	e3a04000 	mov	r4, #0	; 0x0
300007d4:	ea000000 	b	300007dc <_serial_puts+0x18>
300007d8:	ebffffe5 	bl	30000774 <_serial_putc>
300007dc:	e7d63004 	ldrb	r3, [r6, r4]
300007e0:	e2530000 	subs	r0, r3, #0	; 0x0
300007e4:	e1a01005 	mov	r1, r5
300007e8:	e2844001 	add	r4, r4, #1	; 0x1
300007ec:	1afffff9 	bne	300007d8 <_serial_puts+0x14>
300007f0:	e8bd8070 	pop	{r4, r5, r6, pc}

300007f4 <serial_puts>:
300007f4:	e3a01000 	mov	r1, #0	; 0x0
300007f8:	eafffff1 	b	300007c4 <_serial_puts>

300007fc <_serial_setbrg>:
300007fc:	e92d4010 	push	{r4, lr}
30000800:	ebffffcd 	bl	3000073c <s3c24x0_get_base_uart>
30000804:	e1a04000 	mov	r4, r0
30000808:	eb004193 	bl	30010e5c <get_PCLK>
3000080c:	e5981008 	ldr	r1, [r8, #8]
30000810:	e1a01201 	lsl	r1, r1, #4
30000814:	eb0054ae 	bl	30015ad4 <__aeabi_uidiv>
30000818:	e2400001 	sub	r0, r0, #1	; 0x1
3000081c:	e5840028 	str	r0, [r4, #40]
30000820:	e8bd8010 	pop	{r4, pc}

30000824 <serial_init>:
30000824:	e92d4010 	push	{r4, lr}
30000828:	e3a00000 	mov	r0, #0	; 0x0
3000082c:	ebffffc2 	bl	3000073c <s3c24x0_get_base_uart>
30000830:	e3a03007 	mov	r3, #7	; 0x7
30000834:	e5803008 	str	r3, [r0, #8]
30000838:	e3a04000 	mov	r4, #0	; 0x0
3000083c:	e3a03003 	mov	r3, #3	; 0x3
30000840:	e580400c 	str	r4, [r0, #12]
30000844:	e5803000 	str	r3, [r0]
30000848:	e59f3010 	ldr	r3, [pc, #16]	; 30000860 <serial_init+0x3c>
3000084c:	e5803004 	str	r3, [r0, #4]
30000850:	e1a00004 	mov	r0, r4
30000854:	ebffffe8 	bl	300007fc <_serial_setbrg>
30000858:	e1a00004 	mov	r0, r4
3000085c:	e8bd8010 	pop	{r4, pc}
30000860:	00000245 	.word	0x00000245

30000864 <serial_setbrg>:
30000864:	e3a00000 	mov	r0, #0	; 0x0
30000868:	eaffffe3 	b	300007fc <_serial_setbrg>

3000086c <print_num>:
3000086c:	e1a02001 	mov	r2, r1
30000870:	e1a01000 	mov	r1, r0
30000874:	e59f0000 	ldr	r0, [pc, #0]	; 3000087c <print_num+0x10>
30000878:	ea0016a1 	b	30006304 <printf>
3000087c:	3001730f 	.word	0x3001730f

30000880 <do_bdinfo>:
30000880:	e92d4030 	push	{r4, r5, lr}
30000884:	e5984000 	ldr	r4, [r8]
30000888:	e24dd014 	sub	sp, sp, #20	; 0x14
3000088c:	e594100c 	ldr	r1, [r4, #12]
30000890:	e59f0094 	ldr	r0, [pc, #148]	; 3000092c <do_bdinfo+0xac>
30000894:	ebfffff4 	bl	3000086c <print_num>
30000898:	e5941008 	ldr	r1, [r4, #8]
3000089c:	e59f008c 	ldr	r0, [pc, #140]	; 30000930 <do_bdinfo+0xb0>
300008a0:	ebfffff1 	bl	3000086c <print_num>
300008a4:	e5941010 	ldr	r1, [r4, #16]
300008a8:	e59f0084 	ldr	r0, [pc, #132]	; 30000934 <do_bdinfo+0xb4>
300008ac:	ebffffee 	bl	3000086c <print_num>
300008b0:	e59f0080 	ldr	r0, [pc, #128]	; 30000938 <do_bdinfo+0xb8>
300008b4:	e3a01000 	mov	r1, #0	; 0x0
300008b8:	ebffffeb 	bl	3000086c <print_num>
300008bc:	e5941014 	ldr	r1, [r4, #20]
300008c0:	e59f0074 	ldr	r0, [pc, #116]	; 3000093c <do_bdinfo+0xbc>
300008c4:	ebffffe8 	bl	3000086c <print_num>
300008c8:	e28d5006 	add	r5, sp, #6	; 0x6
300008cc:	e5941018 	ldr	r1, [r4, #24]
300008d0:	e59f0068 	ldr	r0, [pc, #104]	; 30000940 <do_bdinfo+0xc0>
300008d4:	ebffffe4 	bl	3000086c <print_num>
300008d8:	e59f1064 	ldr	r1, [pc, #100]	; 30000944 <do_bdinfo+0xc4>
300008dc:	e1a00005 	mov	r0, r5
300008e0:	eb00327b 	bl	3000d2d4 <strcpy>
300008e4:	e1a00005 	mov	r0, r5
300008e8:	eb0010a0 	bl	30004b70 <getenv>
300008ec:	e59f3054 	ldr	r3, [pc, #84]	; 30000948 <do_bdinfo+0xc8>
300008f0:	e3500000 	cmp	r0, #0	; 0x0
300008f4:	11a02000 	movne	r2, r0
300008f8:	01a02003 	moveq	r2, r3
300008fc:	e1a01005 	mov	r1, r5
30000900:	e59f0044 	ldr	r0, [pc, #68]	; 3000094c <do_bdinfo+0xcc>
30000904:	eb00167e 	bl	30006304 <printf>
30000908:	e2841004 	add	r1, r4, #4	; 0x4
3000090c:	e59f003c 	ldr	r0, [pc, #60]	; 30000950 <do_bdinfo+0xd0>
30000910:	eb00167b 	bl	30006304 <printf>
30000914:	e5941000 	ldr	r1, [r4]
30000918:	e59f0034 	ldr	r0, [pc, #52]	; 30000954 <do_bdinfo+0xd4>
3000091c:	eb001678 	bl	30006304 <printf>
30000920:	e3a00000 	mov	r0, #0	; 0x0
30000924:	e28dd014 	add	sp, sp, #20	; 0x14
30000928:	e8bd8030 	pop	{r4, r5, pc}
3000092c:	3001731f 	.word	0x3001731f
30000930:	3001732b 	.word	0x3001732b
30000934:	30017331 	.word	0x30017331
30000938:	3001733d 	.word	0x3001733d
3000093c:	30017347 	.word	0x30017347
30000940:	30017350 	.word	0x30017350
30000944:	30017358 	.word	0x30017358
30000948:	30017360 	.word	0x30017360
3000094c:	3001736a 	.word	0x3001736a
30000950:	30017375 	.word	0x30017375
30000954:	30017389 	.word	0x30017389

30000958 <do_go_exec>:
30000958:	e1a03000 	mov	r3, r0
3000095c:	e92d4010 	push	{r4, lr}
30000960:	e1a00001 	mov	r0, r1
30000964:	e1a01002 	mov	r1, r2
30000968:	e1a0e00f 	mov	lr, pc
3000096c:	e1a0f003 	mov	pc, r3
30000970:	e8bd8010 	pop	{r4, pc}

30000974 <do_go>:
30000974:	e3520001 	cmp	r2, #1	; 0x1
30000978:	e92d4070 	push	{r4, r5, r6, lr}
3000097c:	e1a06002 	mov	r6, r2
30000980:	ca000002 	bgt	30000990 <do_go+0x1c>
30000984:	eb0013b3 	bl	30005858 <cmd_usage>
30000988:	e3a04001 	mov	r4, #1	; 0x1
3000098c:	ea000012 	b	300009dc <do_go+0x68>
30000990:	e5930004 	ldr	r0, [r3, #4]
30000994:	e3a02010 	mov	r2, #16	; 0x10
30000998:	e3a01000 	mov	r1, #0	; 0x0
3000099c:	e2835004 	add	r5, r3, #4	; 0x4
300009a0:	eb0033e7 	bl	3000d944 <simple_strtoul>
300009a4:	e1a04000 	mov	r4, r0
300009a8:	e1a01000 	mov	r1, r0
300009ac:	e59f0030 	ldr	r0, [pc, #48]	; 300009e4 <do_go+0x70>
300009b0:	eb001653 	bl	30006304 <printf>
300009b4:	e1a00004 	mov	r0, r4
300009b8:	e2461001 	sub	r1, r6, #1	; 0x1
300009bc:	e1a02005 	mov	r2, r5
300009c0:	ebffffe4 	bl	30000958 <do_go_exec>
300009c4:	e1a03000 	mov	r3, r0
300009c8:	e1a01000 	mov	r1, r0
300009cc:	e59f0014 	ldr	r0, [pc, #20]	; 300009e8 <do_go+0x74>
300009d0:	e2534000 	subs	r4, r3, #0	; 0x0
300009d4:	13a04001 	movne	r4, #1	; 0x1
300009d8:	eb001649 	bl	30006304 <printf>
300009dc:	e1a00004 	mov	r0, r4
300009e0:	e8bd8070 	pop	{r4, r5, r6, pc}
300009e4:	300173c1 	.word	0x300173c1
300009e8:	300173e9 	.word	0x300173e9

300009ec <__fswab32>:
300009ec:	e1a03000 	mov	r3, r0
300009f0:	e1a00c00 	lsl	r0, r0, #24
300009f4:	e2032cff 	and	r2, r3, #65280	; 0xff00
300009f8:	e1800c23 	orr	r0, r0, r3, lsr #24
300009fc:	e1800402 	orr	r0, r0, r2, lsl #8
30000a00:	e20338ff 	and	r3, r3, #16711680	; 0xff0000
30000a04:	e1800423 	orr	r0, r0, r3, lsr #8
30000a08:	e1a0f00e 	mov	pc, lr

30000a0c <image_get_data>:
30000a0c:	e2800040 	add	r0, r0, #64	; 0x40
30000a10:	e1a0f00e 	mov	pc, lr

30000a14 <__board_lmb_reserve>:
30000a14:	e1a0f00e 	mov	pc, lr

30000a18 <__arch_lmb_reserve>:
30000a18:	e1a0f00e 	mov	pc, lr

30000a1c <__arch_preboot_os>:
30000a1c:	e1a0f00e 	mov	pc, lr

30000a20 <do_imls>:
30000a20:	e59f1098 	ldr	r1, [pc, #152]	; 30000ac0 <do_imls+0xa0>
30000a24:	e59f3098 	ldr	r3, [pc, #152]	; 30000ac4 <do_imls+0xa4>
30000a28:	e5912008 	ldr	r2, [r1, #8]
30000a2c:	e1520003 	cmp	r2, r3
30000a30:	e92d4070 	push	{r4, r5, r6, lr}
30000a34:	11a06001 	movne	r6, r1
30000a38:	13a05000 	movne	r5, #0	; 0x0
30000a3c:	1a000019 	bne	30000aa8 <do_imls+0x88>
30000a40:	ea00001c 	b	30000ab8 <do_imls+0x98>
30000a44:	e596400c 	ldr	r4, [r6, #12]
30000a48:	e2540000 	subs	r0, r4, #0	; 0x0
30000a4c:	0a000013 	beq	30000aa0 <do_imls+0x80>
30000a50:	eb002448 	bl	30009b78 <genimg_get_format>
30000a54:	e3500001 	cmp	r0, #1	; 0x1
30000a58:	1a000010 	bne	30000aa0 <do_imls+0x80>
30000a5c:	e1a00004 	mov	r0, r4
30000a60:	eb002527 	bl	30009f04 <image_check_hcrc>
30000a64:	e3500000 	cmp	r0, #0	; 0x0
30000a68:	0a00000c 	beq	30000aa0 <do_imls+0x80>
30000a6c:	e1a01004 	mov	r1, r4
30000a70:	e59f0050 	ldr	r0, [pc, #80]	; 30000ac8 <do_imls+0xa8>
30000a74:	eb001622 	bl	30006304 <printf>
30000a78:	e1a00004 	mov	r0, r4
30000a7c:	eb002496 	bl	30009cdc <image_print_contents>
30000a80:	e59f0044 	ldr	r0, [pc, #68]	; 30000acc <do_imls+0xac>
30000a84:	eb00160c 	bl	300062bc <puts>
30000a88:	e1a00004 	mov	r0, r4
30000a8c:	eb00250a 	bl	30009ebc <image_check_dcrc>
30000a90:	e3500000 	cmp	r0, #0	; 0x0
30000a94:	e59f0034 	ldr	r0, [pc, #52]	; 30000ad0 <do_imls+0xb0>
30000a98:	059f0034 	ldreq	r0, [pc, #52]	; 30000ad4 <do_imls+0xb4>
30000a9c:	eb001606 	bl	300062bc <puts>
30000aa0:	e2855001 	add	r5, r5, #1	; 0x1
30000aa4:	e2866004 	add	r6, r6, #4	; 0x4
30000aa8:	e59f3010 	ldr	r3, [pc, #16]	; 30000ac0 <do_imls+0xa0>
30000aac:	e1d330b4 	ldrh	r3, [r3, #4]
30000ab0:	e1550003 	cmp	r5, r3
30000ab4:	baffffe2 	blt	30000a44 <do_imls+0x24>
30000ab8:	e3a00000 	mov	r0, #0	; 0x0
30000abc:	e8bd8070 	pop	{r4, r5, r6, pc}
30000ac0:	3001e0ac 	.word	0x3001e0ac
30000ac4:	0000ffff 	.word	0x0000ffff
30000ac8:	300174b0 	.word	0x300174b0
30000acc:	300174c8 	.word	0x300174c8
30000ad0:	300174e3 	.word	0x300174e3
30000ad4:	3001754f 	.word	0x3001754f

30000ad8 <image_check_magic>:
30000ad8:	e92d4010 	push	{r4, lr}
30000adc:	e5900000 	ldr	r0, [r0]
30000ae0:	ebffffc1 	bl	300009ec <__fswab32>
30000ae4:	e59f300c 	ldr	r3, [pc, #12]	; 30000af8 <image_check_magic+0x20>
30000ae8:	e1500003 	cmp	r0, r3
30000aec:	13a00000 	movne	r0, #0	; 0x0
30000af0:	03a00001 	moveq	r0, #1	; 0x1
30000af4:	e8bd8010 	pop	{r4, pc}
30000af8:	27051956 	.word	0x27051956

30000afc <image_info>:
30000afc:	e92d4070 	push	{r4, r5, r6, lr}
30000b00:	e1a01000 	mov	r1, r0
30000b04:	e1a04000 	mov	r4, r0
30000b08:	e59f0094 	ldr	r0, [pc, #148]	; 30000ba4 <image_info+0xa8>
30000b0c:	eb0015fc 	bl	30006304 <printf>
30000b10:	e1a00004 	mov	r0, r4
30000b14:	eb002417 	bl	30009b78 <genimg_get_format>
30000b18:	e3500001 	cmp	r0, #1	; 0x1
30000b1c:	e1a05000 	mov	r5, r0
30000b20:	1a00001b 	bne	30000b94 <image_info+0x98>
30000b24:	e59f007c 	ldr	r0, [pc, #124]	; 30000ba8 <image_info+0xac>
30000b28:	eb0015e3 	bl	300062bc <puts>
30000b2c:	e1a00004 	mov	r0, r4
30000b30:	ebffffe8 	bl	30000ad8 <image_check_magic>
30000b34:	e3500000 	cmp	r0, #0	; 0x0
30000b38:	059f006c 	ldreq	r0, [pc, #108]	; 30000bac <image_info+0xb0>
30000b3c:	0a00000d 	beq	30000b78 <image_info+0x7c>
30000b40:	e1a00004 	mov	r0, r4
30000b44:	eb0024ee 	bl	30009f04 <image_check_hcrc>
30000b48:	e3500000 	cmp	r0, #0	; 0x0
30000b4c:	059f005c 	ldreq	r0, [pc, #92]	; 30000bb0 <image_info+0xb4>
30000b50:	0a000008 	beq	30000b78 <image_info+0x7c>
30000b54:	e1a00004 	mov	r0, r4
30000b58:	eb00245f 	bl	30009cdc <image_print_contents>
30000b5c:	e59f0050 	ldr	r0, [pc, #80]	; 30000bb4 <image_info+0xb8>
30000b60:	eb0015d5 	bl	300062bc <puts>
30000b64:	e1a00004 	mov	r0, r4
30000b68:	eb0024d3 	bl	30009ebc <image_check_dcrc>
30000b6c:	e3500000 	cmp	r0, #0	; 0x0
30000b70:	1a000003 	bne	30000b84 <image_info+0x88>
30000b74:	e59f003c 	ldr	r0, [pc, #60]	; 30000bb8 <image_info+0xbc>
30000b78:	eb0015cf 	bl	300062bc <puts>
30000b7c:	e1a00005 	mov	r0, r5
30000b80:	e8bd8070 	pop	{r4, r5, r6, pc}
30000b84:	e59f0030 	ldr	r0, [pc, #48]	; 30000bbc <image_info+0xc0>
30000b88:	eb0015cb 	bl	300062bc <puts>
30000b8c:	e3a00000 	mov	r0, #0	; 0x0
30000b90:	e8bd8070 	pop	{r4, r5, r6, pc}
30000b94:	e59f0024 	ldr	r0, [pc, #36]	; 30000bc0 <image_info+0xc4>
30000b98:	eb0015c7 	bl	300062bc <puts>
30000b9c:	e3a00001 	mov	r0, #1	; 0x1
30000ba0:	e8bd8070 	pop	{r4, r5, r6, pc}
30000ba4:	300174e7 	.word	0x300174e7
30000ba8:	30017508 	.word	0x30017508
30000bac:	3001751f 	.word	0x3001751f
30000bb0:	30017534 	.word	0x30017534
30000bb4:	300174c8 	.word	0x300174c8
30000bb8:	3001754c 	.word	0x3001754c
30000bbc:	300174e3 	.word	0x300174e3
30000bc0:	3001755d 	.word	0x3001755d

30000bc4 <do_iminfo>:
30000bc4:	e3520001 	cmp	r2, #1	; 0x1
30000bc8:	e92d41f0 	push	{r4, r5, r6, r7, r8, lr}
30000bcc:	e1a06002 	mov	r6, r2
30000bd0:	e1a07003 	mov	r7, r3
30000bd4:	c3a04001 	movgt	r4, #1	; 0x1
30000bd8:	c3a05000 	movgt	r5, #0	; 0x0
30000bdc:	ca000003 	bgt	30000bf0 <do_iminfo+0x2c>
30000be0:	e59f3038 	ldr	r3, [pc, #56]	; 30000c20 <do_iminfo+0x5c>
30000be4:	e5930000 	ldr	r0, [r3]
30000be8:	e8bd41f0 	pop	{r4, r5, r6, r7, r8, lr}
30000bec:	eaffffc2 	b	30000afc <image_info>
30000bf0:	e7970104 	ldr	r0, [r7, r4, lsl #2]
30000bf4:	e3a01000 	mov	r1, #0	; 0x0
30000bf8:	e3a02010 	mov	r2, #16	; 0x10
30000bfc:	eb003350 	bl	3000d944 <simple_strtoul>
30000c00:	ebffffbd 	bl	30000afc <image_info>
30000c04:	e2844001 	add	r4, r4, #1	; 0x1
30000c08:	e3500000 	cmp	r0, #0	; 0x0
30000c0c:	13a05001 	movne	r5, #1	; 0x1
30000c10:	e1540006 	cmp	r4, r6
30000c14:	bafffff5 	blt	30000bf0 <do_iminfo+0x2c>
30000c18:	e1a00005 	mov	r0, r5
30000c1c:	e8bd81f0 	pop	{r4, r5, r6, r7, r8, pc}
30000c20:	3001b2e8 	.word	0x3001b2e8

30000c24 <image_get_size>:
30000c24:	e590000c 	ldr	r0, [r0, #12]
30000c28:	eaffff6f 	b	300009ec <__fswab32>

30000c2c <image_get_data_size>:
30000c2c:	eafffffc 	b	30000c24 <image_get_size>

30000c30 <do_bootd>:
30000c30:	e92d4010 	push	{r4, lr}
30000c34:	e59f0014 	ldr	r0, [pc, #20]	; 30000c50 <do_bootd+0x20>
30000c38:	eb000fcc 	bl	30004b70 <getenv>
30000c3c:	e3a01003 	mov	r1, #3	; 0x3
30000c40:	eb00213e 	bl	30009140 <parse_string_outer>
30000c44:	e2500000 	subs	r0, r0, #0	; 0x0
30000c48:	13a00001 	movne	r0, #1	; 0x1
30000c4c:	e8bd8010 	pop	{r4, pc}
30000c50:	30017574 	.word	0x30017574

30000c54 <do_bootm_rtems>:
30000c54:	e3500000 	cmp	r0, #0	; 0x0
30000c58:	13500080 	cmpne	r0, #128	; 0x80
30000c5c:	e92d4010 	push	{r4, lr}
30000c60:	1a000008 	bne	30000c88 <do_bootm_rtems+0x34>
30000c64:	e5934060 	ldr	r4, [r3, #96]
30000c68:	e59f0020 	ldr	r0, [pc, #32]	; 30000c90 <do_bootm_rtems+0x3c>
30000c6c:	e1a01004 	mov	r1, r4
30000c70:	eb0015a3 	bl	30006304 <printf>
30000c74:	e3a0000f 	mov	r0, #15	; 0xf
30000c78:	eb002549 	bl	3000a1a4 <__show_boot_progress>
30000c7c:	e5980000 	ldr	r0, [r8]
30000c80:	e1a0e00f 	mov	lr, pc
30000c84:	e1a0f004 	mov	pc, r4
30000c88:	e3a00001 	mov	r0, #1	; 0x1
30000c8c:	e8bd8010 	pop	{r4, pc}
30000c90:	3001757c 	.word	0x3001757c

30000c94 <do_bootm_qnxelf>:
30000c94:	e92d4070 	push	{r4, r5, r6, lr}
30000c98:	e3500000 	cmp	r0, #0	; 0x0
30000c9c:	13500080 	cmpne	r0, #128	; 0x80
30000ca0:	e24dd018 	sub	sp, sp, #24	; 0x18
30000ca4:	03a06000 	moveq	r6, #0	; 0x0
30000ca8:	13a06001 	movne	r6, #1	; 0x1
30000cac:	e1a05002 	mov	r5, r2
30000cb0:	1a00000c 	bne	30000ce8 <do_bootm_qnxelf+0x54>
30000cb4:	e5932060 	ldr	r2, [r3, #96]
30000cb8:	e59f1034 	ldr	r1, [pc, #52]	; 30000cf4 <do_bootm_qnxelf+0x60>
30000cbc:	e1a0000d 	mov	r0, sp
30000cc0:	eb00363e 	bl	3000e5c0 <sprintf>
30000cc4:	e595c000 	ldr	ip, [r5]
30000cc8:	e1a00006 	mov	r0, r6
30000ccc:	e1a01006 	mov	r1, r6
30000cd0:	e3a02002 	mov	r2, #2	; 0x2
30000cd4:	e28d3010 	add	r3, sp, #16	; 0x10
30000cd8:	e1a0400d 	mov	r4, sp
30000cdc:	e58dc010 	str	ip, [sp, #16]
30000ce0:	e58dd014 	str	sp, [sp, #20]
30000ce4:	eb000509 	bl	30002110 <do_bootelf>
30000ce8:	e3a00001 	mov	r0, #1	; 0x1
30000cec:	e28dd018 	add	sp, sp, #24	; 0x18
30000cf0:	e8bd8070 	pop	{r4, r5, r6, pc}
30000cf4:	300175b5 	.word	0x300175b5

30000cf8 <do_bootm_vxworks>:
30000cf8:	e92d4030 	push	{r4, r5, lr}
30000cfc:	e3500000 	cmp	r0, #0	; 0x0
30000d00:	13500080 	cmpne	r0, #128	; 0x80
30000d04:	e24dd054 	sub	sp, sp, #84	; 0x54
30000d08:	03a05000 	moveq	r5, #0	; 0x0
30000d0c:	13a05001 	movne	r5, #1	; 0x1
30000d10:	1a00000c 	bne	30000d48 <do_bootm_vxworks+0x50>
30000d14:	e5932060 	ldr	r2, [r3, #96]
30000d18:	e59f1034 	ldr	r1, [pc, #52]	; 30000d54 <do_bootm_vxworks+0x5c>
30000d1c:	e1a0000d 	mov	r0, sp
30000d20:	eb003626 	bl	3000e5c0 <sprintf>
30000d24:	e1a0100d 	mov	r1, sp
30000d28:	e59f0028 	ldr	r0, [pc, #40]	; 30000d58 <do_bootm_vxworks+0x60>
30000d2c:	eb001123 	bl	300051c0 <setenv>
30000d30:	e1a00005 	mov	r0, r5
30000d34:	e1a01005 	mov	r1, r5
30000d38:	e1a02005 	mov	r2, r5
30000d3c:	e1a03005 	mov	r3, r5
30000d40:	e1a0400d 	mov	r4, sp
30000d44:	eb00043e 	bl	30001e44 <do_bootvx>
30000d48:	e3a00001 	mov	r0, #1	; 0x1
30000d4c:	e28dd054 	add	sp, sp, #84	; 0x54
30000d50:	e8bd8030 	pop	{r4, r5, pc}
30000d54:	300175b5 	.word	0x300175b5
30000d58:	300175b9 	.word	0x300175b9

30000d5c <do_bootm_netbsd>:
30000d5c:	e3500000 	cmp	r0, #0	; 0x0
30000d60:	13500080 	cmpne	r0, #128	; 0x80
30000d64:	e92d4ef3 	push	{r0, r1, r4, r5, r6, r7, r9, sl, fp, lr}
30000d68:	e1a0a001 	mov	sl, r1
30000d6c:	e1a06002 	mov	r6, r2
30000d70:	e1a09003 	mov	r9, r3
30000d74:	1a00003f 	bne	30000e78 <do_bootm_netbsd+0x11c>
30000d78:	e5d33022 	ldrb	r3, [r3, #34]
30000d7c:	e3530004 	cmp	r3, #4	; 0x4
30000d80:	e5994000 	ldr	r4, [r9]
30000d84:	1a000008 	bne	30000dac <do_bootm_netbsd+0x50>
30000d88:	e1a0300d 	mov	r3, sp
30000d8c:	e1a00004 	mov	r0, r4
30000d90:	e3a01001 	mov	r1, #1	; 0x1
30000d94:	e28d2004 	add	r2, sp, #4	; 0x4
30000d98:	eb00237f 	bl	30009b9c <image_multi_getimg>
30000d9c:	e59d3000 	ldr	r3, [sp]
30000da0:	e3530000 	cmp	r3, #0	; 0x0
30000da4:	11a0b004 	movne	fp, r4
30000da8:	1a000000 	bne	30000db0 <do_bootm_netbsd+0x54>
30000dac:	e3a0b000 	mov	fp, #0	; 0x0
30000db0:	e35a0002 	cmp	sl, #2	; 0x2
30000db4:	da00001d 	ble	30000e30 <do_bootm_netbsd+0xd4>
30000db8:	e3a05000 	mov	r5, #0	; 0x0
30000dbc:	e3a04002 	mov	r4, #2	; 0x2
30000dc0:	e7960104 	ldr	r0, [r6, r4, lsl #2]
30000dc4:	eb0031a6 	bl	3000d464 <strlen>
30000dc8:	e2844001 	add	r4, r4, #1	; 0x1
30000dcc:	e0800005 	add	r0, r0, r5
30000dd0:	e154000a 	cmp	r4, sl
30000dd4:	e2805001 	add	r5, r0, #1	; 0x1
30000dd8:	bafffff8 	blt	30000dc0 <do_bootm_netbsd+0x64>
30000ddc:	e1a00005 	mov	r0, r5
30000de0:	eb0016c5 	bl	300068fc <malloc>
30000de4:	e1a04006 	mov	r4, r6
30000de8:	e3a05000 	mov	r5, #0	; 0x0
30000dec:	e3a06002 	mov	r6, #2	; 0x2
30000df0:	e1a07000 	mov	r7, r0
30000df4:	ea000001 	b	30000e00 <do_bootm_netbsd+0xa4>
30000df8:	e3a03020 	mov	r3, #32	; 0x20
30000dfc:	e7c73000 	strb	r3, [r7, r0]
30000e00:	e5941008 	ldr	r1, [r4, #8]
30000e04:	e0870005 	add	r0, r7, r5
30000e08:	eb003131 	bl	3000d2d4 <strcpy>
30000e0c:	e5940008 	ldr	r0, [r4, #8]
30000e10:	eb003193 	bl	3000d464 <strlen>
30000e14:	e2866001 	add	r6, r6, #1	; 0x1
30000e18:	e0800005 	add	r0, r0, r5
30000e1c:	e156000a 	cmp	r6, sl
30000e20:	e2844004 	add	r4, r4, #4	; 0x4
30000e24:	e2805001 	add	r5, r0, #1	; 0x1
30000e28:	bafffff2 	blt	30000df8 <do_bootm_netbsd+0x9c>
30000e2c:	ea000005 	b	30000e48 <do_bootm_netbsd+0xec>
30000e30:	e59f0048 	ldr	r0, [pc, #72]	; 30000e80 <do_bootm_netbsd+0x124>
30000e34:	eb000f4d 	bl	30004b70 <getenv>
30000e38:	e59f3044 	ldr	r3, [pc, #68]	; 30000e84 <do_bootm_netbsd+0x128>
30000e3c:	e3500000 	cmp	r0, #0	; 0x0
30000e40:	11a07000 	movne	r7, r0
30000e44:	01a07003 	moveq	r7, r3
30000e48:	e5994060 	ldr	r4, [r9, #96]
30000e4c:	e59f0034 	ldr	r0, [pc, #52]	; 30000e88 <do_bootm_netbsd+0x12c>
30000e50:	e1a01004 	mov	r1, r4
30000e54:	eb00152a 	bl	30006304 <printf>
30000e58:	e3a0000f 	mov	r0, #15	; 0xf
30000e5c:	eb0024d0 	bl	3000a1a4 <__show_boot_progress>
30000e60:	e1a0100b 	mov	r1, fp
30000e64:	e5980000 	ldr	r0, [r8]
30000e68:	e1a03007 	mov	r3, r7
30000e6c:	e59f2010 	ldr	r2, [pc, #16]	; 30000e84 <do_bootm_netbsd+0x128>
30000e70:	e1a0e00f 	mov	lr, pc
30000e74:	e1a0f004 	mov	pc, r4
30000e78:	e3a00001 	mov	r0, #1	; 0x1
30000e7c:	e8bd8efc 	pop	{r2, r3, r4, r5, r6, r7, r9, sl, fp, pc}
30000e80:	300175c2 	.word	0x300175c2
30000e84:	30018e0b 	.word	0x30018e0b
30000e88:	300175cb 	.word	0x300175cb

30000e8c <bootm_start>:
30000e8c:	e92d4ef3 	push	{r0, r1, r4, r5, r6, r7, r9, sl, fp, lr}
30000e90:	e59f5348 	ldr	r5, [pc, #840]	; 300011e0 <bootm_start+0x354>
30000e94:	e3a01000 	mov	r1, #0	; 0x0
30000e98:	e1a09002 	mov	r9, r2
30000e9c:	e1a0b000 	mov	fp, r0
30000ea0:	e3a02f4b 	mov	r2, #300	; 0x12c
30000ea4:	e1a00005 	mov	r0, r5
30000ea8:	e1a0a003 	mov	sl, r3
30000eac:	eb0031ed 	bl	3000d668 <memset>
30000eb0:	e59f032c 	ldr	r0, [pc, #812]	; 300011e4 <bootm_start+0x358>
30000eb4:	eb00237f 	bl	30009cb8 <getenv_yesno>
30000eb8:	e5850084 	str	r0, [r5, #132]
30000ebc:	e285008c 	add	r0, r5, #140	; 0x8c
30000ec0:	eb002fc0 	bl	3000cdc8 <lmb_init>
30000ec4:	eb00236e 	bl	30009c84 <getenv_bootm_low>
30000ec8:	e1a04000 	mov	r4, r0
30000ecc:	eb00235f 	bl	30009c50 <getenv_bootm_size>
30000ed0:	e1a01004 	mov	r1, r4
30000ed4:	e1a02000 	mov	r2, r0
30000ed8:	e285008c 	add	r0, r5, #140	; 0x8c
30000edc:	eb003035 	bl	3000cfb8 <lmb_add>
30000ee0:	e285008c 	add	r0, r5, #140	; 0x8c
30000ee4:	ebfffecb 	bl	30000a18 <__arch_lmb_reserve>
30000ee8:	e285008c 	add	r0, r5, #140	; 0x8c
30000eec:	ebfffec8 	bl	30000a14 <__board_lmb_reserve>
30000ef0:	e3590001 	cmp	r9, #1	; 0x1
30000ef4:	d59f32ec 	ldrle	r3, [pc, #748]	; 300011e8 <bootm_start+0x35c>
30000ef8:	d5934000 	ldrle	r4, [r3]
30000efc:	da000004 	ble	30000f14 <bootm_start+0x88>
30000f00:	e59a0004 	ldr	r0, [sl, #4]
30000f04:	e3a01000 	mov	r1, #0	; 0x0
30000f08:	e3a02010 	mov	r2, #16	; 0x10
30000f0c:	eb00328c 	bl	3000d944 <simple_strtoul>
30000f10:	e1a04000 	mov	r4, r0
30000f14:	e3a00001 	mov	r0, #1	; 0x1
30000f18:	eb0024a1 	bl	3000a1a4 <__show_boot_progress>
30000f1c:	e1a00004 	mov	r0, r4
30000f20:	eb0022dd 	bl	30009a9c <genimg_get_image>
30000f24:	e59f42b4 	ldr	r4, [pc, #692]	; 300011e0 <bootm_start+0x354>
30000f28:	e3a06000 	mov	r6, #0	; 0x0
30000f2c:	e5846054 	str	r6, [r4, #84]
30000f30:	e5846050 	str	r6, [r4, #80]
30000f34:	e1a05000 	mov	r5, r0
30000f38:	eb00230e 	bl	30009b78 <genimg_get_format>
30000f3c:	e3500001 	cmp	r0, #1	; 0x1
30000f40:	e1a07005 	mov	r7, r5
30000f44:	1a000062 	bne	300010d4 <bootm_start+0x248>
30000f48:	e59f029c 	ldr	r0, [pc, #668]	; 300011ec <bootm_start+0x360>
30000f4c:	e1a01005 	mov	r1, r5
30000f50:	eb0014eb 	bl	30006304 <printf>
30000f54:	e1a00005 	mov	r0, r5
30000f58:	e5944084 	ldr	r4, [r4, #132]
30000f5c:	ebfffedd 	bl	30000ad8 <image_check_magic>
30000f60:	e3500000 	cmp	r0, #0	; 0x0
30000f64:	1a000003 	bne	30000f78 <bootm_start+0xec>
30000f68:	e59f0280 	ldr	r0, [pc, #640]	; 300011f0 <bootm_start+0x364>
30000f6c:	eb0014d2 	bl	300062bc <puts>
30000f70:	e3e00000 	mvn	r0, #0	; 0x0
30000f74:	ea000023 	b	30001008 <bootm_start+0x17c>
30000f78:	e3a00002 	mov	r0, #2	; 0x2
30000f7c:	eb002488 	bl	3000a1a4 <__show_boot_progress>
30000f80:	e1a00005 	mov	r0, r5
30000f84:	eb0023de 	bl	30009f04 <image_check_hcrc>
30000f88:	e3500000 	cmp	r0, #0	; 0x0
30000f8c:	1a000003 	bne	30000fa0 <bootm_start+0x114>
30000f90:	e59f025c 	ldr	r0, [pc, #604]	; 300011f4 <bootm_start+0x368>
30000f94:	eb0014c8 	bl	300062bc <puts>
30000f98:	e3e00001 	mvn	r0, #1	; 0x1
30000f9c:	ea000019 	b	30001008 <bootm_start+0x17c>
30000fa0:	e3a00003 	mov	r0, #3	; 0x3
30000fa4:	eb00247e 	bl	3000a1a4 <__show_boot_progress>
30000fa8:	e1a00005 	mov	r0, r5
30000fac:	eb00234a 	bl	30009cdc <image_print_contents>
30000fb0:	e3540000 	cmp	r4, #0	; 0x0
30000fb4:	0a00000b 	beq	30000fe8 <bootm_start+0x15c>
30000fb8:	e59f0238 	ldr	r0, [pc, #568]	; 300011f8 <bootm_start+0x36c>
30000fbc:	eb0014be 	bl	300062bc <puts>
30000fc0:	e1a00005 	mov	r0, r5
30000fc4:	eb0023bc 	bl	30009ebc <image_check_dcrc>
30000fc8:	e3500000 	cmp	r0, #0	; 0x0
30000fcc:	1a000003 	bne	30000fe0 <bootm_start+0x154>
30000fd0:	e59f0224 	ldr	r0, [pc, #548]	; 300011fc <bootm_start+0x370>
30000fd4:	eb0014ca 	bl	30006304 <printf>
30000fd8:	e3e00002 	mvn	r0, #2	; 0x2
30000fdc:	ea000009 	b	30001008 <bootm_start+0x17c>
30000fe0:	e59f0218 	ldr	r0, [pc, #536]	; 30001200 <bootm_start+0x374>
30000fe4:	eb0014b4 	bl	300062bc <puts>
30000fe8:	e3a00004 	mov	r0, #4	; 0x4
30000fec:	eb00246c 	bl	3000a1a4 <__show_boot_progress>
30000ff0:	e5d5101d 	ldrb	r1, [r5, #29]
30000ff4:	e3510002 	cmp	r1, #2	; 0x2
30000ff8:	0a000005 	beq	30001014 <bootm_start+0x188>
30000ffc:	e59f0200 	ldr	r0, [pc, #512]	; 30001204 <bootm_start+0x378>
30001000:	eb0014bf 	bl	30006304 <printf>
30001004:	e3e00003 	mvn	r0, #3	; 0x3
30001008:	eb002465 	bl	3000a1a4 <__show_boot_progress>
3000100c:	e3a07000 	mov	r7, #0	; 0x0
30001010:	ea000035 	b	300010ec <bootm_start+0x260>
30001014:	e3a00005 	mov	r0, #5	; 0x5
30001018:	eb002461 	bl	3000a1a4 <__show_boot_progress>
3000101c:	e5d5301e 	ldrb	r3, [r5, #30]
30001020:	e3530002 	cmp	r3, #2	; 0x2
30001024:	0a000012 	beq	30001074 <bootm_start+0x1e8>
30001028:	e3530004 	cmp	r3, #4	; 0x4
3000102c:	0a000002 	beq	3000103c <bootm_start+0x1b0>
30001030:	e3530001 	cmp	r3, #1	; 0x1
30001034:	1a000016 	bne	30001094 <bootm_start+0x208>
30001038:	ea000005 	b	30001054 <bootm_start+0x1c8>
3000103c:	e59f21c4 	ldr	r2, [pc, #452]	; 30001208 <bootm_start+0x37c>
30001040:	e1a00005 	mov	r0, r5
30001044:	e3a01000 	mov	r1, #0	; 0x0
30001048:	e2823004 	add	r3, r2, #4	; 0x4
3000104c:	eb0022d2 	bl	30009b9c <image_multi_getimg>
30001050:	ea000014 	b	300010a8 <bootm_start+0x21c>
30001054:	e3590002 	cmp	r9, #2	; 0x2
30001058:	da000005 	ble	30001074 <bootm_start+0x1e8>
3000105c:	e3a01000 	mov	r1, #0	; 0x0
30001060:	e3a02010 	mov	r2, #16	; 0x10
30001064:	e59a0008 	ldr	r0, [sl, #8]
30001068:	eb003235 	bl	3000d944 <simple_strtoul>
3000106c:	ebfffe5e 	bl	300009ec <__fswab32>
30001070:	e5850010 	str	r0, [r5, #16]
30001074:	e1a00005 	mov	r0, r5
30001078:	ebfffe63 	bl	30000a0c <image_get_data>
3000107c:	e59f415c 	ldr	r4, [pc, #348]	; 300011e0 <bootm_start+0x354>
30001080:	e5840050 	str	r0, [r4, #80]
30001084:	e1a00005 	mov	r0, r5
30001088:	ebfffee7 	bl	30000c2c <image_get_data_size>
3000108c:	e5840054 	str	r0, [r4, #84]
30001090:	ea000004 	b	300010a8 <bootm_start+0x21c>
30001094:	e59f0170 	ldr	r0, [pc, #368]	; 3000120c <bootm_start+0x380>
30001098:	e59b1000 	ldr	r1, [fp]
3000109c:	eb001498 	bl	30006304 <printf>
300010a0:	e3e00004 	mvn	r0, #4	; 0x4
300010a4:	eaffffd7 	b	30001008 <bootm_start+0x17c>
300010a8:	e59f4130 	ldr	r4, [pc, #304]	; 300011e0 <bootm_start+0x354>
300010ac:	e1a01005 	mov	r1, r5
300010b0:	e2840004 	add	r0, r4, #4	; 0x4
300010b4:	e3a02040 	mov	r2, #64	; 0x40
300010b8:	eb0031b3 	bl	3000d78c <memmove>
300010bc:	e3a03001 	mov	r3, #1	; 0x1
300010c0:	e3a00006 	mov	r0, #6	; 0x6
300010c4:	e5843044 	str	r3, [r4, #68]
300010c8:	e5845000 	str	r5, [r4]
300010cc:	eb002434 	bl	3000a1a4 <__show_boot_progress>
300010d0:	ea000005 	b	300010ec <bootm_start+0x260>
300010d4:	e59b1000 	ldr	r1, [fp]
300010d8:	e59f0130 	ldr	r0, [pc, #304]	; 30001210 <bootm_start+0x384>
300010dc:	eb001488 	bl	30006304 <printf>
300010e0:	e3e0006b 	mvn	r0, #107	; 0x6b
300010e4:	eb00242e 	bl	3000a1a4 <__show_boot_progress>
300010e8:	e1a07006 	mov	r7, r6
300010ec:	e59f40ec 	ldr	r4, [pc, #236]	; 300011e0 <bootm_start+0x354>
300010f0:	e5943054 	ldr	r3, [r4, #84]
300010f4:	e3530000 	cmp	r3, #0	; 0x0
300010f8:	059f0114 	ldreq	r0, [pc, #276]	; 30001214 <bootm_start+0x388>
300010fc:	0a000017 	beq	30001160 <bootm_start+0x2d4>
30001100:	e1a00007 	mov	r0, r7
30001104:	eb00229b 	bl	30009b78 <genimg_get_format>
30001108:	e3500001 	cmp	r0, #1	; 0x1
3000110c:	e1a05000 	mov	r5, r0
30001110:	159f0100 	ldrne	r0, [pc, #256]	; 30001218 <bootm_start+0x38c>
30001114:	1a000011 	bne	30001160 <bootm_start+0x2d4>
30001118:	e5d7301e 	ldrb	r3, [r7, #30]
3000111c:	e5c4305d 	strb	r3, [r4, #93]
30001120:	e5d7301f 	ldrb	r3, [r7, #31]
30001124:	e5c4305c 	strb	r3, [r4, #92]
30001128:	e5d7301c 	ldrb	r3, [r7, #28]
3000112c:	e1a00007 	mov	r0, r7
30001130:	e5c4305e 	strb	r3, [r4, #94]
30001134:	ebfffeba 	bl	30000c24 <image_get_size>
30001138:	e2803040 	add	r3, r0, #64	; 0x40
3000113c:	e0873003 	add	r3, r7, r3
30001140:	e584304c 	str	r3, [r4, #76]
30001144:	e5970010 	ldr	r0, [r7, #16]
30001148:	ebfffe27 	bl	300009ec <__fswab32>
3000114c:	e5943044 	ldr	r3, [r4, #68]
30001150:	e3530000 	cmp	r3, #0	; 0x0
30001154:	e5840058 	str	r0, [r4, #88]
30001158:	1a000003 	bne	3000116c <bootm_start+0x2e0>
3000115c:	ea000009 	b	30001188 <bootm_start+0x2fc>
30001160:	eb001455 	bl	300062bc <puts>
30001164:	e3a00001 	mov	r0, #1	; 0x1
30001168:	ea00001b 	b	300011dc <bootm_start+0x350>
3000116c:	e5940018 	ldr	r0, [r4, #24]
30001170:	ebfffe1d 	bl	300009ec <__fswab32>
30001174:	e5d4305e 	ldrb	r3, [r4, #94]
30001178:	e3530005 	cmp	r3, #5	; 0x5
3000117c:	e5840060 	str	r0, [r4, #96]
30001180:	1a000010 	bne	300011c8 <bootm_start+0x33c>
30001184:	ea000001 	b	30001190 <bootm_start+0x304>
30001188:	e59f008c 	ldr	r0, [pc, #140]	; 3000121c <bootm_start+0x390>
3000118c:	ea00000a 	b	300011bc <bootm_start+0x330>
30001190:	e284c064 	add	ip, r4, #100	; 0x64
30001194:	e284e068 	add	lr, r4, #104	; 0x68
30001198:	e1a00009 	mov	r0, r9
3000119c:	e1a0100a 	mov	r1, sl
300011a0:	e1a02004 	mov	r2, r4
300011a4:	e3a03002 	mov	r3, #2	; 0x2
300011a8:	e88d5000 	stm	sp, {ip, lr}
300011ac:	eb002369 	bl	30009f58 <boot_get_ramdisk>
300011b0:	e3500000 	cmp	r0, #0	; 0x0
300011b4:	0a000003 	beq	300011c8 <bootm_start+0x33c>
300011b8:	e59f0060 	ldr	r0, [pc, #96]	; 30001220 <bootm_start+0x394>
300011bc:	eb00143e 	bl	300062bc <puts>
300011c0:	e1a00005 	mov	r0, r5
300011c4:	ea000004 	b	300011dc <bootm_start+0x350>
300011c8:	e59f2010 	ldr	r2, [pc, #16]	; 300011e0 <bootm_start+0x354>
300011cc:	e3a03001 	mov	r3, #1	; 0x1
300011d0:	e5823088 	str	r3, [r2, #136]
300011d4:	e5827048 	str	r7, [r2, #72]
300011d8:	e3a00000 	mov	r0, #0	; 0x0
300011dc:	e8bd8efc 	pop	{r2, r3, r4, r5, r6, r7, r9, sl, fp, pc}
300011e0:	3001c284 	.word	0x3001c284
300011e4:	30017614 	.word	0x30017614
300011e8:	3001b2e8 	.word	0x3001b2e8
300011ec:	3001761b 	.word	0x3001761b
300011f0:	30017522 	.word	0x30017522
300011f4:	30017537 	.word	0x30017537
300011f8:	300174c8 	.word	0x300174c8
300011fc:	3001754f 	.word	0x3001754f
30001200:	300174e3 	.word	0x300174e3
30001204:	3001764d 	.word	0x3001764d
30001208:	3001c2d4 	.word	0x3001c2d4
3000120c:	3001766c 	.word	0x3001766c
30001210:	3001768d 	.word	0x3001768d
30001214:	300176b0 	.word	0x300176b0
30001218:	300176d0 	.word	0x300176d0
3000121c:	300176f3 	.word	0x300176f3
30001220:	30017717 	.word	0x30017717

30001224 <bootm_load_os>:
30001224:	e24dd010 	sub	sp, sp, #16	; 0x10
30001228:	e92d4ef3 	push	{r0, r1, r4, r5, r6, r7, r9, sl, fp, lr}
3000122c:	e28dc028 	add	ip, sp, #40	; 0x28
30001230:	e88c000f 	stm	ip, {r0, r1, r2, r3}
30001234:	e5dd403c 	ldrb	r4, [sp, #60]
30001238:	e59d3034 	ldr	r3, [sp, #52]
3000123c:	e5dd003d 	ldrb	r0, [sp, #61]
30001240:	e58d3004 	str	r3, [sp, #4]
30001244:	e28d7040 	add	r7, sp, #64	; 0x40
30001248:	e8970880 	ldm	r7, {r7, fp}
3000124c:	e59d5038 	ldr	r5, [sp, #56]
30001250:	e59da028 	ldr	sl, [sp, #40]
30001254:	e59d902c 	ldr	r9, [sp, #44]
30001258:	e59d6030 	ldr	r6, [sp, #48]
3000125c:	eb002202 	bl	30009a6c <genimg_get_type_name>
30001260:	e3540000 	cmp	r4, #0	; 0x0
30001264:	0a000002 	beq	30001274 <bootm_load_os+0x50>
30001268:	e3540001 	cmp	r4, #1	; 0x1
3000126c:	1a00002a 	bne	3000131c <bootm_load_os+0xf8>
30001270:	ea000014 	b	300012c8 <bootm_load_os+0xa4>
30001274:	e155000a 	cmp	r5, sl
30001278:	1a000003 	bne	3000128c <bootm_load_os+0x68>
3000127c:	e1a01000 	mov	r1, r0
30001280:	e59f00e4 	ldr	r0, [pc, #228]	; 3000136c <bootm_load_os+0x148>
30001284:	eb00141e 	bl	30006304 <printf>
30001288:	ea000008 	b	300012b0 <bootm_load_os+0x8c>
3000128c:	e1a01000 	mov	r1, r0
30001290:	e59f00d8 	ldr	r0, [pc, #216]	; 30001370 <bootm_load_os+0x14c>
30001294:	eb00141a 	bl	30006304 <printf>
30001298:	e1550006 	cmp	r5, r6
3000129c:	11a01006 	movne	r1, r6
300012a0:	11a00005 	movne	r0, r5
300012a4:	159d2004 	ldrne	r2, [sp, #4]
300012a8:	13a03801 	movne	r3, #65536	; 0x10000
300012ac:	1b002266 	blne	30009c4c <memmove_wd>
300012b0:	e59d3004 	ldr	r3, [sp, #4]
300012b4:	e0853003 	add	r3, r5, r3
300012b8:	e5873000 	str	r3, [r7]
300012bc:	e59f00b0 	ldr	r0, [pc, #176]	; 30001374 <bootm_load_os+0x150>
300012c0:	eb0013fd 	bl	300062bc <puts>
300012c4:	ea000019 	b	30001330 <bootm_load_os+0x10c>
300012c8:	e1a01000 	mov	r1, r0
300012cc:	e59f00a4 	ldr	r0, [pc, #164]	; 30001378 <bootm_load_os+0x154>
300012d0:	eb00140b 	bl	30006304 <printf>
300012d4:	e28d3004 	add	r3, sp, #4	; 0x4
300012d8:	e1a00005 	mov	r0, r5
300012dc:	e1a02006 	mov	r2, r6
300012e0:	e3a01502 	mov	r1, #8388608	; 0x800000
300012e4:	eb002e66 	bl	3000cc84 <gunzip>
300012e8:	e3500000 	cmp	r0, #0	; 0x0
300012ec:	059d3004 	ldreq	r3, [sp, #4]
300012f0:	00853003 	addeq	r3, r5, r3
300012f4:	05873000 	streq	r3, [r7]
300012f8:	0a00000c 	beq	30001330 <bootm_load_os+0x10c>
300012fc:	e59f0078 	ldr	r0, [pc, #120]	; 3000137c <bootm_load_os+0x158>
30001300:	eb0013ed 	bl	300062bc <puts>
30001304:	e35b0000 	cmp	fp, #0	; 0x0
30001308:	0a000001 	beq	30001314 <bootm_load_os+0xf0>
3000130c:	e3e00005 	mvn	r0, #5	; 0x5
30001310:	eb0023a3 	bl	3000a1a4 <__show_boot_progress>
30001314:	e3e00000 	mvn	r0, #0	; 0x0
30001318:	ea000010 	b	30001360 <bootm_load_os+0x13c>
3000131c:	e59f005c 	ldr	r0, [pc, #92]	; 30001380 <bootm_load_os+0x15c>
30001320:	e1a01004 	mov	r1, r4
30001324:	eb0013f6 	bl	30006304 <printf>
30001328:	e3e00002 	mvn	r0, #2	; 0x2
3000132c:	ea00000b 	b	30001360 <bootm_load_os+0x13c>
30001330:	e59f003c 	ldr	r0, [pc, #60]	; 30001374 <bootm_load_os+0x150>
30001334:	eb0013e0 	bl	300062bc <puts>
30001338:	e35b0000 	cmp	fp, #0	; 0x0
3000133c:	13a00007 	movne	r0, #7	; 0x7
30001340:	1b002397 	blne	3000a1a4 <__show_boot_progress>
30001344:	e1550009 	cmp	r5, r9
30001348:	2a000003 	bcs	3000135c <bootm_load_os+0x138>
3000134c:	e5973000 	ldr	r3, [r7]
30001350:	e153000a 	cmp	r3, sl
30001354:	83e00001 	mvnhi	r0, #1	; 0x1
30001358:	8a000000 	bhi	30001360 <bootm_load_os+0x13c>
3000135c:	e3a00000 	mov	r0, #0	; 0x0
30001360:	e8bd4efc 	pop	{r2, r3, r4, r5, r6, r7, r9, sl, fp, lr}
30001364:	e28dd010 	add	sp, sp, #16	; 0x10
30001368:	e1a0f00e 	mov	pc, lr
3000136c:	3001773c 	.word	0x3001773c
30001370:	3001774b 	.word	0x3001774b
30001374:	300174e3 	.word	0x300174e3
30001378:	3001775e 	.word	0x3001775e
3000137c:	30017777 	.word	0x30017777
30001380:	300177c8 	.word	0x300177c8

30001384 <do_bootm_subcommand>:
30001384:	e92d44f0 	push	{r4, r5, r6, r7, sl, lr}
30001388:	e1a05000 	mov	r5, r0
3000138c:	e24dd018 	sub	sp, sp, #24	; 0x18
30001390:	e5930004 	ldr	r0, [r3, #4]
30001394:	e1a06001 	mov	r6, r1
30001398:	e1a0a002 	mov	sl, r2
3000139c:	e59f11a0 	ldr	r1, [pc, #416]	; 30001544 <do_bootm_subcommand+0x1c0>
300013a0:	e3a02006 	mov	r2, #6	; 0x6
300013a4:	e1a07003 	mov	r7, r3
300013a8:	eb001161 	bl	30005934 <find_cmd_tbl>
300013ac:	e3500000 	cmp	r0, #0	; 0x0
300013b0:	e2873004 	add	r3, r7, #4	; 0x4
300013b4:	0a00000e 	beq	300013f4 <do_bootm_subcommand+0x70>
300013b8:	e590400c 	ldr	r4, [r0, #12]
300013bc:	e3540001 	cmp	r4, #1	; 0x1
300013c0:	1a000005 	bne	300013dc <do_bootm_subcommand+0x58>
300013c4:	e1a00005 	mov	r0, r5
300013c8:	e1a01006 	mov	r1, r6
300013cc:	e24a2001 	sub	r2, sl, #1	; 0x1
300013d0:	ebfffead 	bl	30000e8c <bootm_start>
300013d4:	e1a04000 	mov	r4, r0
300013d8:	ea000056 	b	30001538 <do_bootm_subcommand+0x1b4>
300013dc:	e59f6164 	ldr	r6, [pc, #356]	; 30001548 <do_bootm_subcommand+0x1c4>
300013e0:	e5963088 	ldr	r3, [r6, #136]
300013e4:	e1530004 	cmp	r3, r4
300013e8:	ba000005 	blt	30001404 <do_bootm_subcommand+0x80>
300013ec:	e59f0158 	ldr	r0, [pc, #344]	; 3000154c <do_bootm_subcommand+0x1c8>
300013f0:	eb0013c3 	bl	30006304 <printf>
300013f4:	e1a00005 	mov	r0, r5
300013f8:	eb001116 	bl	30005858 <cmd_usage>
300013fc:	e3a04001 	mov	r4, #1	; 0x1
30001400:	ea00004c 	b	30001538 <do_bootm_subcommand+0x1b4>
30001404:	e1843003 	orr	r3, r4, r3
30001408:	e5d6205e 	ldrb	r2, [r6, #94]
3000140c:	e5863088 	str	r3, [r6, #136]
30001410:	e59f3138 	ldr	r3, [pc, #312]	; 30001550 <do_bootm_subcommand+0x1cc>
30001414:	e3540020 	cmp	r4, #32	; 0x20
30001418:	e7935102 	ldr	r5, [r3, r2, lsl #2]
3000141c:	0a000027 	beq	300014c0 <do_bootm_subcommand+0x13c>
30001420:	ca000004 	bgt	30001438 <do_bootm_subcommand+0xb4>
30001424:	e3540002 	cmp	r4, #2	; 0x2
30001428:	0a000007 	beq	3000144c <do_bootm_subcommand+0xc8>
3000142c:	e3540010 	cmp	r4, #16	; 0x10
30001430:	1a00003f 	bne	30001534 <do_bootm_subcommand+0x1b0>
30001434:	ea000017 	b	30001498 <do_bootm_subcommand+0x114>
30001438:	e3540040 	cmp	r4, #64	; 0x40
3000143c:	0a000029 	beq	300014e8 <do_bootm_subcommand+0x164>
30001440:	e3540080 	cmp	r4, #128	; 0x80
30001444:	1a00003a 	bne	30001534 <do_bootm_subcommand+0x1b0>
30001448:	ea000031 	b	30001514 <do_bootm_subcommand+0x190>
3000144c:	e2863058 	add	r3, r6, #88	; 0x58
30001450:	e8930003 	ldm	r3, {r0, r1}
30001454:	e1a0200d 	mov	r2, sp
30001458:	e8820003 	stm	r2, {r0, r1}
3000145c:	e28dc014 	add	ip, sp, #20	; 0x14
30001460:	e2863048 	add	r3, r6, #72	; 0x48
30001464:	e893000f 	ldm	r3, {r0, r1, r2, r3}
30001468:	e58dc008 	str	ip, [sp, #8]
3000146c:	e3a0c000 	mov	ip, #0	; 0x0
30001470:	e58dc00c 	str	ip, [sp, #12]
30001474:	ebffff6a 	bl	30001224 <bootm_load_os>
30001478:	e2504000 	subs	r4, r0, #0	; 0x0
3000147c:	1a00002d 	bne	30001538 <do_bootm_subcommand+0x1b4>
30001480:	e5961058 	ldr	r1, [r6, #88]
30001484:	e59d2014 	ldr	r2, [sp, #20]
30001488:	e286008c 	add	r0, r6, #140	; 0x8c
3000148c:	e0612002 	rsb	r2, r1, r2
30001490:	eb002f09 	bl	3000d0bc <lmb_reserve>
30001494:	ea000027 	b	30001538 <do_bootm_subcommand+0x1b4>
30001498:	e1a00004 	mov	r0, r4
3000149c:	e1a0100a 	mov	r1, sl
300014a0:	e1a02007 	mov	r2, r7
300014a4:	e1a03006 	mov	r3, r6
300014a8:	e1a0e00f 	mov	lr, pc
300014ac:	e1a0f005 	mov	pc, r5
300014b0:	e2504000 	subs	r4, r0, #0	; 0x0
300014b4:	159f0098 	ldrne	r0, [pc, #152]	; 30001554 <do_bootm_subcommand+0x1d0>
300014b8:	0a00001e 	beq	30001538 <do_bootm_subcommand+0x1b4>
300014bc:	ea000012 	b	3000150c <do_bootm_subcommand+0x188>
300014c0:	e1a00004 	mov	r0, r4
300014c4:	e1a0100a 	mov	r1, sl
300014c8:	e1a02007 	mov	r2, r7
300014cc:	e1a03006 	mov	r3, r6
300014d0:	e1a0e00f 	mov	lr, pc
300014d4:	e1a0f005 	mov	pc, r5
300014d8:	e2504000 	subs	r4, r0, #0	; 0x0
300014dc:	159f0074 	ldrne	r0, [pc, #116]	; 30001558 <do_bootm_subcommand+0x1d4>
300014e0:	0a000014 	beq	30001538 <do_bootm_subcommand+0x1b4>
300014e4:	ea000008 	b	3000150c <do_bootm_subcommand+0x188>
300014e8:	e1a00004 	mov	r0, r4
300014ec:	e1a0100a 	mov	r1, sl
300014f0:	e1a02007 	mov	r2, r7
300014f4:	e1a03006 	mov	r3, r6
300014f8:	e1a0e00f 	mov	lr, pc
300014fc:	e1a0f005 	mov	pc, r5
30001500:	e2504000 	subs	r4, r0, #0	; 0x0
30001504:	0a00000b 	beq	30001538 <do_bootm_subcommand+0x1b4>
30001508:	e59f004c 	ldr	r0, [pc, #76]	; 3000155c <do_bootm_subcommand+0x1d8>
3000150c:	eb00137c 	bl	30006304 <printf>
30001510:	ea000008 	b	30001538 <do_bootm_subcommand+0x1b4>
30001514:	ebfffbf0 	bl	300004dc <disable_interrupts>
30001518:	ebfffd3f 	bl	30000a1c <__arch_preboot_os>
3000151c:	e1a00004 	mov	r0, r4
30001520:	e1a0100a 	mov	r1, sl
30001524:	e1a02007 	mov	r2, r7
30001528:	e1a03006 	mov	r3, r6
3000152c:	e1a0e00f 	mov	lr, pc
30001530:	e1a0f005 	mov	pc, r5
30001534:	e3a04000 	mov	r4, #0	; 0x0
30001538:	e1a00004 	mov	r0, r4
3000153c:	e28dd018 	add	sp, sp, #24	; 0x18
30001540:	e8bd84f0 	pop	{r4, r5, r6, r7, sl, pc}
30001544:	3001b2ec 	.word	0x3001b2ec
30001548:	3001c284 	.word	0x3001c284
3000154c:	300177eb 	.word	0x300177eb
30001550:	30015fb0 	.word	0x30015fb0
30001554:	30017815 	.word	0x30017815
30001558:	30017837 	.word	0x30017837
3000155c:	30017855 	.word	0x30017855

30001560 <do_bootm>:
30001560:	e92d4ef0 	push	{r4, r5, r6, r7, r9, sl, fp, lr}
30001564:	e3520001 	cmp	r2, #1	; 0x1
30001568:	e24dd038 	sub	sp, sp, #56	; 0x38
3000156c:	e1a07002 	mov	r7, r2
30001570:	e3a02000 	mov	r2, #0	; 0x0
30001574:	e58d2034 	str	r2, [sp, #52]
30001578:	e1a0a000 	mov	sl, r0
3000157c:	e1a09001 	mov	r9, r1
30001580:	e1a06003 	mov	r6, r3
30001584:	da000010 	ble	300015cc <do_bootm+0x6c>
30001588:	e5930004 	ldr	r0, [r3, #4]
3000158c:	e28d1030 	add	r1, sp, #48	; 0x30
30001590:	e2822010 	add	r2, r2, #16	; 0x10
30001594:	eb0030ea 	bl	3000d944 <simple_strtoul>
30001598:	e59d3030 	ldr	r3, [sp, #48]
3000159c:	e5d33000 	ldrb	r3, [r3]
300015a0:	e3530000 	cmp	r3, #0	; 0x0
300015a4:	1353003a 	cmpne	r3, #58	; 0x3a
300015a8:	0a000007 	beq	300015cc <do_bootm+0x6c>
300015ac:	e3530023 	cmp	r3, #35	; 0x23
300015b0:	0a000005 	beq	300015cc <do_bootm+0x6c>
300015b4:	e1a0000a 	mov	r0, sl
300015b8:	e1a01009 	mov	r1, r9
300015bc:	e1a02007 	mov	r2, r7
300015c0:	e1a03006 	mov	r3, r6
300015c4:	ebffff6e 	bl	30001384 <do_bootm_subcommand>
300015c8:	ea00007d 	b	300017c4 <do_bootm+0x264>
300015cc:	e1a0000a 	mov	r0, sl
300015d0:	e1a01009 	mov	r1, r9
300015d4:	e1a02007 	mov	r2, r7
300015d8:	e1a03006 	mov	r3, r6
300015dc:	ebfffe2a 	bl	30000e8c <bootm_start>
300015e0:	e3500000 	cmp	r0, #0	; 0x0
300015e4:	1a000075 	bne	300017c0 <do_bootm+0x260>
300015e8:	ebfffbbb 	bl	300004dc <disable_interrupts>
300015ec:	e59f41d8 	ldr	r4, [pc, #472]	; 300017cc <do_bootm+0x26c>
300015f0:	e2843058 	add	r3, r4, #88	; 0x58
300015f4:	e1a0b000 	mov	fp, r0
300015f8:	e8930003 	ldm	r3, {r0, r1}
300015fc:	e1a0200d 	mov	r2, sp
30001600:	e8820003 	stm	r2, {r0, r1}
30001604:	e28dc034 	add	ip, sp, #52	; 0x34
30001608:	e2843048 	add	r3, r4, #72	; 0x48
3000160c:	e893000f 	ldm	r3, {r0, r1, r2, r3}
30001610:	e58dc008 	str	ip, [sp, #8]
30001614:	e3a0c001 	mov	ip, #1	; 0x1
30001618:	e58dc00c 	str	ip, [sp, #12]
3000161c:	ebffff00 	bl	30001224 <bootm_load_os>
30001620:	e3500000 	cmp	r0, #0	; 0x0
30001624:	aa00001c 	bge	3000169c <do_bootm+0x13c>
30001628:	e3700001 	cmn	r0, #1	; 0x1
3000162c:	0a00000e 	beq	3000166c <do_bootm+0x10c>
30001630:	e3700002 	cmn	r0, #2	; 0x2
30001634:	1a000012 	bne	30001684 <do_bootm+0x124>
30001638:	e5943044 	ldr	r3, [r4, #68]
3000163c:	e3530000 	cmp	r3, #0	; 0x0
30001640:	0a000005 	beq	3000165c <do_bootm+0xfc>
30001644:	e5d43022 	ldrb	r3, [r4, #34]
30001648:	e3530004 	cmp	r3, #4	; 0x4
3000164c:	1a000012 	bne	3000169c <do_bootm+0x13c>
30001650:	e59f0178 	ldr	r0, [pc, #376]	; 300017d0 <do_bootm+0x270>
30001654:	eb001318 	bl	300062bc <puts>
30001658:	ea00000f 	b	3000169c <do_bootm+0x13c>
3000165c:	e59f0170 	ldr	r0, [pc, #368]	; 300017d4 <do_bootm+0x274>
30001660:	eb001315 	bl	300062bc <puts>
30001664:	e3e00070 	mvn	r0, #112	; 0x70
30001668:	eb0022cd 	bl	3000a1a4 <__show_boot_progress>
3000166c:	e1a0000a 	mov	r0, sl
30001670:	e1a01009 	mov	r1, r9
30001674:	e1a02007 	mov	r2, r7
30001678:	e1a03006 	mov	r3, r6
3000167c:	eb003f37 	bl	30011360 <do_reset>
30001680:	ea000005 	b	3000169c <do_bootm+0x13c>
30001684:	e3700003 	cmn	r0, #3	; 0x3
30001688:	1a000003 	bne	3000169c <do_bootm+0x13c>
3000168c:	e35b0000 	cmp	fp, #0	; 0x0
30001690:	1bfffb90 	blne	300004d8 <enable_interrupts>
30001694:	e3e00006 	mvn	r0, #6	; 0x6
30001698:	ea000038 	b	30001780 <do_bootm+0x220>
3000169c:	e59f5128 	ldr	r5, [pc, #296]	; 300017cc <do_bootm+0x26c>
300016a0:	e59d2034 	ldr	r2, [sp, #52]
300016a4:	e5951058 	ldr	r1, [r5, #88]
300016a8:	e285008c 	add	r0, r5, #140	; 0x8c
300016ac:	e0612002 	rsb	r2, r1, r2
300016b0:	eb002e81 	bl	3000d0bc <lmb_reserve>
300016b4:	e5d5305d 	ldrb	r3, [r5, #93]
300016b8:	e3530001 	cmp	r3, #1	; 0x1
300016bc:	1a00001e 	bne	3000173c <do_bootm+0x1dc>
300016c0:	e35b0000 	cmp	fp, #0	; 0x0
300016c4:	1bfffb83 	blne	300004d8 <enable_interrupts>
300016c8:	e59f0108 	ldr	r0, [pc, #264]	; 300017d8 <do_bootm+0x278>
300016cc:	eb000d27 	bl	30004b70 <getenv>
300016d0:	e3500000 	cmp	r0, #0	; 0x0
300016d4:	0a00000e 	beq	30001714 <do_bootm+0x1b4>
300016d8:	e59f10fc 	ldr	r1, [pc, #252]	; 300017dc <do_bootm+0x27c>
300016dc:	eb002f33 	bl	3000d3b0 <strcmp>
300016e0:	e2505000 	subs	r5, r0, #0	; 0x0
300016e4:	1a00000a 	bne	30001714 <do_bootm+0x1b4>
300016e8:	e59f30dc 	ldr	r3, [pc, #220]	; 300017cc <do_bootm+0x26c>
300016ec:	e28d4010 	add	r4, sp, #16	; 0x10
300016f0:	e5932054 	ldr	r2, [r3, #84]
300016f4:	e59f10e4 	ldr	r1, [pc, #228]	; 300017e0 <do_bootm+0x280>
300016f8:	e1a00004 	mov	r0, r4
300016fc:	eb0033af 	bl	3000e5c0 <sprintf>
30001700:	e1a01004 	mov	r1, r4
30001704:	e59f00d8 	ldr	r0, [pc, #216]	; 300017e4 <do_bootm+0x284>
30001708:	eb000eac 	bl	300051c0 <setenv>
3000170c:	e1a00005 	mov	r0, r5
30001710:	ea00002b 	b	300017c4 <do_bootm+0x264>
30001714:	e59f30b0 	ldr	r3, [pc, #176]	; 300017cc <do_bootm+0x26c>
30001718:	e5930060 	ldr	r0, [r3, #96]
3000171c:	ebfffcb2 	bl	300009ec <__fswab32>
30001720:	e2861004 	add	r1, r6, #4	; 0x4
30001724:	e1a03000 	mov	r3, r0
30001728:	e2470001 	sub	r0, r7, #1	; 0x1
3000172c:	e1a0e00f 	mov	lr, pc
30001730:	e1a0f003 	mov	pc, r3
30001734:	e3a00000 	mov	r0, #0	; 0x0
30001738:	ea000021 	b	300017c4 <do_bootm+0x264>
3000173c:	e3a00008 	mov	r0, #8	; 0x8
30001740:	eb002297 	bl	3000a1a4 <__show_boot_progress>
30001744:	e5d5205e 	ldrb	r2, [r5, #94]
30001748:	e59f3098 	ldr	r3, [pc, #152]	; 300017e8 <do_bootm+0x288>
3000174c:	e7934102 	ldr	r4, [r3, r2, lsl #2]
30001750:	e3540000 	cmp	r4, #0	; 0x0
30001754:	1a00000b 	bne	30001788 <do_bootm+0x228>
30001758:	e35b0000 	cmp	fp, #0	; 0x0
3000175c:	1bfffb5d 	blne	300004d8 <enable_interrupts>
30001760:	e59f4064 	ldr	r4, [pc, #100]	; 300017cc <do_bootm+0x26c>
30001764:	e5d4005e 	ldrb	r0, [r4, #94]
30001768:	eb0020b3 	bl	30009a3c <genimg_get_os_name>
3000176c:	e5d4205e 	ldrb	r2, [r4, #94]
30001770:	e1a01000 	mov	r1, r0
30001774:	e59f0070 	ldr	r0, [pc, #112]	; 300017ec <do_bootm+0x28c>
30001778:	eb0012e1 	bl	30006304 <printf>
3000177c:	e3e00007 	mvn	r0, #7	; 0x7
30001780:	eb002287 	bl	3000a1a4 <__show_boot_progress>
30001784:	ea00000d 	b	300017c0 <do_bootm+0x260>
30001788:	ebfffca3 	bl	30000a1c <__arch_preboot_os>
3000178c:	e1a03005 	mov	r3, r5
30001790:	e1a01007 	mov	r1, r7
30001794:	e1a02006 	mov	r2, r6
30001798:	e3a00000 	mov	r0, #0	; 0x0
3000179c:	e1a0e00f 	mov	lr, pc
300017a0:	e1a0f004 	mov	pc, r4
300017a4:	e3e00008 	mvn	r0, #8	; 0x8
300017a8:	eb00227d 	bl	3000a1a4 <__show_boot_progress>
300017ac:	e1a0000a 	mov	r0, sl
300017b0:	e1a01009 	mov	r1, r9
300017b4:	e1a02007 	mov	r2, r7
300017b8:	e1a03006 	mov	r3, r6
300017bc:	eb003ee7 	bl	30011360 <do_reset>
300017c0:	e3a00001 	mov	r0, #1	; 0x1
300017c4:	e28dd038 	add	sp, sp, #56	; 0x38
300017c8:	e8bd8ef0 	pop	{r4, r5, r6, r7, r9, sl, fp, pc}
300017cc:	3001c284 	.word	0x3001c284
300017d0:	30017874 	.word	0x30017874
300017d4:	300178ae 	.word	0x300178ae
300017d8:	300178f5 	.word	0x300178f5
300017dc:	300178ff 	.word	0x300178ff
300017e0:	30017902 	.word	0x30017902
300017e4:	30017906 	.word	0x30017906
300017e8:	30015fb0 	.word	0x30015fb0
300017ec:	3001790f 	.word	0x3001790f

300017f0 <on_off>:
300017f0:	e92d4010 	push	{r4, lr}
300017f4:	e59f1028 	ldr	r1, [pc, #40]	; 30001824 <on_off+0x34>
300017f8:	e1a04000 	mov	r4, r0
300017fc:	eb002eeb 	bl	3000d3b0 <strcmp>
30001800:	e3500000 	cmp	r0, #0	; 0x0
30001804:	02800001 	addeq	r0, r0, #1	; 0x1
30001808:	08bd8010 	popeq	{r4, pc}
3000180c:	e1a00004 	mov	r0, r4
30001810:	e59f1010 	ldr	r1, [pc, #16]	; 30001828 <on_off+0x38>
30001814:	eb002ee5 	bl	3000d3b0 <strcmp>
30001818:	e3500000 	cmp	r0, #0	; 0x0
3000181c:	13e00000 	mvnne	r0, #0	; 0x0
30001820:	e8bd8010 	pop	{r4, pc}
30001824:	30017ef5 	.word	0x30017ef5
30001828:	30017184 	.word	0x30017184

3000182c <do_dcache>:
3000182c:	e3520001 	cmp	r2, #1	; 0x1
30001830:	e92d4010 	push	{r4, lr}
30001834:	0a00000b 	beq	30001868 <do_dcache+0x3c>
30001838:	e3520002 	cmp	r2, #2	; 0x2
3000183c:	1a000012 	bne	3000188c <do_dcache+0x60>
30001840:	e5930004 	ldr	r0, [r3, #4]
30001844:	ebffffe9 	bl	300017f0 <on_off>
30001848:	e3500000 	cmp	r0, #0	; 0x0
3000184c:	0a000002 	beq	3000185c <do_dcache+0x30>
30001850:	e3500001 	cmp	r0, #1	; 0x1
30001854:	1a000003 	bne	30001868 <do_dcache+0x3c>
30001858:	ea000001 	b	30001864 <do_dcache+0x38>
3000185c:	eb003eb8 	bl	30011344 <dcache_disable>
30001860:	ea000000 	b	30001868 <do_dcache+0x3c>
30001864:	eb003eb4 	bl	3001133c <dcache_enable>
30001868:	eb003eb7 	bl	3001134c <dcache_status>
3000186c:	e59f3024 	ldr	r3, [pc, #36]	; 30001898 <do_dcache+0x6c>
30001870:	e3500000 	cmp	r0, #0	; 0x0
30001874:	e59f1020 	ldr	r1, [pc, #32]	; 3000189c <do_dcache+0x70>
30001878:	e59f0020 	ldr	r0, [pc, #32]	; 300018a0 <do_dcache+0x74>
3000187c:	01a01003 	moveq	r1, r3
30001880:	eb00129f 	bl	30006304 <printf>
30001884:	e3a00000 	mov	r0, #0	; 0x0
30001888:	e8bd8010 	pop	{r4, pc}
3000188c:	eb000ff1 	bl	30005858 <cmd_usage>
30001890:	e3a00001 	mov	r0, #1	; 0x1
30001894:	e8bd8010 	pop	{r4, pc}
30001898:	30017d34 	.word	0x30017d34
3000189c:	30019ff6 	.word	0x30019ff6
300018a0:	30017d38 	.word	0x30017d38

300018a4 <do_icache>:
300018a4:	e3520001 	cmp	r2, #1	; 0x1
300018a8:	e92d4010 	push	{r4, lr}
300018ac:	0a00000b 	beq	300018e0 <do_icache+0x3c>
300018b0:	e3520002 	cmp	r2, #2	; 0x2
300018b4:	1a000012 	bne	30001904 <do_icache+0x60>
300018b8:	e5930004 	ldr	r0, [r3, #4]
300018bc:	ebffffcb 	bl	300017f0 <on_off>
300018c0:	e3500000 	cmp	r0, #0	; 0x0
300018c4:	0a000002 	beq	300018d4 <do_icache+0x30>
300018c8:	e3500001 	cmp	r0, #1	; 0x1
300018cc:	1a000003 	bne	300018e0 <do_icache+0x3c>
300018d0:	ea000001 	b	300018dc <do_icache+0x38>
300018d4:	eb003e91 	bl	30011320 <icache_disable>
300018d8:	ea000000 	b	300018e0 <do_icache+0x3c>
300018dc:	eb003e8d 	bl	30011318 <icache_enable>
300018e0:	eb003e90 	bl	30011328 <icache_status>
300018e4:	e59f3024 	ldr	r3, [pc, #36]	; 30001910 <do_icache+0x6c>
300018e8:	e3500000 	cmp	r0, #0	; 0x0
300018ec:	e59f1020 	ldr	r1, [pc, #32]	; 30001914 <do_icache+0x70>
300018f0:	e59f0020 	ldr	r0, [pc, #32]	; 30001918 <do_icache+0x74>
300018f4:	01a01003 	moveq	r1, r3
300018f8:	eb001281 	bl	30006304 <printf>
300018fc:	e3a00000 	mov	r0, #0	; 0x0
30001900:	e8bd8010 	pop	{r4, pc}
30001904:	eb000fd3 	bl	30005858 <cmd_usage>
30001908:	e3a00001 	mov	r0, #1	; 0x1
3000190c:	e8bd8010 	pop	{r4, pc}
30001910:	30017d34 	.word	0x30017d34
30001914:	30019ff6 	.word	0x30019ff6
30001918:	30017d59 	.word	0x30017d59

3000191c <do_coninfo>:
3000191c:	e92d4073 	push	{r0, r1, r4, r5, r6, lr}
30001920:	eb0026fb 	bl	3000b514 <stdio_get_list>
30001924:	e1a06000 	mov	r6, r0
30001928:	e59f00bc 	ldr	r0, [pc, #188]	; 300019ec <do_coninfo+0xd0>
3000192c:	eb001262 	bl	300062bc <puts>
30001930:	e5965000 	ldr	r5, [r6]
30001934:	ea000025 	b	300019d0 <do_coninfo+0xb4>
30001938:	e5153034 	ldr	r3, [r5, #-52]
3000193c:	e3130001 	tst	r3, #1	; 0x1
30001940:	13a0e049 	movne	lr, #73	; 0x49
30001944:	03a0e02e 	moveq	lr, #46	; 0x2e
30001948:	e3130002 	tst	r3, #2	; 0x2
3000194c:	13a0c04f 	movne	ip, #79	; 0x4f
30001950:	03a0c02e 	moveq	ip, #46	; 0x2e
30001954:	e3530000 	cmp	r3, #0	; 0x0
30001958:	e1a02003 	mov	r2, r3
3000195c:	b3a03053 	movlt	r3, #83	; 0x53
30001960:	a3a0302e 	movge	r3, #46	; 0x2e
30001964:	e58de000 	str	lr, [sp]
30001968:	e58dc004 	str	ip, [sp, #4]
3000196c:	eb001264 	bl	30006304 <printf>
30001970:	e59f3078 	ldr	r3, [pc, #120]	; 300019f0 <do_coninfo+0xd4>
30001974:	e5933000 	ldr	r3, [r3]
30001978:	e1530004 	cmp	r3, r4
3000197c:	059f3070 	ldreq	r3, [pc, #112]	; 300019f4 <do_coninfo+0xd8>
30001980:	059f0070 	ldreq	r0, [pc, #112]	; 300019f8 <do_coninfo+0xdc>
30001984:	05931000 	ldreq	r1, [r3]
30001988:	0b00125d 	bleq	30006304 <printf>
3000198c:	e59f305c 	ldr	r3, [pc, #92]	; 300019f0 <do_coninfo+0xd4>
30001990:	e5933004 	ldr	r3, [r3, #4]
30001994:	e1530004 	cmp	r3, r4
30001998:	059f3054 	ldreq	r3, [pc, #84]	; 300019f4 <do_coninfo+0xd8>
3000199c:	059f0054 	ldreq	r0, [pc, #84]	; 300019f8 <do_coninfo+0xdc>
300019a0:	05931004 	ldreq	r1, [r3, #4]
300019a4:	0b001256 	bleq	30006304 <printf>
300019a8:	e59f3040 	ldr	r3, [pc, #64]	; 300019f0 <do_coninfo+0xd4>
300019ac:	e5933008 	ldr	r3, [r3, #8]
300019b0:	e1530004 	cmp	r3, r4
300019b4:	059f3038 	ldreq	r3, [pc, #56]	; 300019f4 <do_coninfo+0xd8>
300019b8:	059f0038 	ldreq	r0, [pc, #56]	; 300019f8 <do_coninfo+0xdc>
300019bc:	05931008 	ldreq	r1, [r3, #8]
300019c0:	0b00124f 	bleq	30006304 <printf>
300019c4:	e3a0000a 	mov	r0, #10	; 0xa
300019c8:	eb0012d4 	bl	30006520 <putc>
300019cc:	e5955000 	ldr	r5, [r5]
300019d0:	e2454034 	sub	r4, r5, #52	; 0x34
300019d4:	e1550006 	cmp	r5, r6
300019d8:	e59f001c 	ldr	r0, [pc, #28]	; 300019fc <do_coninfo+0xe0>
300019dc:	e2841008 	add	r1, r4, #8	; 0x8
300019e0:	1affffd4 	bne	30001938 <do_coninfo+0x1c>
300019e4:	e3a00000 	mov	r0, #0	; 0x0
300019e8:	e8bd807c 	pop	{r2, r3, r4, r5, r6, pc}
300019ec:	30017e0d 	.word	0x30017e0d
300019f0:	3001dc64 	.word	0x3001dc64
300019f4:	3001bc24 	.word	0x3001bc24
300019f8:	30019b72 	.word	0x30019b72
300019fc:	30017e29 	.word	0x30017e29

30001a00 <cnvrt2>:
30001a00:	e5d03000 	ldrb	r3, [r0]
30001a04:	e2432030 	sub	r2, r3, #48	; 0x30
30001a08:	e20230ff 	and	r3, r2, #255	; 0xff
30001a0c:	e3530009 	cmp	r3, #9	; 0x9
30001a10:	8a000009 	bhi	30001a3c <cnvrt2+0x3c>
30001a14:	e5d03001 	ldrb	r3, [r0, #1]
30001a18:	e2430030 	sub	r0, r3, #48	; 0x30
30001a1c:	e20030ff 	and	r3, r0, #255	; 0xff
30001a20:	e3530009 	cmp	r3, #9	; 0x9
30001a24:	8a000004 	bhi	30001a3c <cnvrt2+0x3c>
30001a28:	e3a0300a 	mov	r3, #10	; 0xa
30001a2c:	e0230392 	mla	r3, r2, r3, r0
30001a30:	e3a00000 	mov	r0, #0	; 0x0
30001a34:	e5813000 	str	r3, [r1]
30001a38:	e1a0f00e 	mov	pc, lr
30001a3c:	e3e00000 	mvn	r0, #0	; 0x0
30001a40:	e1a0f00e 	mov	pc, lr

30001a44 <mk_date>:
30001a44:	e92d40f0 	push	{r4, r5, r6, r7, lr}
30001a48:	e1a07001 	mov	r7, r1
30001a4c:	e24dd014 	sub	sp, sp, #20	; 0x14
30001a50:	e3a0102e 	mov	r1, #46	; 0x2e
30001a54:	e1a06000 	mov	r6, r0
30001a58:	eb002e76 	bl	3000d438 <strchr>
30001a5c:	e1a04000 	mov	r4, r0
30001a60:	e1a00006 	mov	r0, r6
30001a64:	eb002e7e 	bl	3000d464 <strlen>
30001a68:	e3540000 	cmp	r4, #0	; 0x0
30001a6c:	05874000 	streq	r4, [r7]
30001a70:	0a000010 	beq	30001ab8 <mk_date+0x74>
30001a74:	e3a03000 	mov	r3, #0	; 0x0
30001a78:	e4c43001 	strb	r3, [r4], #1
30001a7c:	e0863000 	add	r3, r6, r0
30001a80:	e0643003 	rsb	r3, r4, r3
30001a84:	e3530002 	cmp	r3, #2	; 0x2
30001a88:	1a00005e 	bne	30001c08 <mk_date+0x1c4>
30001a8c:	e1a00006 	mov	r0, r6
30001a90:	eb002e73 	bl	3000d464 <strlen>
30001a94:	e28d1008 	add	r1, sp, #8	; 0x8
30001a98:	e1a05000 	mov	r5, r0
30001a9c:	e1a00004 	mov	r0, r4
30001aa0:	ebffffd6 	bl	30001a00 <cnvrt2>
30001aa4:	e3500000 	cmp	r0, #0	; 0x0
30001aa8:	059d3008 	ldreq	r3, [sp, #8]
30001aac:	01a00005 	moveq	r0, r5
30001ab0:	05873000 	streq	r3, [r7]
30001ab4:	1a000053 	bne	30001c08 <mk_date+0x1c4>
30001ab8:	e350000c 	cmp	r0, #12	; 0xc
30001abc:	1a00000e 	bne	30001afc <mk_date+0xb8>
30001ac0:	e2860008 	add	r0, r6, #8	; 0x8
30001ac4:	e28d1004 	add	r1, sp, #4	; 0x4
30001ac8:	ebffffcc 	bl	30001a00 <cnvrt2>
30001acc:	e3500000 	cmp	r0, #0	; 0x0
30001ad0:	1a00004c 	bne	30001c08 <mk_date+0x1c4>
30001ad4:	e286000a 	add	r0, r6, #10	; 0xa
30001ad8:	e28d1008 	add	r1, sp, #8	; 0x8
30001adc:	ebffffc7 	bl	30001a00 <cnvrt2>
30001ae0:	e3500000 	cmp	r0, #0	; 0x0
30001ae4:	1a000047 	bne	30001c08 <mk_date+0x1c4>
30001ae8:	e59d1008 	ldr	r1, [sp, #8]
30001aec:	e59d3004 	ldr	r3, [sp, #4]
30001af0:	e3a02064 	mov	r2, #100	; 0x64
30001af4:	e0231392 	mla	r3, r2, r3, r1
30001af8:	ea00000d 	b	30001b34 <mk_date+0xf0>
30001afc:	e350000a 	cmp	r0, #10	; 0xa
30001b00:	1a00000d 	bne	30001b3c <mk_date+0xf8>
30001b04:	e2860008 	add	r0, r6, #8	; 0x8
30001b08:	e28d1004 	add	r1, sp, #4	; 0x4
30001b0c:	e5975014 	ldr	r5, [r7, #20]
30001b10:	ebffffba 	bl	30001a00 <cnvrt2>
30001b14:	e3500000 	cmp	r0, #0	; 0x0
30001b18:	1a00003a 	bne	30001c08 <mk_date+0x1c4>
30001b1c:	e3a04064 	mov	r4, #100	; 0x64
30001b20:	e1a00005 	mov	r0, r5
30001b24:	e1a01004 	mov	r1, r4
30001b28:	eb00506c 	bl	30015ce0 <__aeabi_idiv>
30001b2c:	e59d3004 	ldr	r3, [sp, #4]
30001b30:	e0233094 	mla	r3, r4, r0, r3
30001b34:	e5873014 	str	r3, [r7, #20]
30001b38:	ea000005 	b	30001b54 <mk_date+0x110>
30001b3c:	e350000c 	cmp	r0, #12	; 0xc
30001b40:	8a000030 	bhi	30001c08 <mk_date+0x1c4>
30001b44:	e3a03001 	mov	r3, #1	; 0x1
30001b48:	e1a03013 	lsl	r3, r3, r0
30001b4c:	e3130c15 	tst	r3, #5376	; 0x1500
30001b50:	0a00002c 	beq	30001c08 <mk_date+0x1c4>
30001b54:	e28d400c 	add	r4, sp, #12	; 0xc
30001b58:	e1a00006 	mov	r0, r6
30001b5c:	e1a01004 	mov	r1, r4
30001b60:	ebffffa6 	bl	30001a00 <cnvrt2>
30001b64:	e3500000 	cmp	r0, #0	; 0x0
30001b68:	1a000026 	bne	30001c08 <mk_date+0x1c4>
30001b6c:	e59d300c 	ldr	r3, [sp, #12]
30001b70:	e353000c 	cmp	r3, #12	; 0xc
30001b74:	ca000023 	bgt	30001c08 <mk_date+0x1c4>
30001b78:	e5873010 	str	r3, [r7, #16]
30001b7c:	e2860002 	add	r0, r6, #2	; 0x2
30001b80:	e1a01004 	mov	r1, r4
30001b84:	ebffff9d 	bl	30001a00 <cnvrt2>
30001b88:	e3500000 	cmp	r0, #0	; 0x0
30001b8c:	1a00001d 	bne	30001c08 <mk_date+0x1c4>
30001b90:	e5973010 	ldr	r3, [r7, #16]
30001b94:	e59d200c 	ldr	r2, [sp, #12]
30001b98:	e3530002 	cmp	r3, #2	; 0x2
30001b9c:	03a0301d 	moveq	r3, #29	; 0x1d
30001ba0:	13a0301f 	movne	r3, #31	; 0x1f
30001ba4:	e1520003 	cmp	r2, r3
30001ba8:	ca000016 	bgt	30001c08 <mk_date+0x1c4>
30001bac:	e587200c 	str	r2, [r7, #12]
30001bb0:	e2860004 	add	r0, r6, #4	; 0x4
30001bb4:	e1a01004 	mov	r1, r4
30001bb8:	ebffff90 	bl	30001a00 <cnvrt2>
30001bbc:	e3500000 	cmp	r0, #0	; 0x0
30001bc0:	1a000010 	bne	30001c08 <mk_date+0x1c4>
30001bc4:	e59d300c 	ldr	r3, [sp, #12]
30001bc8:	e3530017 	cmp	r3, #23	; 0x17
30001bcc:	ca00000d 	bgt	30001c08 <mk_date+0x1c4>
30001bd0:	e1a01004 	mov	r1, r4
30001bd4:	e5873008 	str	r3, [r7, #8]
30001bd8:	e2860006 	add	r0, r6, #6	; 0x6
30001bdc:	ebffff87 	bl	30001a00 <cnvrt2>
30001be0:	e2504000 	subs	r4, r0, #0	; 0x0
30001be4:	1a000007 	bne	30001c08 <mk_date+0x1c4>
30001be8:	e59d300c 	ldr	r3, [sp, #12]
30001bec:	e353003b 	cmp	r3, #59	; 0x3b
30001bf0:	ca000004 	bgt	30001c08 <mk_date+0x1c4>
30001bf4:	e1a00007 	mov	r0, r7
30001bf8:	e5873004 	str	r3, [r7, #4]
30001bfc:	eb004e6f 	bl	300155c0 <GregorianDay>
30001c00:	e1a00004 	mov	r0, r4
30001c04:	ea000000 	b	30001c0c <mk_date+0x1c8>
30001c08:	e3e00000 	mvn	r0, #0	; 0x0
30001c0c:	e28dd014 	add	sp, sp, #20	; 0x14
30001c10:	e8bd80f0 	pop	{r4, r5, r6, r7, pc}

30001c14 <do_date>:
30001c14:	e92d4070 	push	{r4, r5, r6, lr}
30001c18:	e3520001 	cmp	r2, #1	; 0x1
30001c1c:	e24dd038 	sub	sp, sp, #56	; 0x38
30001c20:	e1a06003 	mov	r6, r3
30001c24:	0a00001c 	beq	30001c9c <do_date+0x88>
30001c28:	e3520002 	cmp	r2, #2	; 0x2
30001c2c:	1a000034 	bne	30001d04 <do_date+0xf0>
30001c30:	e5930004 	ldr	r0, [r3, #4]
30001c34:	e59f10dc 	ldr	r1, [pc, #220]	; 30001d18 <do_date+0x104>
30001c38:	eb002ddc 	bl	3000d3b0 <strcmp>
30001c3c:	e3500000 	cmp	r0, #0	; 0x0
30001c40:	1a000003 	bne	30001c54 <do_date+0x40>
30001c44:	e59f00d0 	ldr	r0, [pc, #208]	; 30001d1c <do_date+0x108>
30001c48:	eb00119b 	bl	300062bc <puts>
30001c4c:	eb004f88 	bl	30015a74 <rtc_reset>
30001c50:	ea000011 	b	30001c9c <do_date+0x88>
30001c54:	e28d4014 	add	r4, sp, #20	; 0x14
30001c58:	e1a00004 	mov	r0, r4
30001c5c:	eb004f1b 	bl	300158d0 <rtc_get>
30001c60:	e2505000 	subs	r5, r0, #0	; 0x0
30001c64:	159f00b4 	ldrne	r0, [pc, #180]	; 30001d20 <do_date+0x10c>
30001c68:	1a00000a 	bne	30001c98 <do_date+0x84>
30001c6c:	e5960004 	ldr	r0, [r6, #4]
30001c70:	e1a01004 	mov	r1, r4
30001c74:	ebffff72 	bl	30001a44 <mk_date>
30001c78:	e3500000 	cmp	r0, #0	; 0x0
30001c7c:	159f00a0 	ldrne	r0, [pc, #160]	; 30001d24 <do_date+0x110>
30001c80:	1a00000a 	bne	30001cb0 <do_date+0x9c>
30001c84:	e1a00004 	mov	r0, r4
30001c88:	eb004f51 	bl	300159d4 <rtc_set>
30001c8c:	e3500000 	cmp	r0, #0	; 0x0
30001c90:	159f0090 	ldrne	r0, [pc, #144]	; 30001d28 <do_date+0x114>
30001c94:	0a000000 	beq	30001c9c <do_date+0x88>
30001c98:	eb001187 	bl	300062bc <puts>
30001c9c:	e28d0014 	add	r0, sp, #20	; 0x14
30001ca0:	eb004f0a 	bl	300158d0 <rtc_get>
30001ca4:	e2505000 	subs	r5, r0, #0	; 0x0
30001ca8:	0a000002 	beq	30001cb8 <do_date+0xa4>
30001cac:	e59f006c 	ldr	r0, [pc, #108]	; 30001d20 <do_date+0x10c>
30001cb0:	eb001181 	bl	300062bc <puts>
30001cb4:	ea000014 	b	30001d0c <do_date+0xf8>
30001cb8:	e59d002c 	ldr	r0, [sp, #44]
30001cbc:	e3500006 	cmp	r0, #6	; 0x6
30001cc0:	959f3064 	ldrls	r3, [pc, #100]	; 30001d2c <do_date+0x118>
30001cc4:	859fc064 	ldrhi	ip, [pc, #100]	; 30001d30 <do_date+0x11c>
30001cc8:	9793c100 	ldrls	ip, [r3, r0, lsl #2]
30001ccc:	e58dc000 	str	ip, [sp]
30001cd0:	e59dc01c 	ldr	ip, [sp, #28]
30001cd4:	e58dc004 	str	ip, [sp, #4]
30001cd8:	e59dc018 	ldr	ip, [sp, #24]
30001cdc:	e59de020 	ldr	lr, [sp, #32]
30001ce0:	e58dc008 	str	ip, [sp, #8]
30001ce4:	e59dc014 	ldr	ip, [sp, #20]
30001ce8:	e59d1028 	ldr	r1, [sp, #40]
30001cec:	e59d2024 	ldr	r2, [sp, #36]
30001cf0:	e1a0300e 	mov	r3, lr
30001cf4:	e59f0038 	ldr	r0, [pc, #56]	; 30001d34 <do_date+0x120>
30001cf8:	e58dc00c 	str	ip, [sp, #12]
30001cfc:	eb001180 	bl	30006304 <printf>
30001d00:	ea000001 	b	30001d0c <do_date+0xf8>
30001d04:	eb000ed3 	bl	30005858 <cmd_usage>
30001d08:	e3a05001 	mov	r5, #1	; 0x1
30001d0c:	e1a00005 	mov	r0, r5
30001d10:	e28dd038 	add	sp, sp, #56	; 0x38
30001d14:	e8bd8070 	pop	{r4, r5, r6, pc}
30001d18:	30017491 	.word	0x30017491
30001d1c:	30017e69 	.word	0x30017e69
30001d20:	30017e9f 	.word	0x30017e9f
30001d24:	30017e77 	.word	0x30017e77
30001d28:	30017e8b 	.word	0x30017e8b
30001d2c:	3001b37c 	.word	0x3001b37c
30001d30:	30017eb3 	.word	0x30017eb3
30001d34:	30017ebc 	.word	0x30017ebc

30001d38 <load_elf_image>:
30001d38:	e92d41f0 	push	{r4, r5, r6, r7, r8, lr}
30001d3c:	e3a06000 	mov	r6, #0	; 0x0
30001d40:	e1a05000 	mov	r5, r0
30001d44:	e1a07006 	mov	r7, r6
30001d48:	ea00001b 	b	30001dbc <load_elf_image+0x84>
30001d4c:	e5953020 	ldr	r3, [r5, #32]
30001d50:	e0853003 	add	r3, r5, r3
30001d54:	e0834007 	add	r4, r3, r7
30001d58:	e5943008 	ldr	r3, [r4, #8]
30001d5c:	e3130002 	tst	r3, #2	; 0x2
30001d60:	0a000013 	beq	30001db4 <load_elf_image+0x7c>
30001d64:	e594c00c 	ldr	ip, [r4, #12]
30001d68:	e35c0000 	cmp	ip, #0	; 0x0
30001d6c:	0a000010 	beq	30001db4 <load_elf_image+0x7c>
30001d70:	e5941014 	ldr	r1, [r4, #20]
30001d74:	e3510000 	cmp	r1, #0	; 0x0
30001d78:	0a00000d 	beq	30001db4 <load_elf_image+0x7c>
30001d7c:	e5943004 	ldr	r3, [r4, #4]
30001d80:	e3530008 	cmp	r3, #8	; 0x8
30001d84:	e1a02001 	mov	r2, r1
30001d88:	e1a0000c 	mov	r0, ip
30001d8c:	1a000002 	bne	30001d9c <load_elf_image+0x64>
30001d90:	e3a01000 	mov	r1, #0	; 0x0
30001d94:	eb002e33 	bl	3000d668 <memset>
30001d98:	ea000002 	b	30001da8 <load_elf_image+0x70>
30001d9c:	e5941010 	ldr	r1, [r4, #16]
30001da0:	e0851001 	add	r1, r5, r1
30001da4:	eb002e59 	bl	3000d710 <memcpy>
30001da8:	e5941014 	ldr	r1, [r4, #20]
30001dac:	e594000c 	ldr	r0, [r4, #12]
30001db0:	eb003d37 	bl	30011294 <flush_cache>
30001db4:	e2866001 	add	r6, r6, #1	; 0x1
30001db8:	e2877028 	add	r7, r7, #40	; 0x28
30001dbc:	e1d533b0 	ldrh	r3, [r5, #48]
30001dc0:	e1560003 	cmp	r6, r3
30001dc4:	baffffe0 	blt	30001d4c <load_elf_image+0x14>
30001dc8:	e5950018 	ldr	r0, [r5, #24]
30001dcc:	e8bd81f0 	pop	{r4, r5, r6, r7, r8, pc}

30001dd0 <valid_elf_image>:
30001dd0:	e92d4010 	push	{r4, lr}
30001dd4:	e5d03000 	ldrb	r3, [r0]
30001dd8:	e353007f 	cmp	r3, #127	; 0x7f
30001ddc:	1a000008 	bne	30001e04 <valid_elf_image+0x34>
30001de0:	e5d03001 	ldrb	r3, [r0, #1]
30001de4:	e3530045 	cmp	r3, #69	; 0x45
30001de8:	1a000005 	bne	30001e04 <valid_elf_image+0x34>
30001dec:	e5d03002 	ldrb	r3, [r0, #2]
30001df0:	e353004c 	cmp	r3, #76	; 0x4c
30001df4:	1a000002 	bne	30001e04 <valid_elf_image+0x34>
30001df8:	e5d03003 	ldrb	r3, [r0, #3]
30001dfc:	e3530046 	cmp	r3, #70	; 0x46
30001e00:	0a000004 	beq	30001e18 <valid_elf_image+0x48>
30001e04:	e1a01000 	mov	r1, r0
30001e08:	e59f002c 	ldr	r0, [pc, #44]	; 30001e3c <valid_elf_image+0x6c>
30001e0c:	eb00113c 	bl	30006304 <printf>
30001e10:	e3a00000 	mov	r0, #0	; 0x0
30001e14:	e8bd8010 	pop	{r4, pc}
30001e18:	e1d031b0 	ldrh	r3, [r0, #16]
30001e1c:	e3530002 	cmp	r3, #2	; 0x2
30001e20:	03a00001 	moveq	r0, #1	; 0x1
30001e24:	08bd8010 	popeq	{r4, pc}
30001e28:	e1a01000 	mov	r1, r0
30001e2c:	e59f000c 	ldr	r0, [pc, #12]	; 30001e40 <valid_elf_image+0x70>
30001e30:	eb001133 	bl	30006304 <printf>
30001e34:	e3a00000 	mov	r0, #0	; 0x0
30001e38:	e8bd8010 	pop	{r4, pc}
30001e3c:	30017fde 	.word	0x30017fde
30001e40:	30018002 	.word	0x30018002

30001e44 <do_bootvx>:
30001e44:	e92d40f0 	push	{r4, r5, r6, r7, lr}
30001e48:	e3520001 	cmp	r2, #1	; 0x1
30001e4c:	e1a05003 	mov	r5, r3
30001e50:	d59f3224 	ldrle	r3, [pc, #548]	; 3000207c <do_bootvx+0x238>
30001e54:	e24dd084 	sub	sp, sp, #132	; 0x84
30001e58:	e1a04002 	mov	r4, r2
30001e5c:	d5936000 	ldrle	r6, [r3]
30001e60:	da000004 	ble	30001e78 <do_bootvx+0x34>
30001e64:	e5950004 	ldr	r0, [r5, #4]
30001e68:	e3a01000 	mov	r1, #0	; 0x0
30001e6c:	e3a02010 	mov	r2, #16	; 0x10
30001e70:	eb002eb3 	bl	3000d944 <simple_strtoul>
30001e74:	e1a06000 	mov	r6, r0
30001e78:	e3540002 	cmp	r4, #2	; 0x2
30001e7c:	1a00000b 	bne	30001eb0 <do_bootvx+0x6c>
30001e80:	e5950004 	ldr	r0, [r5, #4]
30001e84:	e59f11f4 	ldr	r1, [pc, #500]	; 30002080 <do_bootvx+0x23c>
30001e88:	eb002d48 	bl	3000d3b0 <strcmp>
30001e8c:	e3500000 	cmp	r0, #0	; 0x0
30001e90:	1a000006 	bne	30001eb0 <do_bootvx+0x6c>
30001e94:	e2800003 	add	r0, r0, #3	; 0x3
30001e98:	eb004122 	bl	30012328 <NetLoop>
30001e9c:	e3500000 	cmp	r0, #0	; 0x0
30001ea0:	da000072 	ble	30002070 <do_bootvx+0x22c>
30001ea4:	e59f01d8 	ldr	r0, [pc, #472]	; 30002084 <do_bootvx+0x240>
30001ea8:	e1a01006 	mov	r1, r6
30001eac:	eb001114 	bl	30006304 <printf>
30001eb0:	e59f01d0 	ldr	r0, [pc, #464]	; 30002088 <do_bootvx+0x244>
30001eb4:	eb001100 	bl	300062bc <puts>
30001eb8:	e59f01cc 	ldr	r0, [pc, #460]	; 3000208c <do_bootvx+0x248>
30001ebc:	eb000b2b 	bl	30004b70 <getenv>
30001ec0:	e3500000 	cmp	r0, #0	; 0x0
30001ec4:	03a07c42 	moveq	r7, #16896	; 0x4200
30001ec8:	0a000003 	beq	30001edc <do_bootvx+0x98>
30001ecc:	e3a01000 	mov	r1, #0	; 0x0
30001ed0:	e3a02010 	mov	r2, #16	; 0x10
30001ed4:	eb002e9a 	bl	3000d944 <simple_strtoul>
30001ed8:	e1a07000 	mov	r7, r0
30001edc:	e59f01ac 	ldr	r0, [pc, #428]	; 30002090 <do_bootvx+0x24c>
30001ee0:	eb000b22 	bl	30004b70 <getenv>
30001ee4:	e2504000 	subs	r4, r0, #0	; 0x0
30001ee8:	0a000008 	beq	30001f10 <do_bootvx+0xcc>
30001eec:	eb002d5c 	bl	3000d464 <strlen>
30001ef0:	e1a01004 	mov	r1, r4
30001ef4:	e35000ff 	cmp	r0, #255	; 0xff
30001ef8:	21a02000 	movcs	r2, r0
30001efc:	33a020ff 	movcc	r2, #255	; 0xff
30001f00:	e1a00007 	mov	r0, r7
30001f04:	eb002e01 	bl	3000d710 <memcpy>
30001f08:	e1a00004 	mov	r0, r4
30001f0c:	ea00003c 	b	30002004 <do_bootvx+0x1c0>
30001f10:	e59f117c 	ldr	r1, [pc, #380]	; 30002094 <do_bootvx+0x250>
30001f14:	e1a0000d 	mov	r0, sp
30001f18:	eb0031a8 	bl	3000e5c0 <sprintf>
30001f1c:	e59f0174 	ldr	r0, [pc, #372]	; 30002098 <do_bootvx+0x254>
30001f20:	eb000b12 	bl	30004b70 <getenv>
30001f24:	e2505000 	subs	r5, r0, #0	; 0x0
30001f28:	0a000007 	beq	30001f4c <do_bootvx+0x108>
30001f2c:	e1a0000d 	mov	r0, sp
30001f30:	eb002d4b 	bl	3000d464 <strlen>
30001f34:	e1a03005 	mov	r3, r5
30001f38:	e08d0000 	add	r0, sp, r0
30001f3c:	e59f1158 	ldr	r1, [pc, #344]	; 3000209c <do_bootvx+0x258>
30001f40:	e59f2158 	ldr	r2, [pc, #344]	; 300020a0 <do_bootvx+0x25c>
30001f44:	eb00319d 	bl	3000e5c0 <sprintf>
30001f48:	ea000005 	b	30001f64 <do_bootvx+0x120>
30001f4c:	e1a0000d 	mov	r0, sp
30001f50:	eb002d43 	bl	3000d464 <strlen>
30001f54:	e59f1148 	ldr	r1, [pc, #328]	; 300020a4 <do_bootvx+0x260>
30001f58:	e08d0000 	add	r0, sp, r0
30001f5c:	e59f213c 	ldr	r2, [pc, #316]	; 300020a0 <do_bootvx+0x25c>
30001f60:	eb003196 	bl	3000e5c0 <sprintf>
30001f64:	e59f013c 	ldr	r0, [pc, #316]	; 300020a8 <do_bootvx+0x264>
30001f68:	eb000b00 	bl	30004b70 <getenv>
30001f6c:	e2505000 	subs	r5, r0, #0	; 0x0
30001f70:	0a000005 	beq	30001f8c <do_bootvx+0x148>
30001f74:	e1a0000d 	mov	r0, sp
30001f78:	eb002d39 	bl	3000d464 <strlen>
30001f7c:	e1a02005 	mov	r2, r5
30001f80:	e08d0000 	add	r0, sp, r0
30001f84:	e59f1120 	ldr	r1, [pc, #288]	; 300020ac <do_bootvx+0x268>
30001f88:	eb00318c 	bl	3000e5c0 <sprintf>
30001f8c:	e59f011c 	ldr	r0, [pc, #284]	; 300020b0 <do_bootvx+0x26c>
30001f90:	eb000af6 	bl	30004b70 <getenv>
30001f94:	e2505000 	subs	r5, r0, #0	; 0x0
30001f98:	0a000005 	beq	30001fb4 <do_bootvx+0x170>
30001f9c:	e1a0000d 	mov	r0, sp
30001fa0:	eb002d2f 	bl	3000d464 <strlen>
30001fa4:	e1a02005 	mov	r2, r5
30001fa8:	e08d0000 	add	r0, sp, r0
30001fac:	e59f1100 	ldr	r1, [pc, #256]	; 300020b4 <do_bootvx+0x270>
30001fb0:	eb003182 	bl	3000e5c0 <sprintf>
30001fb4:	e59f00fc 	ldr	r0, [pc, #252]	; 300020b8 <do_bootvx+0x274>
30001fb8:	eb000aec 	bl	30004b70 <getenv>
30001fbc:	e2505000 	subs	r5, r0, #0	; 0x0
30001fc0:	0a000005 	beq	30001fdc <do_bootvx+0x198>
30001fc4:	e1a0000d 	mov	r0, sp
30001fc8:	eb002d25 	bl	3000d464 <strlen>
30001fcc:	e1a02005 	mov	r2, r5
30001fd0:	e08d0000 	add	r0, sp, r0
30001fd4:	e59f10e0 	ldr	r1, [pc, #224]	; 300020bc <do_bootvx+0x278>
30001fd8:	eb003178 	bl	3000e5c0 <sprintf>
30001fdc:	e1a0000d 	mov	r0, sp
30001fe0:	eb002d1f 	bl	3000d464 <strlen>
30001fe4:	e1a0100d 	mov	r1, sp
30001fe8:	e35000ff 	cmp	r0, #255	; 0xff
30001fec:	21a02000 	movcs	r2, r0
30001ff0:	33a020ff 	movcc	r2, #255	; 0xff
30001ff4:	e1a00007 	mov	r0, r7
30001ff8:	eb002dc4 	bl	3000d710 <memcpy>
30001ffc:	e1a0400d 	mov	r4, sp
30002000:	e1a0000d 	mov	r0, sp
30002004:	eb002d16 	bl	3000d464 <strlen>
30002008:	e35000ff 	cmp	r0, #255	; 0xff
3000200c:	21a01000 	movcs	r1, r0
30002010:	33a010ff 	movcc	r1, #255	; 0xff
30002014:	e1a00007 	mov	r0, r7
30002018:	eb003c9d 	bl	30011294 <flush_cache>
3000201c:	e1a00006 	mov	r0, r6
30002020:	ebffff6a 	bl	30001dd0 <valid_elf_image>
30002024:	e3500000 	cmp	r0, #0	; 0x0
30002028:	0a000003 	beq	3000203c <do_bootvx+0x1f8>
3000202c:	e1a00006 	mov	r0, r6
30002030:	ebffff40 	bl	30001d38 <load_elf_image>
30002034:	e1a06000 	mov	r6, r0
30002038:	ea000001 	b	30002044 <do_bootvx+0x200>
3000203c:	e59f007c 	ldr	r0, [pc, #124]	; 300020c0 <do_bootvx+0x27c>
30002040:	eb00109d 	bl	300062bc <puts>
30002044:	e1a02007 	mov	r2, r7
30002048:	e1a01007 	mov	r1, r7
3000204c:	e59f0070 	ldr	r0, [pc, #112]	; 300020c4 <do_bootvx+0x280>
30002050:	eb0010ab 	bl	30006304 <printf>
30002054:	e59f006c 	ldr	r0, [pc, #108]	; 300020c8 <do_bootvx+0x284>
30002058:	e1a01006 	mov	r1, r6
3000205c:	eb0010a8 	bl	30006304 <printf>
30002060:	e1a0e00f 	mov	lr, pc
30002064:	e1a0f006 	mov	pc, r6
30002068:	e59f005c 	ldr	r0, [pc, #92]	; 300020cc <do_bootvx+0x288>
3000206c:	eb001092 	bl	300062bc <puts>
30002070:	e3a00001 	mov	r0, #1	; 0x1
30002074:	e28dd084 	add	sp, sp, #132	; 0x84
30002078:	e8bd80f0 	pop	{r4, r5, r6, r7, pc}
3000207c:	3001b2e8 	.word	0x3001b2e8
30002080:	30018030 	.word	0x30018030
30002084:	30018035 	.word	0x30018035
30002088:	3001806e 	.word	0x3001806e
3000208c:	3001809c 	.word	0x3001809c
30002090:	300175c2 	.word	0x300175c2
30002094:	300180a5 	.word	0x300180a5
30002098:	300180ae 	.word	0x300180ae
3000209c:	300180b7 	.word	0x300180b7
300020a0:	300180be 	.word	0x300180be
300020a4:	300180c2 	.word	0x300180c2
300020a8:	300180cb 	.word	0x300180cb
300020ac:	300180d2 	.word	0x300180d2
300020b0:	300180d8 	.word	0x300180d8
300020b4:	300180e1 	.word	0x300180e1
300020b8:	300180e7 	.word	0x300180e7
300020bc:	300180f0 	.word	0x300180f0
300020c0:	300180f7 	.word	0x300180f7
300020c4:	3001811d 	.word	0x3001811d
300020c8:	3001813e 	.word	0x3001813e
300020cc:	30018162 	.word	0x30018162

300020d0 <do_bootelf_exec>:
300020d0:	e92d41f0 	push	{r4, r5, r6, r7, r8, lr}
300020d4:	e1a07000 	mov	r7, r0
300020d8:	e1a04001 	mov	r4, r1
300020dc:	e1a05002 	mov	r5, r2
300020e0:	eb003c99 	bl	3001134c <dcache_status>
300020e4:	e2506000 	subs	r6, r0, #0	; 0x0
300020e8:	1b003c95 	blne	30011344 <dcache_disable>
300020ec:	e1a00004 	mov	r0, r4
300020f0:	e1a01005 	mov	r1, r5
300020f4:	e1a0e00f 	mov	lr, pc
300020f8:	e1a0f007 	mov	pc, r7
300020fc:	e3560000 	cmp	r6, #0	; 0x0
30002100:	e1a04000 	mov	r4, r0
30002104:	1b003c8c 	blne	3001133c <dcache_enable>
30002108:	e1a00004 	mov	r0, r4
3000210c:	e8bd81f0 	pop	{r4, r5, r6, r7, r8, pc}

30002110 <do_bootelf>:
30002110:	e3520001 	cmp	r2, #1	; 0x1
30002114:	e92d4070 	push	{r4, r5, r6, lr}
30002118:	e1a05003 	mov	r5, r3
3000211c:	d59f3078 	ldrle	r3, [pc, #120]	; 3000219c <do_bootelf+0x8c>
30002120:	e1a06002 	mov	r6, r2
30002124:	d5934000 	ldrle	r4, [r3]
30002128:	da000004 	ble	30002140 <do_bootelf+0x30>
3000212c:	e5950004 	ldr	r0, [r5, #4]
30002130:	e3a01000 	mov	r1, #0	; 0x0
30002134:	e3a02010 	mov	r2, #16	; 0x10
30002138:	eb002e01 	bl	3000d944 <simple_strtoul>
3000213c:	e1a04000 	mov	r4, r0
30002140:	e1a00004 	mov	r0, r4
30002144:	ebffff21 	bl	30001dd0 <valid_elf_image>
30002148:	e3500000 	cmp	r0, #0	; 0x0
3000214c:	03a04001 	moveq	r4, #1	; 0x1
30002150:	0a00000f 	beq	30002194 <do_bootelf+0x84>
30002154:	e1a00004 	mov	r0, r4
30002158:	ebfffef6 	bl	30001d38 <load_elf_image>
3000215c:	e1a04000 	mov	r4, r0
30002160:	e1a01000 	mov	r1, r0
30002164:	e59f0034 	ldr	r0, [pc, #52]	; 300021a0 <do_bootelf+0x90>
30002168:	eb001065 	bl	30006304 <printf>
3000216c:	e1a00004 	mov	r0, r4
30002170:	e2461001 	sub	r1, r6, #1	; 0x1
30002174:	e2852004 	add	r2, r5, #4	; 0x4
30002178:	ebffffd4 	bl	300020d0 <do_bootelf_exec>
3000217c:	e1a03000 	mov	r3, r0
30002180:	e1a01000 	mov	r1, r0
30002184:	e59f0018 	ldr	r0, [pc, #24]	; 300021a4 <do_bootelf+0x94>
30002188:	e2534000 	subs	r4, r3, #0	; 0x0
3000218c:	13a04001 	movne	r4, #1	; 0x1
30002190:	eb00105b 	bl	30006304 <printf>
30002194:	e1a00004 	mov	r0, r4
30002198:	e8bd8070 	pop	{r4, r5, r6, pc}
3000219c:	3001b2e8 	.word	0x3001b2e8
300021a0:	30018179 	.word	0x30018179
300021a4:	300181a1 	.word	0x300181a1

300021a8 <flash_sect_roundb>:
300021a8:	e3a02000 	mov	r2, #0	; 0x0
300021ac:	e92d4070 	push	{r4, r5, r6, lr}
300021b0:	e1a0c002 	mov	ip, r2
300021b4:	e1a06000 	mov	r6, r0
300021b8:	ea00001c 	b	30002230 <flash_sect_roundb+0x88>
300021bc:	e2413001 	sub	r3, r1, #1	; 0x1
300021c0:	e1540003 	cmp	r4, r3
300021c4:	05902000 	ldreq	r2, [r0]
300021c8:	0590300c 	ldreq	r3, [r0, #12]
300021cc:	15953010 	ldrne	r3, [r5, #16]
300021d0:	00833002 	addeq	r3, r3, r2
300021d4:	e596c000 	ldr	ip, [r6]
300021d8:	e2432001 	sub	r2, r3, #1	; 0x1
300021dc:	e15c0002 	cmp	ip, r2
300021e0:	8a000006 	bhi	30002200 <flash_sect_roundb+0x58>
300021e4:	e595300c 	ldr	r3, [r5, #12]
300021e8:	e15c0003 	cmp	ip, r3
300021ec:	3a000003 	bcc	30002200 <flash_sect_roundb+0x58>
300021f0:	e15c0002 	cmp	ip, r2
300021f4:	35862000 	strcc	r2, [r6]
300021f8:	e3a0c001 	mov	ip, #1	; 0x1
300021fc:	ea000000 	b	30002204 <flash_sect_roundb+0x5c>
30002200:	e3a0c000 	mov	ip, #0	; 0x0
30002204:	e2844001 	add	r4, r4, #1	; 0x1
30002208:	e2855004 	add	r5, r5, #4	; 0x4
3000220c:	e59f0054 	ldr	r0, [pc, #84]	; 30002268 <flash_sect_roundb+0xc0>
30002210:	e1d010b4 	ldrh	r1, [r0, #4]
30002214:	e22c3001 	eor	r3, ip, #1	; 0x1
30002218:	e1540001 	cmp	r4, r1
3000221c:	a3a03000 	movge	r3, #0	; 0x0
30002220:	b2033001 	andlt	r3, r3, #1	; 0x1
30002224:	e3530000 	cmp	r3, #0	; 0x0
30002228:	e3a02001 	mov	r2, #1	; 0x1
3000222c:	1affffe2 	bne	300021bc <flash_sect_roundb+0x14>
30002230:	e2222001 	eor	r2, r2, #1	; 0x1
30002234:	e22c3001 	eor	r3, ip, #1	; 0x1
30002238:	e0120003 	ands	r0, r2, r3
3000223c:	13a0c000 	movne	ip, #0	; 0x0
30002240:	159f5020 	ldrne	r5, [pc, #32]	; 30002268 <flash_sect_roundb+0xc0>
30002244:	11a0400c 	movne	r4, ip
30002248:	1affffef 	bne	3000220c <flash_sect_roundb+0x64>
3000224c:	e35c0000 	cmp	ip, #0	; 0x0
30002250:	18bd8070 	popne	{r4, r5, r6, pc}
30002254:	e5961000 	ldr	r1, [r6]
30002258:	e59f000c 	ldr	r0, [pc, #12]	; 3000226c <flash_sect_roundb+0xc4>
3000225c:	eb001028 	bl	30006304 <printf>
30002260:	e3a00001 	mov	r0, #1	; 0x1
30002264:	e8bd8070 	pop	{r4, r5, r6, pc}
30002268:	3001e0ac 	.word	0x3001e0ac
3000226c:	3001826f 	.word	0x3001826f

30002270 <flash_fill_sect_ranges>:
30002270:	e92d4ef0 	push	{r4, r5, r6, r7, r9, sl, fp, lr}
30002274:	e59dc020 	ldr	ip, [sp, #32]
30002278:	e1a0b002 	mov	fp, r2
3000227c:	e1a07003 	mov	r7, r3
30002280:	e3a02000 	mov	r2, #0	; 0x0
30002284:	e3e03000 	mvn	r3, #0	; 0x0
30002288:	e58c2000 	str	r2, [ip]
3000228c:	e1a05000 	mov	r5, r0
30002290:	e58b3000 	str	r3, [fp]
30002294:	e1a09001 	mov	r9, r1
30002298:	e5873000 	str	r3, [r7]
3000229c:	e59f4160 	ldr	r4, [pc, #352]	; 30002404 <flash_fill_sect_ranges+0x194>
300022a0:	ea000050 	b	300023e8 <flash_fill_sect_ranges+0x178>
300022a4:	e5942008 	ldr	r2, [r4, #8]
300022a8:	e59f3158 	ldr	r3, [pc, #344]	; 30002408 <flash_fill_sect_ranges+0x198>
300022ac:	e1520003 	cmp	r2, r3
300022b0:	0a00004a 	beq	300023e0 <flash_fill_sect_ranges+0x170>
300022b4:	e1d430b4 	ldrh	r3, [r4, #4]
300022b8:	e5941000 	ldr	r1, [r4]
300022bc:	e594200c 	ldr	r2, [r4, #12]
300022c0:	e2433001 	sub	r3, r3, #1	; 0x1
300022c4:	e081a002 	add	sl, r1, r2
300022c8:	e1a03803 	lsl	r3, r3, #16
300022cc:	e1a06823 	lsr	r6, r3, #16
300022d0:	e24a0001 	sub	r0, sl, #1	; 0x1
300022d4:	e1a01004 	mov	r1, r4
300022d8:	e3a0c000 	mov	ip, #0	; 0x0
300022dc:	ea00000f 	b	30002320 <flash_fill_sect_ranges+0xb0>
300022e0:	e1a03806 	lsl	r3, r6, #16
300022e4:	e15c0843 	cmp	ip, r3, asr #16
300022e8:	15913010 	ldrne	r3, [r1, #16]
300022ec:	01a03000 	moveq	r3, r0
300022f0:	12433001 	subne	r3, r3, #1	; 0x1
300022f4:	e1550003 	cmp	r5, r3
300022f8:	8a000006 	bhi	30002318 <flash_fill_sect_ranges+0xa8>
300022fc:	e591200c 	ldr	r2, [r1, #12]
30002300:	e1590002 	cmp	r9, r2
30002304:	3a000003 	bcc	30002318 <flash_fill_sect_ranges+0xa8>
30002308:	e1550002 	cmp	r5, r2
3000230c:	058bc000 	streq	ip, [fp]
30002310:	e1590003 	cmp	r9, r3
30002314:	0587c000 	streq	ip, [r7]
30002318:	e28cc001 	add	ip, ip, #1	; 0x1
3000231c:	e2811004 	add	r1, r1, #4	; 0x4
30002320:	e1d430b4 	ldrh	r3, [r4, #4]
30002324:	e15c0003 	cmp	ip, r3
30002328:	baffffec 	blt	300022e0 <flash_fill_sect_ranges+0x70>
3000232c:	e59b3000 	ldr	r3, [fp]
30002330:	e3530000 	cmp	r3, #0	; 0x0
30002334:	ba000019 	blt	300023a0 <flash_fill_sect_ranges+0x130>
30002338:	e5973000 	ldr	r3, [r7]
3000233c:	e3530000 	cmp	r3, #0	; 0x0
30002340:	aa000005 	bge	3000235c <flash_fill_sect_ranges+0xec>
30002344:	e1590000 	cmp	r9, r0
30002348:	81a03806 	lslhi	r3, r6, #16
3000234c:	81a03843 	asrhi	r3, r3, #16
30002350:	85873000 	strhi	r3, [r7]
30002354:	959f00b0 	ldrls	r0, [pc, #176]	; 3000240c <flash_fill_sect_ranges+0x19c>
30002358:	9a00001d 	bls	300023d4 <flash_fill_sect_ranges+0x164>
3000235c:	e5972000 	ldr	r2, [r7]
30002360:	e59b0000 	ldr	r0, [fp]
30002364:	e1520000 	cmp	r2, r0
30002368:	b59f00a0 	ldrlt	r0, [pc, #160]	; 30002410 <flash_fill_sect_ranges+0x1a0>
3000236c:	ba000018 	blt	300023d4 <flash_fill_sect_ranges+0x164>
30002370:	e1a03806 	lsl	r3, r6, #16
30002374:	e1520843 	cmp	r2, r3, asr #16
30002378:	e59d1020 	ldr	r1, [sp, #32]
3000237c:	10843102 	addne	r3, r4, r2, lsl #2
30002380:	1593a010 	ldrne	sl, [r3, #16]
30002384:	e0603002 	rsb	r3, r0, r2
30002388:	e5912000 	ldr	r2, [r1]
3000238c:	e2833001 	add	r3, r3, #1	; 0x1
30002390:	e0822003 	add	r2, r2, r3
30002394:	e5812000 	str	r2, [r1]
30002398:	e1a0500a 	mov	r5, sl
3000239c:	ea00000f 	b	300023e0 <flash_fill_sect_ranges+0x170>
300023a0:	e594300c 	ldr	r3, [r4, #12]
300023a4:	e1550003 	cmp	r5, r3
300023a8:	33a03000 	movcc	r3, #0	; 0x0
300023ac:	23a03001 	movcs	r3, #1	; 0x1
300023b0:	e1550000 	cmp	r5, r0
300023b4:	23a03000 	movcs	r3, #0	; 0x0
300023b8:	e3530000 	cmp	r3, #0	; 0x0
300023bc:	159f0050 	ldrne	r0, [pc, #80]	; 30002414 <flash_fill_sect_ranges+0x1a4>
300023c0:	1a000003 	bne	300023d4 <flash_fill_sect_ranges+0x164>
300023c4:	e5973000 	ldr	r3, [r7]
300023c8:	e3530000 	cmp	r3, #0	; 0x0
300023cc:	ba000003 	blt	300023e0 <flash_fill_sect_ranges+0x170>
300023d0:	e59f0040 	ldr	r0, [pc, #64]	; 30002418 <flash_fill_sect_ranges+0x1a8>
300023d4:	eb000fb8 	bl	300062bc <puts>
300023d8:	e3a00001 	mov	r0, #1	; 0x1
300023dc:	e8bd8ef0 	pop	{r4, r5, r6, r7, r9, sl, fp, pc}
300023e0:	e284406c 	add	r4, r4, #108	; 0x6c
300023e4:	e3a02001 	mov	r2, #1	; 0x1
300023e8:	e2223001 	eor	r3, r2, #1	; 0x1
300023ec:	e1550009 	cmp	r5, r9
300023f0:	83a00000 	movhi	r0, #0	; 0x0
300023f4:	92030001 	andls	r0, r3, #1	; 0x1
300023f8:	e3500000 	cmp	r0, #0	; 0x0
300023fc:	1affffa8 	bne	300022a4 <flash_fill_sect_ranges+0x34>
30002400:	e8bd8ef0 	pop	{r4, r5, r6, r7, r9, sl, fp, pc}
30002404:	3001e0ac 	.word	0x3001e0ac
30002408:	0000ffff 	.word	0x0000ffff
3000240c:	3001829b 	.word	0x3001829b
30002410:	300182c6 	.word	0x300182c6
30002414:	300182ef 	.word	0x300182ef
30002418:	3001831c 	.word	0x3001831c

3000241c <flash_sect_protect>:
3000241c:	e92d4010 	push	{r4, lr}
30002420:	e24dd018 	sub	sp, sp, #24	; 0x18
30002424:	e28d3010 	add	r3, sp, #16	; 0x10
30002428:	e28dc00c 	add	ip, sp, #12	; 0xc
3000242c:	e1a04000 	mov	r4, r0
30002430:	e1a00001 	mov	r0, r1
30002434:	e1a01002 	mov	r1, r2
30002438:	e28d2014 	add	r2, sp, #20	; 0x14
3000243c:	e58dc000 	str	ip, [sp]
30002440:	ebffff8a 	bl	30002270 <flash_fill_sect_ranges>
30002444:	e59d300c 	ldr	r3, [sp, #12]
30002448:	e2702001 	rsbs	r2, r0, #1	; 0x1
3000244c:	33a02000 	movcc	r2, #0	; 0x0
30002450:	e3530000 	cmp	r3, #0	; 0x0
30002454:	03a03000 	moveq	r3, #0	; 0x0
30002458:	12023001 	andne	r3, r2, #1	; 0x1
3000245c:	e3530000 	cmp	r3, #0	; 0x0
30002460:	0a00001d 	beq	300024dc <flash_sect_protect+0xc0>
30002464:	e59f108c 	ldr	r1, [pc, #140]	; 300024f8 <flash_sect_protect+0xdc>
30002468:	e59f308c 	ldr	r3, [pc, #140]	; 300024fc <flash_sect_protect+0xe0>
3000246c:	e5912008 	ldr	r2, [r1, #8]
30002470:	e1520003 	cmp	r2, r3
30002474:	0a00000f 	beq	300024b8 <flash_sect_protect+0x9c>
30002478:	e59d2014 	ldr	r2, [sp, #20]
3000247c:	e3520000 	cmp	r2, #0	; 0x0
30002480:	ba00000c 	blt	300024b8 <flash_sect_protect+0x9c>
30002484:	e59d0010 	ldr	r0, [sp, #16]
30002488:	e1520000 	cmp	r2, r0
3000248c:	ca000009 	bgt	300024b8 <flash_sect_protect+0x9c>
30002490:	e2823058 	add	r3, r2, #88	; 0x58
30002494:	e0811003 	add	r1, r1, r3
30002498:	e59f3060 	ldr	r3, [pc, #96]	; 30002500 <flash_sect_protect+0xe4>
3000249c:	e4c14001 	strb	r4, [r1], #1
300024a0:	e0803003 	add	r3, r0, r3
300024a4:	e1510003 	cmp	r1, r3
300024a8:	1afffffa 	bne	30002498 <flash_sect_protect+0x7c>
300024ac:	e2803001 	add	r3, r0, #1	; 0x1
300024b0:	e0622003 	rsb	r2, r2, r3
300024b4:	ea000000 	b	300024bc <flash_sect_protect+0xa0>
300024b8:	e3a02000 	mov	r2, #0	; 0x0
300024bc:	e59f3040 	ldr	r3, [pc, #64]	; 30002504 <flash_sect_protect+0xe8>
300024c0:	e3540000 	cmp	r4, #0	; 0x0
300024c4:	e59f103c 	ldr	r1, [pc, #60]	; 30002508 <flash_sect_protect+0xec>
300024c8:	e59f003c 	ldr	r0, [pc, #60]	; 3000250c <flash_sect_protect+0xf0>
300024cc:	01a01003 	moveq	r1, r3
300024d0:	eb000f8b 	bl	30006304 <printf>
300024d4:	e3a00000 	mov	r0, #0	; 0x0
300024d8:	ea000004 	b	300024f0 <flash_sect_protect+0xd4>
300024dc:	e3520000 	cmp	r2, #0	; 0x0
300024e0:	0a000002 	beq	300024f0 <flash_sect_protect+0xd4>
300024e4:	e59f0024 	ldr	r0, [pc, #36]	; 30002510 <flash_sect_protect+0xf4>
300024e8:	eb000f73 	bl	300062bc <puts>
300024ec:	e3a00001 	mov	r0, #1	; 0x1
300024f0:	e28dd018 	add	sp, sp, #24	; 0x18
300024f4:	e8bd8010 	pop	{r4, pc}
300024f8:	3001e0ac 	.word	0x3001e0ac
300024fc:	0000ffff 	.word	0x0000ffff
30002500:	3001e105 	.word	0x3001e105
30002504:	30018363 	.word	0x30018363
30002508:	30018e0b 	.word	0x30018e0b
3000250c:	30018367 	.word	0x30018367
30002510:	3001837f 	.word	0x3001837f

30002514 <addr_spec>:
30002514:	e92d40f7 	push	{r0, r1, r2, r4, r5, r6, r7, lr}
30002518:	e1a07002 	mov	r7, r2
3000251c:	e1a05001 	mov	r5, r1
30002520:	e3a02010 	mov	r2, #16	; 0x10
30002524:	e28d1004 	add	r1, sp, #4	; 0x4
30002528:	e1a06003 	mov	r6, r3
3000252c:	e1a04000 	mov	r4, r0
30002530:	eb002d03 	bl	3000d944 <simple_strtoul>
30002534:	e59d3004 	ldr	r3, [sp, #4]
30002538:	e1530004 	cmp	r3, r4
3000253c:	e5870000 	str	r0, [r7]
30002540:	0a00001f 	beq	300025c4 <addr_spec+0xb0>
30002544:	e5d33000 	ldrb	r3, [r3]
30002548:	e3530000 	cmp	r3, #0	; 0x0
3000254c:	1a00001c 	bne	300025c4 <addr_spec+0xb0>
30002550:	e3550000 	cmp	r5, #0	; 0x0
30002554:	0a000004 	beq	3000256c <addr_spec+0x58>
30002558:	e5d53000 	ldrb	r3, [r5]
3000255c:	e353002b 	cmp	r3, #43	; 0x2b
30002560:	02855001 	addeq	r5, r5, #1	; 0x1
30002564:	03a04001 	moveq	r4, #1	; 0x1
30002568:	0a000000 	beq	30002570 <addr_spec+0x5c>
3000256c:	e3a04000 	mov	r4, #0	; 0x0
30002570:	e1a00005 	mov	r0, r5
30002574:	e28d1004 	add	r1, sp, #4	; 0x4
30002578:	e3a02010 	mov	r2, #16	; 0x10
3000257c:	eb002cf0 	bl	3000d944 <simple_strtoul>
30002580:	e59d3004 	ldr	r3, [sp, #4]
30002584:	e1530005 	cmp	r3, r5
30002588:	e5860000 	str	r0, [r6]
3000258c:	0a00000c 	beq	300025c4 <addr_spec+0xb0>
30002590:	e5d33000 	ldrb	r3, [r3]
30002594:	e3530000 	cmp	r3, #0	; 0x0
30002598:	1a000009 	bne	300025c4 <addr_spec+0xb0>
3000259c:	e3540000 	cmp	r4, #0	; 0x0
300025a0:	0a000009 	beq	300025cc <addr_spec+0xb8>
300025a4:	e5973000 	ldr	r3, [r7]
300025a8:	e2433001 	sub	r3, r3, #1	; 0x1
300025ac:	e0833000 	add	r3, r3, r0
300025b0:	e5863000 	str	r3, [r6]
300025b4:	e1a00006 	mov	r0, r6
300025b8:	ebfffefa 	bl	300021a8 <flash_sect_roundb>
300025bc:	e3500000 	cmp	r0, #0	; 0x0
300025c0:	da000001 	ble	300025cc <addr_spec+0xb8>
300025c4:	e3e00000 	mvn	r0, #0	; 0x0
300025c8:	ea000000 	b	300025d0 <addr_spec+0xbc>
300025cc:	e3a00001 	mov	r0, #1	; 0x1
300025d0:	e8bd80fe 	pop	{r1, r2, r3, r4, r5, r6, r7, pc}

300025d4 <abbrev_spec>:
300025d4:	e92d4eff 	push	{r0, r1, r2, r3, r4, r5, r6, r7, r9, sl, fp, lr}
300025d8:	e58d1004 	str	r1, [sp, #4]
300025dc:	e3a0103a 	mov	r1, #58	; 0x3a
300025e0:	e1a09002 	mov	r9, r2
300025e4:	e1a0b003 	mov	fp, r3
300025e8:	e1a05000 	mov	r5, r0
300025ec:	eb002b91 	bl	3000d438 <strchr>
300025f0:	e2504000 	subs	r4, r0, #0	; 0x0
300025f4:	01a00004 	moveq	r0, r4
300025f8:	0a000045 	beq	30002714 <abbrev_spec+0x140>
300025fc:	e3a03000 	mov	r3, #0	; 0x0
30002600:	e5c43000 	strb	r3, [r4]
30002604:	e1a00005 	mov	r0, r5
30002608:	e28d100c 	add	r1, sp, #12	; 0xc
3000260c:	e3a0200a 	mov	r2, #10	; 0xa
30002610:	eb002ccb 	bl	3000d944 <simple_strtoul>
30002614:	e59d300c 	ldr	r3, [sp, #12]
30002618:	e1530005 	cmp	r3, r5
3000261c:	0a00003b 	beq	30002710 <abbrev_spec+0x13c>
30002620:	e5d32000 	ldrb	r2, [r3]
30002624:	e3500000 	cmp	r0, #0	; 0x0
30002628:	c3a03000 	movgt	r3, #0	; 0x0
3000262c:	d3a03001 	movle	r3, #1	; 0x1
30002630:	e3520000 	cmp	r2, #0	; 0x0
30002634:	01a06003 	moveq	r6, r3
30002638:	13836001 	orrne	r6, r3, #1	; 0x1
3000263c:	e3560000 	cmp	r6, #0	; 0x0
30002640:	1a000032 	bne	30002710 <abbrev_spec+0x13c>
30002644:	e3500001 	cmp	r0, #1	; 0x1
30002648:	1a000030 	bne	30002710 <abbrev_spec+0x13c>
3000264c:	e59f70c8 	ldr	r7, [pc, #200]	; 3000271c <abbrev_spec+0x148>
30002650:	e59f30c8 	ldr	r3, [pc, #200]	; 30002720 <abbrev_spec+0x14c>
30002654:	e5972008 	ldr	r2, [r7, #8]
30002658:	e1520003 	cmp	r2, r3
3000265c:	0a00002b 	beq	30002710 <abbrev_spec+0x13c>
30002660:	e2844001 	add	r4, r4, #1	; 0x1
30002664:	e3a0102d 	mov	r1, #45	; 0x2d
30002668:	e1a00004 	mov	r0, r4
3000266c:	eb002b71 	bl	3000d438 <strchr>
30002670:	e28da00c 	add	sl, sp, #12	; 0xc
30002674:	e2505000 	subs	r5, r0, #0	; 0x0
30002678:	14c56001 	strbne	r6, [r5], #1
3000267c:	e1a00004 	mov	r0, r4
30002680:	e1a0100a 	mov	r1, sl
30002684:	e3a0200a 	mov	r2, #10	; 0xa
30002688:	eb002cad 	bl	3000d944 <simple_strtoul>
3000268c:	e59d300c 	ldr	r3, [sp, #12]
30002690:	e1530004 	cmp	r3, r4
30002694:	e1a06000 	mov	r6, r0
30002698:	0a00001c 	beq	30002710 <abbrev_spec+0x13c>
3000269c:	e5d33000 	ldrb	r3, [r3]
300026a0:	e3530000 	cmp	r3, #0	; 0x0
300026a4:	1a000019 	bne	30002710 <abbrev_spec+0x13c>
300026a8:	e1d730b4 	ldrh	r3, [r7, #4]
300026ac:	e1500003 	cmp	r0, r3
300026b0:	aa000016 	bge	30002710 <abbrev_spec+0x13c>
300026b4:	e3550000 	cmp	r5, #0	; 0x0
300026b8:	01a00000 	moveq	r0, r0
300026bc:	0a00000d 	beq	300026f8 <abbrev_spec+0x124>
300026c0:	e1a0100a 	mov	r1, sl
300026c4:	e1a00005 	mov	r0, r5
300026c8:	e3a0200a 	mov	r2, #10	; 0xa
300026cc:	eb002c9c 	bl	3000d944 <simple_strtoul>
300026d0:	e59d300c 	ldr	r3, [sp, #12]
300026d4:	e1530005 	cmp	r3, r5
300026d8:	0a00000c 	beq	30002710 <abbrev_spec+0x13c>
300026dc:	e5d33000 	ldrb	r3, [r3]
300026e0:	e1500006 	cmp	r0, r6
300026e4:	a3530000 	cmpge	r3, #0	; 0x0
300026e8:	1a000008 	bne	30002710 <abbrev_spec+0x13c>
300026ec:	e1d730b4 	ldrh	r3, [r7, #4]
300026f0:	e1500003 	cmp	r0, r3
300026f4:	aa000005 	bge	30002710 <abbrev_spec+0x13c>
300026f8:	e59d3004 	ldr	r3, [sp, #4]
300026fc:	e5896000 	str	r6, [r9]
30002700:	e5837000 	str	r7, [r3]
30002704:	e58b0000 	str	r0, [fp]
30002708:	e3a00001 	mov	r0, #1	; 0x1
3000270c:	ea000000 	b	30002714 <abbrev_spec+0x140>
30002710:	e3e00000 	mvn	r0, #0	; 0x0
30002714:	e28dd010 	add	sp, sp, #16	; 0x10
30002718:	e8bd8ef0 	pop	{r4, r5, r6, r7, r9, sl, fp, pc}
3000271c:	3001e0ac 	.word	0x3001e0ac
30002720:	0000ffff 	.word	0x0000ffff

30002724 <do_protect>:
30002724:	e92d44f0 	push	{r4, r5, r6, r7, sl, lr}
30002728:	e3520002 	cmp	r2, #2	; 0x2
3000272c:	e24dd020 	sub	sp, sp, #32	; 0x20
30002730:	e1a0a002 	mov	sl, r2
30002734:	e1a04003 	mov	r4, r3
30002738:	e1a06000 	mov	r6, r0
3000273c:	da00008b 	ble	30002970 <do_protect+0x24c>
30002740:	e5930004 	ldr	r0, [r3, #4]
30002744:	e59f1248 	ldr	r1, [pc, #584]	; 30002994 <do_protect+0x270>
30002748:	eb002b18 	bl	3000d3b0 <strcmp>
3000274c:	e3500000 	cmp	r0, #0	; 0x0
30002750:	01a05000 	moveq	r5, r0
30002754:	0a000005 	beq	30002770 <do_protect+0x4c>
30002758:	e5940004 	ldr	r0, [r4, #4]
3000275c:	e59f1234 	ldr	r1, [pc, #564]	; 30002998 <do_protect+0x274>
30002760:	eb002b12 	bl	3000d3b0 <strcmp>
30002764:	e3500000 	cmp	r0, #0	; 0x0
30002768:	03a05001 	moveq	r5, #1	; 0x1
3000276c:	1a00007e 	bne	3000296c <do_protect+0x248>
30002770:	e5940008 	ldr	r0, [r4, #8]
30002774:	e59f1220 	ldr	r1, [pc, #544]	; 3000299c <do_protect+0x278>
30002778:	eb002b0c 	bl	3000d3b0 <strcmp>
3000277c:	e2507000 	subs	r7, r0, #0	; 0x0
30002780:	1a000017 	bne	300027e4 <do_protect+0xc0>
30002784:	e59fc214 	ldr	ip, [pc, #532]	; 300029a0 <do_protect+0x27c>
30002788:	e59f3214 	ldr	r3, [pc, #532]	; 300029a4 <do_protect+0x280>
3000278c:	e59c2008 	ldr	r2, [ip, #8]
30002790:	e1520003 	cmp	r2, r3
30002794:	0a00007b 	beq	30002988 <do_protect+0x264>
30002798:	e59f3208 	ldr	r3, [pc, #520]	; 300029a8 <do_protect+0x284>
3000279c:	e3550000 	cmp	r5, #0	; 0x0
300027a0:	e59f1204 	ldr	r1, [pc, #516]	; 300029ac <do_protect+0x288>
300027a4:	e59f0204 	ldr	r0, [pc, #516]	; 300029b0 <do_protect+0x28c>
300027a8:	01a01003 	moveq	r1, r3
300027ac:	e3a02001 	mov	r2, #1	; 0x1
300027b0:	e58dc01c 	str	ip, [sp, #28]
300027b4:	eb000ed2 	bl	30006304 <printf>
300027b8:	e59d101c 	ldr	r1, [sp, #28]
300027bc:	e1a00007 	mov	r0, r7
300027c0:	e1a02001 	mov	r2, r1
300027c4:	ea000000 	b	300027cc <do_protect+0xa8>
300027c8:	e5c25057 	strb	r5, [r2, #87]
300027cc:	e1d130b4 	ldrh	r3, [r1, #4]
300027d0:	e1500003 	cmp	r0, r3
300027d4:	e2822001 	add	r2, r2, #1	; 0x1
300027d8:	e2800001 	add	r0, r0, #1	; 0x1
300027dc:	bafffff9 	blt	300027c8 <do_protect+0xa4>
300027e0:	ea000068 	b	30002988 <do_protect+0x264>
300027e4:	e5940008 	ldr	r0, [r4, #8]
300027e8:	e28d101c 	add	r1, sp, #28	; 0x1c
300027ec:	e28d2018 	add	r2, sp, #24	; 0x18
300027f0:	e28d3014 	add	r3, sp, #20	; 0x14
300027f4:	ebffff76 	bl	300025d4 <abbrev_spec>
300027f8:	e3500000 	cmp	r0, #0	; 0x0
300027fc:	0a00001f 	beq	30002880 <do_protect+0x15c>
30002800:	aa000002 	bge	30002810 <do_protect+0xec>
30002804:	e59f01a8 	ldr	r0, [pc, #424]	; 300029b4 <do_protect+0x290>
30002808:	eb000eab 	bl	300062bc <puts>
3000280c:	ea000058 	b	30002974 <do_protect+0x250>
30002810:	e59d301c 	ldr	r3, [sp, #28]
30002814:	e59f2184 	ldr	r2, [pc, #388]	; 300029a0 <do_protect+0x27c>
30002818:	e0623003 	rsb	r3, r2, r3
3000281c:	e59f2194 	ldr	r2, [pc, #404]	; 300029b8 <do_protect+0x294>
30002820:	e1a03143 	asr	r3, r3, #2
30002824:	e00c0392 	mul	ip, r2, r3
30002828:	e59f3178 	ldr	r3, [pc, #376]	; 300029a8 <do_protect+0x284>
3000282c:	e3550000 	cmp	r5, #0	; 0x0
30002830:	e59f1174 	ldr	r1, [pc, #372]	; 300029ac <do_protect+0x288>
30002834:	e28cc001 	add	ip, ip, #1	; 0x1
30002838:	01a01003 	moveq	r1, r3
3000283c:	e59d2018 	ldr	r2, [sp, #24]
30002840:	e59d3014 	ldr	r3, [sp, #20]
30002844:	e59f0170 	ldr	r0, [pc, #368]	; 300029bc <do_protect+0x298>
30002848:	e58dc000 	str	ip, [sp]
3000284c:	eb000eac 	bl	30006304 <printf>
30002850:	e28d1018 	add	r1, sp, #24	; 0x18
30002854:	e891000a 	ldm	r1, {r1, r3}
30002858:	e2812058 	add	r2, r1, #88	; 0x58
3000285c:	e0833002 	add	r3, r3, r2
30002860:	e59d2014 	ldr	r2, [sp, #20]
30002864:	ea000000 	b	3000286c <do_protect+0x148>
30002868:	e5435001 	strb	r5, [r3, #-1]
3000286c:	e1510002 	cmp	r1, r2
30002870:	e2833001 	add	r3, r3, #1	; 0x1
30002874:	e2811001 	add	r1, r1, #1	; 0x1
30002878:	dafffffa 	ble	30002868 <do_protect+0x144>
3000287c:	ea000041 	b	30002988 <do_protect+0x264>
30002880:	e35a0004 	cmp	sl, #4	; 0x4
30002884:	1a000038 	bne	3000296c <do_protect+0x248>
30002888:	e5940008 	ldr	r0, [r4, #8]
3000288c:	e59f112c 	ldr	r1, [pc, #300]	; 300029c0 <do_protect+0x29c>
30002890:	eb002ac6 	bl	3000d3b0 <strcmp>
30002894:	e2507000 	subs	r7, r0, #0	; 0x0
30002898:	1a000025 	bne	30002934 <do_protect+0x210>
3000289c:	e594000c 	ldr	r0, [r4, #12]
300028a0:	e1a01007 	mov	r1, r7
300028a4:	e3a02010 	mov	r2, #16	; 0x10
300028a8:	eb002c25 	bl	3000d944 <simple_strtoul>
300028ac:	e3500001 	cmp	r0, #1	; 0x1
300028b0:	e1a04000 	mov	r4, r0
300028b4:	0a000003 	beq	300028c8 <do_protect+0x1a4>
300028b8:	e59f0104 	ldr	r0, [pc, #260]	; 300029c4 <do_protect+0x2a0>
300028bc:	e3a01001 	mov	r1, #1	; 0x1
300028c0:	eb000e8f 	bl	30006304 <printf>
300028c4:	ea00002a 	b	30002974 <do_protect+0x250>
300028c8:	e59f30d8 	ldr	r3, [pc, #216]	; 300029a8 <do_protect+0x284>
300028cc:	e3550000 	cmp	r5, #0	; 0x0
300028d0:	e59f10d4 	ldr	r1, [pc, #212]	; 300029ac <do_protect+0x288>
300028d4:	e59f00d4 	ldr	r0, [pc, #212]	; 300029b0 <do_protect+0x28c>
300028d8:	01a01003 	moveq	r1, r3
300028dc:	e1a02004 	mov	r2, r4
300028e0:	eb000e87 	bl	30006304 <printf>
300028e4:	e59f10b4 	ldr	r1, [pc, #180]	; 300029a0 <do_protect+0x27c>
300028e8:	e59f30b4 	ldr	r3, [pc, #180]	; 300029a4 <do_protect+0x280>
300028ec:	e5912008 	ldr	r2, [r1, #8]
300028f0:	e1520003 	cmp	r2, r3
300028f4:	12812058 	addne	r2, r1, #88	; 0x58
300028f8:	11a00007 	movne	r0, r7
300028fc:	1a000005 	bne	30002918 <do_protect+0x1f4>
30002900:	e59f00c0 	ldr	r0, [pc, #192]	; 300029c8 <do_protect+0x2a4>
30002904:	e58d101c 	str	r1, [sp, #28]
30002908:	eb000e6b 	bl	300062bc <puts>
3000290c:	e1a00004 	mov	r0, r4
30002910:	ea00001d 	b	3000298c <do_protect+0x268>
30002914:	e5425001 	strb	r5, [r2, #-1]
30002918:	e59f3080 	ldr	r3, [pc, #128]	; 300029a0 <do_protect+0x27c>
3000291c:	e1d330b4 	ldrh	r3, [r3, #4]
30002920:	e1500003 	cmp	r0, r3
30002924:	e2822001 	add	r2, r2, #1	; 0x1
30002928:	e2800001 	add	r0, r0, #1	; 0x1
3000292c:	bafffff8 	blt	30002914 <do_protect+0x1f0>
30002930:	ea000014 	b	30002988 <do_protect+0x264>
30002934:	e2840008 	add	r0, r4, #8	; 0x8
30002938:	e8900003 	ldm	r0, {r0, r1}
3000293c:	e28d2010 	add	r2, sp, #16	; 0x10
30002940:	e28d300c 	add	r3, sp, #12	; 0xc
30002944:	ebfffef2 	bl	30002514 <addr_spec>
30002948:	e3500000 	cmp	r0, #0	; 0x0
3000294c:	aa000002 	bge	3000295c <do_protect+0x238>
30002950:	e59f0074 	ldr	r0, [pc, #116]	; 300029cc <do_protect+0x2a8>
30002954:	eb000e6a 	bl	30006304 <printf>
30002958:	ea000005 	b	30002974 <do_protect+0x250>
3000295c:	e59d1010 	ldr	r1, [sp, #16]
30002960:	e59d200c 	ldr	r2, [sp, #12]
30002964:	e1510002 	cmp	r1, r2
30002968:	3a000003 	bcc	3000297c <do_protect+0x258>
3000296c:	e1a00006 	mov	r0, r6
30002970:	eb000bb8 	bl	30005858 <cmd_usage>
30002974:	e3a00001 	mov	r0, #1	; 0x1
30002978:	ea000003 	b	3000298c <do_protect+0x268>
3000297c:	e1a00005 	mov	r0, r5
30002980:	ebfffea5 	bl	3000241c <flash_sect_protect>
30002984:	ea000000 	b	3000298c <do_protect+0x268>
30002988:	e3a00000 	mov	r0, #0	; 0x0
3000298c:	e28dd020 	add	sp, sp, #32	; 0x20
30002990:	e8bd84f0 	pop	{r4, r5, r6, r7, sl, pc}
30002994:	30017184 	.word	0x30017184
30002998:	30017ef5 	.word	0x30017ef5
3000299c:	300183b7 	.word	0x300183b7
300029a0:	3001e0ac 	.word	0x3001e0ac
300029a4:	0000ffff 	.word	0x0000ffff
300029a8:	30018363 	.word	0x30018363
300029ac:	30018e0b 	.word	0x30018e0b
300029b0:	300183bb 	.word	0x300183bb
300029b4:	300183d7 	.word	0x300183d7
300029b8:	684bda13 	.word	0x684bda13
300029bc:	300183f1 	.word	0x300183f1
300029c0:	30017342 	.word	0x30017342
300029c4:	3001841e 	.word	0x3001841e
300029c8:	30018447 	.word	0x30018447
300029cc:	30018466 	.word	0x30018466

300029d0 <flash_sect_erase>:
300029d0:	e92d4070 	push	{r4, r5, r6, lr}
300029d4:	e24dd018 	sub	sp, sp, #24	; 0x18
300029d8:	e28d2014 	add	r2, sp, #20	; 0x14
300029dc:	e28d3010 	add	r3, sp, #16	; 0x10
300029e0:	e28dc00c 	add	ip, sp, #12	; 0xc
300029e4:	e58dc000 	str	ip, [sp]
300029e8:	ebfffe20 	bl	30002270 <flash_fill_sect_ranges>
300029ec:	e59d300c 	ldr	r3, [sp, #12]
300029f0:	e2702001 	rsbs	r2, r0, #1	; 0x1
300029f4:	33a02000 	movcc	r2, #0	; 0x0
300029f8:	e3530000 	cmp	r3, #0	; 0x0
300029fc:	03a03000 	moveq	r3, #0	; 0x0
30002a00:	12023001 	andne	r3, r2, #1	; 0x1
30002a04:	e3530000 	cmp	r3, #0	; 0x0
30002a08:	e1a04000 	mov	r4, r0
30002a0c:	0a00001c 	beq	30002a84 <flash_sect_erase+0xb4>
30002a10:	e3a03000 	mov	r3, #0	; 0x0
30002a14:	e59f6088 	ldr	r6, [pc, #136]	; 30002aa4 <flash_sect_erase+0xd4>
30002a18:	e1a05003 	mov	r5, r3
30002a1c:	e1a04003 	mov	r4, r3
30002a20:	ea00000d 	b	30002a5c <flash_sect_erase+0x8c>
30002a24:	e59dc014 	ldr	ip, [sp, #20]
30002a28:	e35c0000 	cmp	ip, #0	; 0x0
30002a2c:	e1a0100c 	mov	r1, ip
30002a30:	e1a00006 	mov	r0, r6
30002a34:	b3a04000 	movlt	r4, #0	; 0x0
30002a38:	ba000005 	blt	30002a54 <flash_sect_erase+0x84>
30002a3c:	e59d2010 	ldr	r2, [sp, #16]
30002a40:	e2823001 	add	r3, r2, #1	; 0x1
30002a44:	e06c3003 	rsb	r3, ip, r3
30002a48:	e0855003 	add	r5, r5, r3
30002a4c:	eb0026af 	bl	3000c510 <flash_erase>
30002a50:	e1a04000 	mov	r4, r0
30002a54:	e286606c 	add	r6, r6, #108	; 0x6c
30002a58:	e3a03001 	mov	r3, #1	; 0x1
30002a5c:	e2233001 	eor	r3, r3, #1	; 0x1
30002a60:	e3540000 	cmp	r4, #0	; 0x0
30002a64:	13a03000 	movne	r3, #0	; 0x0
30002a68:	02033001 	andeq	r3, r3, #1	; 0x1
30002a6c:	e3530000 	cmp	r3, #0	; 0x0
30002a70:	1affffeb 	bne	30002a24 <flash_sect_erase+0x54>
30002a74:	e1a01005 	mov	r1, r5
30002a78:	e59f0028 	ldr	r0, [pc, #40]	; 30002aa8 <flash_sect_erase+0xd8>
30002a7c:	eb000e20 	bl	30006304 <printf>
30002a80:	ea000004 	b	30002a98 <flash_sect_erase+0xc8>
30002a84:	e3520000 	cmp	r2, #0	; 0x0
30002a88:	0a000002 	beq	30002a98 <flash_sect_erase+0xc8>
30002a8c:	e59f0018 	ldr	r0, [pc, #24]	; 30002aac <flash_sect_erase+0xdc>
30002a90:	eb000e09 	bl	300062bc <puts>
30002a94:	e3a04001 	mov	r4, #1	; 0x1
30002a98:	e1a00004 	mov	r0, r4
30002a9c:	e28dd018 	add	sp, sp, #24	; 0x18
30002aa0:	e8bd8070 	pop	{r4, r5, r6, pc}
30002aa4:	3001e0ac 	.word	0x3001e0ac
30002aa8:	3001847a 	.word	0x3001847a
30002aac:	3001837f 	.word	0x3001837f

30002ab0 <do_flerase>:
30002ab0:	e92d40f0 	push	{r4, r5, r6, r7, lr}
30002ab4:	e3520001 	cmp	r2, #1	; 0x1
30002ab8:	e24dd01c 	sub	sp, sp, #28	; 0x1c
30002abc:	e1a06002 	mov	r6, r2
30002ac0:	e1a04003 	mov	r4, r3
30002ac4:	e1a07000 	mov	r7, r0
30002ac8:	da00004b 	ble	30002bfc <do_flerase+0x14c>
30002acc:	e59f113c 	ldr	r1, [pc, #316]	; 30002c10 <do_flerase+0x160>
30002ad0:	e5930004 	ldr	r0, [r3, #4]
30002ad4:	eb002a35 	bl	3000d3b0 <strcmp>
30002ad8:	e2505000 	subs	r5, r0, #0	; 0x0
30002adc:	059f0130 	ldreq	r0, [pc, #304]	; 30002c14 <do_flerase+0x164>
30002ae0:	03a01001 	moveq	r1, #1	; 0x1
30002ae4:	0a00002d 	beq	30002ba0 <do_flerase+0xf0>
30002ae8:	e5940004 	ldr	r0, [r4, #4]
30002aec:	e28d1014 	add	r1, sp, #20	; 0x14
30002af0:	e28d2008 	add	r2, sp, #8	; 0x8
30002af4:	e28d3004 	add	r3, sp, #4	; 0x4
30002af8:	ebfffeb5 	bl	300025d4 <abbrev_spec>
30002afc:	e3500000 	cmp	r0, #0	; 0x0
30002b00:	0a000013 	beq	30002b54 <do_flerase+0xa4>
30002b04:	aa000003 	bge	30002b18 <do_flerase+0x68>
30002b08:	e59f0108 	ldr	r0, [pc, #264]	; 30002c18 <do_flerase+0x168>
30002b0c:	eb000dea 	bl	300062bc <puts>
30002b10:	e3a00001 	mov	r0, #1	; 0x1
30002b14:	ea00003b 	b	30002c08 <do_flerase+0x158>
30002b18:	e59d3014 	ldr	r3, [sp, #20]
30002b1c:	e59f20f8 	ldr	r2, [pc, #248]	; 30002c1c <do_flerase+0x16c>
30002b20:	e0623003 	rsb	r3, r2, r3
30002b24:	e59f20f4 	ldr	r2, [pc, #244]	; 30002c20 <do_flerase+0x170>
30002b28:	e1a03143 	asr	r3, r3, #2
30002b2c:	e0030392 	mul	r3, r2, r3
30002b30:	e59f00ec 	ldr	r0, [pc, #236]	; 30002c24 <do_flerase+0x174>
30002b34:	e59d1008 	ldr	r1, [sp, #8]
30002b38:	e59d2004 	ldr	r2, [sp, #4]
30002b3c:	e2833001 	add	r3, r3, #1	; 0x1
30002b40:	eb000def 	bl	30006304 <printf>
30002b44:	e59d0014 	ldr	r0, [sp, #20]
30002b48:	e59d1008 	ldr	r1, [sp, #8]
30002b4c:	e59d2004 	ldr	r2, [sp, #4]
30002b50:	ea000019 	b	30002bbc <do_flerase+0x10c>
30002b54:	e3560003 	cmp	r6, #3	; 0x3
30002b58:	1a000026 	bne	30002bf8 <do_flerase+0x148>
30002b5c:	e5940004 	ldr	r0, [r4, #4]
30002b60:	e59f10c0 	ldr	r1, [pc, #192]	; 30002c28 <do_flerase+0x178>
30002b64:	eb002a11 	bl	3000d3b0 <strcmp>
30002b68:	e2505000 	subs	r5, r0, #0	; 0x0
30002b6c:	1a000014 	bne	30002bc4 <do_flerase+0x114>
30002b70:	e5940008 	ldr	r0, [r4, #8]
30002b74:	e1a01005 	mov	r1, r5
30002b78:	e3a02010 	mov	r2, #16	; 0x10
30002b7c:	eb002b70 	bl	3000d944 <simple_strtoul>
30002b80:	e3500001 	cmp	r0, #1	; 0x1
30002b84:	0a000003 	beq	30002b98 <do_flerase+0xe8>
30002b88:	e59f009c 	ldr	r0, [pc, #156]	; 30002c2c <do_flerase+0x17c>
30002b8c:	e3a01001 	mov	r1, #1	; 0x1
30002b90:	eb000ddb 	bl	30006304 <printf>
30002b94:	eaffffdd 	b	30002b10 <do_flerase+0x60>
30002b98:	e1a01000 	mov	r1, r0
30002b9c:	e59f0070 	ldr	r0, [pc, #112]	; 30002c14 <do_flerase+0x164>
30002ba0:	eb000dd7 	bl	30006304 <printf>
30002ba4:	e59f3070 	ldr	r3, [pc, #112]	; 30002c1c <do_flerase+0x16c>
30002ba8:	e1d320b4 	ldrh	r2, [r3, #4]
30002bac:	e58d3014 	str	r3, [sp, #20]
30002bb0:	e1a00003 	mov	r0, r3
30002bb4:	e1a01005 	mov	r1, r5
30002bb8:	e2422001 	sub	r2, r2, #1	; 0x1
30002bbc:	eb002653 	bl	3000c510 <flash_erase>
30002bc0:	ea000010 	b	30002c08 <do_flerase+0x158>
30002bc4:	e9940003 	ldmib	r4, {r0, r1}
30002bc8:	e28d2010 	add	r2, sp, #16	; 0x10
30002bcc:	e28d300c 	add	r3, sp, #12	; 0xc
30002bd0:	ebfffe4f 	bl	30002514 <addr_spec>
30002bd4:	e3500000 	cmp	r0, #0	; 0x0
30002bd8:	aa000002 	bge	30002be8 <do_flerase+0x138>
30002bdc:	e59f004c 	ldr	r0, [pc, #76]	; 30002c30 <do_flerase+0x180>
30002be0:	eb000dc7 	bl	30006304 <printf>
30002be4:	eaffffc9 	b	30002b10 <do_flerase+0x60>
30002be8:	e59d0010 	ldr	r0, [sp, #16]
30002bec:	e59d100c 	ldr	r1, [sp, #12]
30002bf0:	e1500001 	cmp	r0, r1
30002bf4:	3a000002 	bcc	30002c04 <do_flerase+0x154>
30002bf8:	e1a00007 	mov	r0, r7
30002bfc:	eb000b15 	bl	30005858 <cmd_usage>
30002c00:	eaffffc2 	b	30002b10 <do_flerase+0x60>
30002c04:	ebffff71 	bl	300029d0 <flash_sect_erase>
30002c08:	e28dd01c 	add	sp, sp, #28	; 0x1c
30002c0c:	e8bd80f0 	pop	{r4, r5, r6, r7, pc}
30002c10:	300183b7 	.word	0x300183b7
30002c14:	3001848d 	.word	0x3001848d
30002c18:	300183d7 	.word	0x300183d7
30002c1c:	3001e0ac 	.word	0x3001e0ac
30002c20:	684bda13 	.word	0x684bda13
30002c24:	300184a5 	.word	0x300184a5
30002c28:	30017342 	.word	0x30017342
30002c2c:	3001841e 	.word	0x3001841e
30002c30:	30018466 	.word	0x30018466

30002c34 <do_flinfo>:
30002c34:	e3520001 	cmp	r2, #1	; 0x1
30002c38:	e92d4010 	push	{r4, lr}
30002c3c:	e1a01002 	mov	r1, r2
30002c40:	1a000005 	bne	30002c5c <do_flinfo+0x28>
30002c44:	e59f0058 	ldr	r0, [pc, #88]	; 30002ca4 <do_flinfo+0x70>
30002c48:	eb000dad 	bl	30006304 <printf>
30002c4c:	e59f0054 	ldr	r0, [pc, #84]	; 30002ca8 <do_flinfo+0x74>
30002c50:	eb0025eb 	bl	3000c404 <flash_print_info>
30002c54:	e3a00000 	mov	r0, #0	; 0x0
30002c58:	e8bd8010 	pop	{r4, pc}
30002c5c:	e5930004 	ldr	r0, [r3, #4]
30002c60:	e3a01000 	mov	r1, #0	; 0x0
30002c64:	e3a02010 	mov	r2, #16	; 0x10
30002c68:	eb002b35 	bl	3000d944 <simple_strtoul>
30002c6c:	e3500001 	cmp	r0, #1	; 0x1
30002c70:	0a000004 	beq	30002c88 <do_flinfo+0x54>
30002c74:	e59f0030 	ldr	r0, [pc, #48]	; 30002cac <do_flinfo+0x78>
30002c78:	e3a01001 	mov	r1, #1	; 0x1
30002c7c:	eb000da0 	bl	30006304 <printf>
30002c80:	e3a00001 	mov	r0, #1	; 0x1
30002c84:	e8bd8010 	pop	{r4, pc}
30002c88:	e1a01000 	mov	r1, r0
30002c8c:	e59f0010 	ldr	r0, [pc, #16]	; 30002ca4 <do_flinfo+0x70>
30002c90:	eb000d9b 	bl	30006304 <printf>
30002c94:	e59f000c 	ldr	r0, [pc, #12]	; 30002ca8 <do_flinfo+0x74>
30002c98:	eb0025d9 	bl	3000c404 <flash_print_info>
30002c9c:	e3a00000 	mov	r0, #0	; 0x0
30002ca0:	e8bd8010 	pop	{r4, pc}
30002ca4:	300184ce 	.word	0x300184ce
30002ca8:	3001e0ac 	.word	0x3001e0ac
30002cac:	3001841e 	.word	0x3001841e

30002cb0 <evalstr>:
30002cb0:	e5d03000 	ldrb	r3, [r0]
30002cb4:	e353002a 	cmp	r3, #42	; 0x2a
30002cb8:	11a0f00e 	movne	pc, lr
30002cbc:	e2800001 	add	r0, r0, #1	; 0x1
30002cc0:	e3a01000 	mov	r1, #0	; 0x0
30002cc4:	e3a02010 	mov	r2, #16	; 0x10
30002cc8:	ea002b1d 	b	3000d944 <simple_strtoul>

30002ccc <evalexp>:
30002ccc:	e92d4010 	push	{r4, lr}
30002cd0:	e5d03000 	ldrb	r3, [r0]
30002cd4:	e353002a 	cmp	r3, #42	; 0x2a
30002cd8:	e1a04001 	mov	r4, r1
30002cdc:	1a000005 	bne	30002cf8 <evalexp+0x2c>
30002ce0:	e3a02010 	mov	r2, #16	; 0x10
30002ce4:	e2800001 	add	r0, r0, #1	; 0x1
30002ce8:	e3a01000 	mov	r1, #0	; 0x0
30002cec:	eb002b14 	bl	3000d944 <simple_strtoul>
30002cf0:	e5902000 	ldr	r2, [r0]
30002cf4:	ea000003 	b	30002d08 <evalexp+0x3c>
30002cf8:	e3a02010 	mov	r2, #16	; 0x10
30002cfc:	e3a01000 	mov	r1, #0	; 0x0
30002d00:	eb002b0f 	bl	3000d944 <simple_strtoul>
30002d04:	e1a02000 	mov	r2, r0
30002d08:	e1a03184 	lsl	r3, r4, #3
30002d0c:	e3e00000 	mvn	r0, #0	; 0x0
30002d10:	e1c20310 	bic	r0, r2, r0, lsl r3
30002d14:	e8bd8010 	pop	{r4, pc}

30002d18 <binary_test>:
30002d18:	e92d47f0 	push	{r4, r5, r6, r7, r8, r9, sl, lr}
30002d1c:	e1a0a001 	mov	sl, r1
30002d20:	e1a09002 	mov	r9, r2
30002d24:	e1a05003 	mov	r5, r3
30002d28:	e1a07000 	mov	r7, r0
30002d2c:	eb0029cc 	bl	3000d464 <strlen>
30002d30:	e59f41b4 	ldr	r4, [pc, #436]	; 30002eec <binary_test+0x1d4>
30002d34:	e1a06000 	mov	r6, r0
30002d38:	ea000061 	b	30002ec4 <binary_test+0x1ac>
30002d3c:	e5941000 	ldr	r1, [r4]
30002d40:	eb0029a8 	bl	3000d3e8 <strncmp>
30002d44:	e3500000 	cmp	r0, #0	; 0x0
30002d48:	1a00005c 	bne	30002ec0 <binary_test+0x1a8>
30002d4c:	e5940000 	ldr	r0, [r4]
30002d50:	eb0029c3 	bl	3000d464 <strlen>
30002d54:	e1560000 	cmp	r6, r0
30002d58:	1a000058 	bne	30002ec0 <binary_test+0x1a8>
30002d5c:	e3550000 	cmp	r5, #0	; 0x0
30002d60:	e5947004 	ldr	r7, [r4, #4]
30002d64:	1a00002c 	bne	30002e1c <binary_test+0x104>
30002d68:	e1a0000a 	mov	r0, sl
30002d6c:	ebffffcf 	bl	30002cb0 <evalstr>
30002d70:	e1a06000 	mov	r6, r0
30002d74:	e1a00009 	mov	r0, r9
30002d78:	ebffffcc 	bl	30002cb0 <evalstr>
30002d7c:	e1a05000 	mov	r5, r0
30002d80:	e1a00006 	mov	r0, r6
30002d84:	eb0029b6 	bl	3000d464 <strlen>
30002d88:	e1a04000 	mov	r4, r0
30002d8c:	e1a00005 	mov	r0, r5
30002d90:	eb0029b3 	bl	3000d464 <strlen>
30002d94:	e1a01005 	mov	r1, r5
30002d98:	e1500004 	cmp	r0, r4
30002d9c:	31a02000 	movcc	r2, r0
30002da0:	21a02004 	movcs	r2, r4
30002da4:	e1a00006 	mov	r0, r6
30002da8:	eb00298e 	bl	3000d3e8 <strncmp>
30002dac:	e3570005 	cmp	r7, #5	; 0x5
30002db0:	979ff107 	ldrls	pc, [pc, r7, lsl #2]
30002db4:	ea000028 	b	30002e5c <binary_test+0x144>
30002db8:	30002dd0 	.word	0x30002dd0
30002dbc:	30002ddc 	.word	0x30002ddc
30002dc0:	30002de8 	.word	0x30002de8
30002dc4:	30002df0 	.word	0x30002df0
30002dc8:	30002e00 	.word	0x30002e00
30002dcc:	30002e10 	.word	0x30002e10
30002dd0:	e2700001 	rsbs	r0, r0, #1	; 0x1
30002dd4:	33a00000 	movcc	r0, #0	; 0x0
30002dd8:	e8bd87f0 	pop	{r4, r5, r6, r7, r8, r9, sl, pc}
30002ddc:	e2500000 	subs	r0, r0, #0	; 0x0
30002de0:	13a00001 	movne	r0, #1	; 0x1
30002de4:	e8bd87f0 	pop	{r4, r5, r6, r7, r8, r9, sl, pc}
30002de8:	e1a00fa0 	lsr	r0, r0, #31
30002dec:	e8bd87f0 	pop	{r4, r5, r6, r7, r8, r9, sl, pc}
30002df0:	e3500000 	cmp	r0, #0	; 0x0
30002df4:	d3a00000 	movle	r0, #0	; 0x0
30002df8:	c3a00001 	movgt	r0, #1	; 0x1
30002dfc:	e8bd87f0 	pop	{r4, r5, r6, r7, r8, r9, sl, pc}
30002e00:	e3500000 	cmp	r0, #0	; 0x0
30002e04:	c3a00000 	movgt	r0, #0	; 0x0
30002e08:	d3a00001 	movle	r0, #1	; 0x1
30002e0c:	e8bd87f0 	pop	{r4, r5, r6, r7, r8, r9, sl, pc}
30002e10:	e1e00000 	mvn	r0, r0
30002e14:	e1a00fa0 	lsr	r0, r0, #31
30002e18:	e8bd87f0 	pop	{r4, r5, r6, r7, r8, r9, sl, pc}
30002e1c:	e1a01005 	mov	r1, r5
30002e20:	e1a0000a 	mov	r0, sl
30002e24:	ebffffa8 	bl	30002ccc <evalexp>
30002e28:	e1a01005 	mov	r1, r5
30002e2c:	e1a04000 	mov	r4, r0
30002e30:	e1a00009 	mov	r0, r9
30002e34:	ebffffa4 	bl	30002ccc <evalexp>
30002e38:	e3570005 	cmp	r7, #5	; 0x5
30002e3c:	979ff107 	ldrls	pc, [pc, r7, lsl #2]
30002e40:	ea000005 	b	30002e5c <binary_test+0x144>
30002e44:	30002e64 	.word	0x30002e64
30002e48:	30002e74 	.word	0x30002e74
30002e4c:	30002e80 	.word	0x30002e80
30002e50:	30002e90 	.word	0x30002e90
30002e54:	30002ea0 	.word	0x30002ea0
30002e58:	30002eb0 	.word	0x30002eb0
30002e5c:	e3a00000 	mov	r0, #0	; 0x0
30002e60:	e8bd87f0 	pop	{r4, r5, r6, r7, r8, r9, sl, pc}
30002e64:	e1540000 	cmp	r4, r0
30002e68:	13a00000 	movne	r0, #0	; 0x0
30002e6c:	03a00001 	moveq	r0, #1	; 0x1
30002e70:	e8bd87f0 	pop	{r4, r5, r6, r7, r8, r9, sl, pc}
30002e74:	e0540000 	subs	r0, r4, r0
30002e78:	13a00001 	movne	r0, #1	; 0x1
30002e7c:	e8bd87f0 	pop	{r4, r5, r6, r7, r8, r9, sl, pc}
30002e80:	e1540000 	cmp	r4, r0
30002e84:	a3a00000 	movge	r0, #0	; 0x0
30002e88:	b3a00001 	movlt	r0, #1	; 0x1
30002e8c:	e8bd87f0 	pop	{r4, r5, r6, r7, r8, r9, sl, pc}
30002e90:	e1540000 	cmp	r4, r0
30002e94:	d3a00000 	movle	r0, #0	; 0x0
30002e98:	c3a00001 	movgt	r0, #1	; 0x1
30002e9c:	e8bd87f0 	pop	{r4, r5, r6, r7, r8, r9, sl, pc}
30002ea0:	e1540000 	cmp	r4, r0
30002ea4:	c3a00000 	movgt	r0, #0	; 0x0
30002ea8:	d3a00001 	movle	r0, #1	; 0x1
30002eac:	e8bd87f0 	pop	{r4, r5, r6, r7, r8, r9, sl, pc}
30002eb0:	e1540000 	cmp	r4, r0
30002eb4:	b3a00000 	movlt	r0, #0	; 0x0
30002eb8:	a3a00001 	movge	r0, #1	; 0x1
30002ebc:	e8bd87f0 	pop	{r4, r5, r6, r7, r8, r9, sl, pc}
30002ec0:	e2844008 	add	r4, r4, #8	; 0x8
30002ec4:	e59f3024 	ldr	r3, [pc, #36]	; 30002ef0 <binary_test+0x1d8>
30002ec8:	e1540003 	cmp	r4, r3
30002ecc:	e1a02006 	mov	r2, r6
30002ed0:	e1a00007 	mov	r0, r7
30002ed4:	1affff98 	bne	30002d3c <binary_test+0x24>
30002ed8:	e1a01007 	mov	r1, r7
30002edc:	e59f0010 	ldr	r0, [pc, #16]	; 30002ef4 <binary_test+0x1dc>
30002ee0:	eb000d07 	bl	30006304 <printf>
30002ee4:	e3a00000 	mov	r0, #0	; 0x0
30002ee8:	e8bd87f0 	pop	{r4, r5, r6, r7, r8, r9, sl, pc}
30002eec:	3001b398 	.word	0x3001b398
30002ef0:	3001b400 	.word	0x3001b400
30002ef4:	30018992 	.word	0x30018992

30002ef8 <do_itest>:
30002ef8:	e3520004 	cmp	r2, #4	; 0x4
30002efc:	e92d4010 	push	{r4, lr}
30002f00:	e1a01002 	mov	r1, r2
30002f04:	e1a04003 	mov	r4, r3
30002f08:	0a000002 	beq	30002f18 <do_itest+0x20>
30002f0c:	eb000a51 	bl	30005858 <cmd_usage>
30002f10:	e3a00001 	mov	r0, #1	; 0x1
30002f14:	e8bd8010 	pop	{r4, pc}
30002f18:	e5930000 	ldr	r0, [r3]
30002f1c:	eb000a27 	bl	300057c0 <cmd_get_data_size>
30002f20:	e2803002 	add	r3, r0, #2	; 0x2
30002f24:	e3530006 	cmp	r3, #6	; 0x6
30002f28:	979ff103 	ldrls	pc, [pc, r3, lsl #2]
30002f2c:	ea000011 	b	30002f78 <do_itest+0x80>
30002f30:	30002f60 	.word	0x30002f60
30002f34:	30002f78 	.word	0x30002f78
30002f38:	30002f78 	.word	0x30002f78
30002f3c:	30002f4c 	.word	0x30002f4c
30002f40:	30002f4c 	.word	0x30002f4c
30002f44:	30002f78 	.word	0x30002f78
30002f48:	30002f4c 	.word	0x30002f4c
30002f4c:	e1a03000 	mov	r3, r0
30002f50:	e2840008 	add	r0, r4, #8	; 0x8
30002f54:	e8900005 	ldm	r0, {r0, r2}
30002f58:	e5941004 	ldr	r1, [r4, #4]
30002f5c:	ea000003 	b	30002f70 <do_itest+0x78>
30002f60:	e2840008 	add	r0, r4, #8	; 0x8
30002f64:	e8900005 	ldm	r0, {r0, r2}
30002f68:	e5941004 	ldr	r1, [r4, #4]
30002f6c:	e3a03000 	mov	r3, #0	; 0x0
30002f70:	ebffff68 	bl	30002d18 <binary_test>
30002f74:	ea000002 	b	30002f84 <do_itest+0x8c>
30002f78:	e59f0010 	ldr	r0, [pc, #16]	; 30002f90 <do_itest+0x98>
30002f7c:	eb000cce 	bl	300062bc <puts>
30002f80:	e3a00000 	mov	r0, #0	; 0x0
30002f84:	e2700001 	rsbs	r0, r0, #1	; 0x1
30002f88:	33a00000 	movcc	r0, #0	; 0x0
30002f8c:	e8bd8010 	pop	{r4, pc}
30002f90:	300189a9 	.word	0x300189a9

30002f94 <ktrans>:
30002f94:	e2003060 	and	r3, r0, #96	; 0x60
30002f98:	e3530040 	cmp	r3, #64	; 0x40
30002f9c:	020000bf 	andeq	r0, r0, #191	; 0xbf
30002fa0:	01a0f00e 	moveq	pc, lr
30002fa4:	e200307f 	and	r3, r0, #127	; 0x7f
30002fa8:	e353003f 	cmp	r3, #63	; 0x3f
30002fac:	03800040 	orreq	r0, r0, #64	; 0x40
30002fb0:	e1a0f00e 	mov	pc, lr

30002fb4 <chk1>:
30002fb4:	e3a02000 	mov	r2, #0	; 0x0
30002fb8:	e1a03002 	mov	r3, r2
30002fbc:	ea000000 	b	30002fc4 <chk1+0x10>
30002fc0:	e0822001 	add	r2, r2, r1
30002fc4:	e7d01003 	ldrb	r1, [r0, r3]
30002fc8:	e3510000 	cmp	r1, #0	; 0x0
30002fcc:	e2833001 	add	r3, r3, #1	; 0x1
30002fd0:	1afffffa 	bne	30002fc0 <chk1+0xc>
30002fd4:	e1a00c02 	lsl	r0, r2, #24
30002fd8:	e0820f20 	add	r0, r2, r0, lsr #30
30002fdc:	e200003f 	and	r0, r0, #63	; 0x3f
30002fe0:	e1a0f00e 	mov	pc, lr

30002fe4 <bin_data_init>:
30002fe4:	e59f3010 	ldr	r3, [pc, #16]	; 30002ffc <bin_data_init+0x18>
30002fe8:	e5932008 	ldr	r2, [r3, #8]
30002fec:	e5832004 	str	r2, [r3, #4]
30002ff0:	e3a02000 	mov	r2, #0	; 0x0
30002ff4:	e5832000 	str	r2, [r3]
30002ff8:	e1a0f00e 	mov	pc, lr
30002ffc:	3001c3b0 	.word	0x3001c3b0

30003000 <bin_data_char>:
30003000:	e59f2014 	ldr	r2, [pc, #20]	; 3000301c <bin_data_char+0x1c>
30003004:	e5923000 	ldr	r3, [r2]
30003008:	e3530000 	cmp	r3, #0	; 0x0
3000300c:	05923004 	ldreq	r3, [r2, #4]
30003010:	04c30001 	strbeq	r0, [r3], #1
30003014:	05823004 	streq	r3, [r2, #4]
30003018:	e1a0f00e 	mov	pc, lr
3000301c:	3001c3b0 	.word	0x3001c3b0

30003020 <k_data_init>:
30003020:	e59f2014 	ldr	r2, [pc, #20]	; 3000303c <k_data_init+0x1c>
30003024:	e3a03000 	mov	r3, #0	; 0x0
30003028:	e92d4010 	push	{r4, lr}
3000302c:	e582300c 	str	r3, [r2, #12]
30003030:	e1a0e00f 	mov	lr, pc
30003034:	e592f010 	ldr	pc, [r2, #16]
30003038:	e8bd8010 	pop	{r4, pc}
3000303c:	3001c3b0 	.word	0x3001c3b0

30003040 <k_data_save>:
30003040:	e59f3014 	ldr	r3, [pc, #20]	; 3000305c <k_data_save+0x1c>
30003044:	e593100c 	ldr	r1, [r3, #12]
30003048:	e8930005 	ldm	r3, {r0, r2}
3000304c:	e5831014 	str	r1, [r3, #20]
30003050:	e583201c 	str	r2, [r3, #28]
30003054:	e5830018 	str	r0, [r3, #24]
30003058:	e1a0f00e 	mov	pc, lr
3000305c:	3001c3b0 	.word	0x3001c3b0

30003060 <k_data_restore>:
30003060:	e59f3014 	ldr	r3, [pc, #20]	; 3000307c <k_data_restore+0x1c>
30003064:	e5931014 	ldr	r1, [r3, #20]
30003068:	e2830018 	add	r0, r3, #24	; 0x18
3000306c:	e8900005 	ldm	r0, {r0, r2}
30003070:	e583100c 	str	r1, [r3, #12]
30003074:	e8830005 	stm	r3, {r0, r2}
30003078:	e1a0f00e 	mov	pc, lr
3000307c:	3001c3b0 	.word	0x3001c3b0

30003080 <k_data_char>:
30003080:	e92d4010 	push	{r4, lr}
30003084:	e59f4040 	ldr	r4, [pc, #64]	; 300030cc <k_data_char+0x4c>
30003088:	e594300c 	ldr	r3, [r4, #12]
3000308c:	e3530000 	cmp	r3, #0	; 0x0
30003090:	0a000004 	beq	300030a8 <k_data_char+0x28>
30003094:	ebffffbe 	bl	30002f94 <ktrans>
30003098:	e1a0e00f 	mov	lr, pc
3000309c:	e594f020 	ldr	pc, [r4, #32]
300030a0:	e3a03000 	mov	r3, #0	; 0x0
300030a4:	ea000003 	b	300030b8 <k_data_char+0x38>
300030a8:	e5d43024 	ldrb	r3, [r4, #36]
300030ac:	e1530000 	cmp	r3, r0
300030b0:	1a000002 	bne	300030c0 <k_data_char+0x40>
300030b4:	e3a03001 	mov	r3, #1	; 0x1
300030b8:	e584300c 	str	r3, [r4, #12]
300030bc:	e8bd8010 	pop	{r4, pc}
300030c0:	e1a0e00f 	mov	lr, pc
300030c4:	e594f020 	ldr	pc, [r4, #32]
300030c8:	e8bd8010 	pop	{r4, pc}
300030cc:	3001c3b0 	.word	0x3001c3b0

300030d0 <send_pad>:
300030d0:	e59f3024 	ldr	r3, [pc, #36]	; 300030fc <send_pad+0x2c>
300030d4:	e92d4010 	push	{r4, lr}
300030d8:	e5934028 	ldr	r4, [r3, #40]
300030dc:	ea000002 	b	300030ec <send_pad+0x1c>
300030e0:	e59f3014 	ldr	r3, [pc, #20]	; 300030fc <send_pad+0x2c>
300030e4:	e5d3002c 	ldrb	r0, [r3, #44]
300030e8:	eb000d0c 	bl	30006520 <putc>
300030ec:	e3540000 	cmp	r4, #0	; 0x0
300030f0:	e2444001 	sub	r4, r4, #1	; 0x1
300030f4:	cafffff9 	bgt	300030e0 <send_pad+0x10>
300030f8:	e8bd8010 	pop	{r4, pc}
300030fc:	3001c3b0 	.word	0x3001c3b0

30003100 <s1_sendpacket>:
30003100:	e92d4070 	push	{r4, r5, r6, lr}
30003104:	e1a05000 	mov	r5, r0
30003108:	e3a04000 	mov	r4, #0	; 0x0
3000310c:	ebffffef 	bl	300030d0 <send_pad>
30003110:	ea000000 	b	30003118 <s1_sendpacket+0x18>
30003114:	eb000d01 	bl	30006520 <putc>
30003118:	e7d53004 	ldrb	r3, [r5, r4]
3000311c:	e2530000 	subs	r0, r3, #0	; 0x0
30003120:	e2844001 	add	r4, r4, #1	; 0x1
30003124:	1afffffa 	bne	30003114 <s1_sendpacket+0x14>
30003128:	e8bd8070 	pop	{r4, r5, r6, pc}

3000312c <handle_send_packet>:
3000312c:	e59f11b8 	ldr	r1, [pc, #440]	; 300032ec <handle_send_packet+0x1c0>
30003130:	e5912030 	ldr	r2, [r1, #48]
30003134:	e2813047 	add	r3, r1, #71	; 0x47
30003138:	e1520003 	cmp	r2, r3
3000313c:	e3a0300d 	mov	r3, #13	; 0xd
30003140:	e92d41f0 	push	{r4, r5, r6, r7, r8, lr}
30003144:	e5c1302d 	strb	r3, [r1, #45]
30003148:	e2833016 	add	r3, r3, #22	; 0x16
3000314c:	e5c13024 	strb	r3, [r1, #36]
30003150:	02813046 	addeq	r3, r1, #70	; 0x46
30003154:	05813030 	streq	r3, [r1, #48]
30003158:	e59f518c 	ldr	r5, [pc, #396]	; 300032ec <handle_send_packet+0x1c0>
3000315c:	e3a02000 	mov	r2, #0	; 0x0
30003160:	e5c1202c 	strb	r2, [r1, #44]
30003164:	e5812028 	str	r2, [r1, #40]
30003168:	e5952030 	ldr	r2, [r5, #48]
3000316c:	e2853034 	add	r3, r5, #52	; 0x34
30003170:	e0632002 	rsb	r2, r3, r2
30003174:	e3520000 	cmp	r2, #0	; 0x0
30003178:	e1a06000 	mov	r6, r0
3000317c:	d3a02003 	movle	r2, #3	; 0x3
30003180:	da000040 	ble	30003288 <handle_send_packet+0x15c>
30003184:	e2522001 	subs	r2, r2, #1	; 0x1
30003188:	e3a0307e 	mov	r3, #126	; 0x7e
3000318c:	e5c5304c 	strb	r3, [r5, #76]
30003190:	03a02004 	moveq	r2, #4	; 0x4
30003194:	0a00003b 	beq	30003288 <handle_send_packet+0x15c>
30003198:	e2522001 	subs	r2, r2, #1	; 0x1
3000319c:	e3a03021 	mov	r3, #33	; 0x21
300031a0:	e5c5304d 	strb	r3, [r5, #77]
300031a4:	03a02005 	moveq	r2, #5	; 0x5
300031a8:	0a000036 	beq	30003288 <handle_send_packet+0x15c>
300031ac:	e5d53036 	ldrb	r3, [r5, #54]
300031b0:	e2433020 	sub	r3, r3, #32	; 0x20
300031b4:	e20330ff 	and	r3, r3, #255	; 0xff
300031b8:	e2522001 	subs	r2, r2, #1	; 0x1
300031bc:	e5853028 	str	r3, [r5, #40]
300031c0:	e3a03020 	mov	r3, #32	; 0x20
300031c4:	e5c5304e 	strb	r3, [r5, #78]
300031c8:	03a02006 	moveq	r2, #6	; 0x6
300031cc:	0a00002d 	beq	30003288 <handle_send_packet+0x15c>
300031d0:	e5d50037 	ldrb	r0, [r5, #55]
300031d4:	e2424001 	sub	r4, r2, #1	; 0x1
300031d8:	ebffff6d 	bl	30002f94 <ktrans>
300031dc:	e3540000 	cmp	r4, #0	; 0x0
300031e0:	e3a03040 	mov	r3, #64	; 0x40
300031e4:	e5c5002c 	strb	r0, [r5, #44]
300031e8:	e5c5304f 	strb	r3, [r5, #79]
300031ec:	03a02007 	moveq	r2, #7	; 0x7
300031f0:	0a000024 	beq	30003288 <handle_send_packet+0x15c>
300031f4:	e5d53038 	ldrb	r3, [r5, #56]
300031f8:	e2433020 	sub	r3, r3, #32	; 0x20
300031fc:	e2542001 	subs	r2, r4, #1	; 0x1
30003200:	e5c5302d 	strb	r3, [r5, #45]
30003204:	e3a0302d 	mov	r3, #45	; 0x2d
30003208:	e5c53050 	strb	r3, [r5, #80]
3000320c:	03a02008 	moveq	r2, #8	; 0x8
30003210:	0a00001c 	beq	30003288 <handle_send_packet+0x15c>
30003214:	e5d53039 	ldrb	r3, [r5, #57]
30003218:	e2522001 	subs	r2, r2, #1	; 0x1
3000321c:	e5c53024 	strb	r3, [r5, #36]
30003220:	e3a03023 	mov	r3, #35	; 0x23
30003224:	e5c53051 	strb	r3, [r5, #81]
30003228:	03a02009 	moveq	r2, #9	; 0x9
3000322c:	0a000015 	beq	30003288 <handle_send_packet+0x15c>
30003230:	e2523001 	subs	r3, r2, #1	; 0x1
30003234:	e3a0104e 	mov	r1, #78	; 0x4e
30003238:	e5c51052 	strb	r1, [r5, #82]
3000323c:	03a0200a 	moveq	r2, #10	; 0xa
30003240:	0a000010 	beq	30003288 <handle_send_packet+0x15c>
30003244:	e2532001 	subs	r2, r3, #1	; 0x1
30003248:	e3a03031 	mov	r3, #49	; 0x31
3000324c:	e5c53053 	strb	r3, [r5, #83]
30003250:	03a0200b 	moveq	r2, #11	; 0xb
30003254:	0a00000b 	beq	30003288 <handle_send_packet+0x15c>
30003258:	e3520001 	cmp	r2, #1	; 0x1
3000325c:	159f2088 	ldrne	r2, [pc, #136]	; 300032ec <handle_send_packet+0x1c0>
30003260:	13a03022 	movne	r3, #34	; 0x22
30003264:	15c23055 	strbne	r3, [r2, #85]
30003268:	e5c51054 	strb	r1, [r5, #84]
3000326c:	13a03020 	movne	r3, #32	; 0x20
30003270:	13a0107e 	movne	r1, #126	; 0x7e
30003274:	15c21058 	strbne	r1, [r2, #88]
30003278:	15c23056 	strbne	r3, [r2, #86]
3000327c:	15c21057 	strbne	r1, [r2, #87]
30003280:	0282200b 	addeq	r2, r2, #11	; 0xb
30003284:	13a02010 	movne	r2, #16	; 0x10
30003288:	e59f405c 	ldr	r4, [pc, #92]	; 300032ec <handle_send_packet+0x1c0>
3000328c:	e2825001 	add	r5, r2, #1	; 0x1
30003290:	e3a03001 	mov	r3, #1	; 0x1
30003294:	e2861020 	add	r1, r6, #32	; 0x20
30003298:	e5c43048 	strb	r3, [r4, #72]
3000329c:	e0846005 	add	r6, r4, r5
300032a0:	e2822020 	add	r2, r2, #32	; 0x20
300032a4:	e3a07000 	mov	r7, #0	; 0x0
300032a8:	e2833058 	add	r3, r3, #88	; 0x58
300032ac:	e5c42049 	strb	r2, [r4, #73]
300032b0:	e5c4304b 	strb	r3, [r4, #75]
300032b4:	e5c4104a 	strb	r1, [r4, #74]
300032b8:	e2840049 	add	r0, r4, #73	; 0x49
300032bc:	e5c67048 	strb	r7, [r6, #72]
300032c0:	ebffff3b 	bl	30002fb4 <chk1>
300032c4:	e2855001 	add	r5, r5, #1	; 0x1
300032c8:	e5d4202d 	ldrb	r2, [r4, #45]
300032cc:	e2803020 	add	r3, r0, #32	; 0x20
300032d0:	e0845005 	add	r5, r4, r5
300032d4:	e2840048 	add	r0, r4, #72	; 0x48
300032d8:	e5c63048 	strb	r3, [r6, #72]
300032dc:	e5c57049 	strb	r7, [r5, #73]
300032e0:	e5c52048 	strb	r2, [r5, #72]
300032e4:	e8bd41f0 	pop	{r4, r5, r6, r7, r8, lr}
300032e8:	eaffff84 	b	30003100 <s1_sendpacket>
300032ec:	3001c3b0 	.word	0x3001c3b0

300032f0 <send_nack>:
300032f0:	e92d4070 	push	{r4, r5, r6, lr}
300032f4:	e59f404c 	ldr	r4, [pc, #76]	; 30003348 <send_nack+0x58>
300032f8:	e3a03001 	mov	r3, #1	; 0x1
300032fc:	e5c43048 	strb	r3, [r4, #72]
30003300:	e2833022 	add	r3, r3, #34	; 0x22
30003304:	e2802020 	add	r2, r0, #32	; 0x20
30003308:	e3a05000 	mov	r5, #0	; 0x0
3000330c:	e5c43049 	strb	r3, [r4, #73]
30003310:	e2840049 	add	r0, r4, #73	; 0x49
30003314:	e283302b 	add	r3, r3, #43	; 0x2b
30003318:	e5c4204a 	strb	r2, [r4, #74]
3000331c:	e5c4304b 	strb	r3, [r4, #75]
30003320:	e5c4504c 	strb	r5, [r4, #76]
30003324:	ebffff22 	bl	30002fb4 <chk1>
30003328:	e5d4202d 	ldrb	r2, [r4, #45]
3000332c:	e2803020 	add	r3, r0, #32	; 0x20
30003330:	e59f0014 	ldr	r0, [pc, #20]	; 3000334c <send_nack+0x5c>
30003334:	e5c4504e 	strb	r5, [r4, #78]
30003338:	e5c4304c 	strb	r3, [r4, #76]
3000333c:	e5c4204d 	strb	r2, [r4, #77]
30003340:	e8bd4070 	pop	{r4, r5, r6, lr}
30003344:	eaffff6d 	b	30003100 <s1_sendpacket>
30003348:	3001c3b0 	.word	0x3001c3b0
3000334c:	3001c3f8 	.word	0x3001c3f8

30003350 <send_ack>:
30003350:	e92d4070 	push	{r4, r5, r6, lr}
30003354:	e59f404c 	ldr	r4, [pc, #76]	; 300033a8 <send_ack+0x58>
30003358:	e3a03001 	mov	r3, #1	; 0x1
3000335c:	e5c43048 	strb	r3, [r4, #72]
30003360:	e2833022 	add	r3, r3, #34	; 0x22
30003364:	e2802020 	add	r2, r0, #32	; 0x20
30003368:	e3a05000 	mov	r5, #0	; 0x0
3000336c:	e5c43049 	strb	r3, [r4, #73]
30003370:	e2840049 	add	r0, r4, #73	; 0x49
30003374:	e2833036 	add	r3, r3, #54	; 0x36
30003378:	e5c4204a 	strb	r2, [r4, #74]
3000337c:	e5c4304b 	strb	r3, [r4, #75]
30003380:	e5c4504c 	strb	r5, [r4, #76]
30003384:	ebffff0a 	bl	30002fb4 <chk1>
30003388:	e5d4202d 	ldrb	r2, [r4, #45]
3000338c:	e2803020 	add	r3, r0, #32	; 0x20
30003390:	e59f0014 	ldr	r0, [pc, #20]	; 300033ac <send_ack+0x5c>
30003394:	e5c4504e 	strb	r5, [r4, #78]
30003398:	e5c4304c 	strb	r3, [r4, #76]
3000339c:	e5c4204d 	strb	r2, [r4, #77]
300033a0:	e8bd4070 	pop	{r4, r5, r6, lr}
300033a4:	eaffff55 	b	30003100 <s1_sendpacket>
300033a8:	3001c3b0 	.word	0x3001c3b0
300033ac:	3001c3f8 	.word	0x3001c3f8

300033b0 <load_serial_ymodem>:
300033b0:	e92d46f0 	push	{r4, r5, r6, r7, r9, sl, lr}
300033b4:	e24dde43 	sub	sp, sp, #1072	; 0x430
300033b8:	e24dd004 	sub	sp, sp, #4	; 0x4
300033bc:	e28d1e42 	add	r1, sp, #1056	; 0x420
300033c0:	e3a03002 	mov	r3, #2	; 0x2
300033c4:	e1a09000 	mov	r9, r0
300033c8:	e281100c 	add	r1, r1, #12	; 0xc
300033cc:	e28d0e42 	add	r0, sp, #1056	; 0x420
300033d0:	e58d3424 	str	r3, [sp, #1060]
300033d4:	eb0022ca 	bl	3000bf04 <xyzModem_stream_open>
300033d8:	e3500000 	cmp	r0, #0	; 0x0
300033dc:	01a05000 	moveq	r5, r0
300033e0:	01a07005 	moveq	r7, r5
300033e4:	0a000011 	beq	30003430 <load_serial_ymodem+0x80>
300033e8:	ea00001c 	b	30003460 <load_serial_ymodem+0xb0>
300033ec:	eb001171 	bl	300079b8 <addr2info>
300033f0:	e3500000 	cmp	r0, #0	; 0x0
300033f4:	e1a01006 	mov	r1, r6
300033f8:	e1a02004 	mov	r2, r4
300033fc:	e1a0000d 	mov	r0, sp
30003400:	e0855004 	add	r5, r5, r4
30003404:	0a000005 	beq	30003420 <load_serial_ymodem+0x70>
30003408:	eb0011b4 	bl	30007ae0 <flash_write>
3000340c:	e3500000 	cmp	r0, #0	; 0x0
30003410:	0a000006 	beq	30003430 <load_serial_ymodem+0x80>
30003414:	eb001179 	bl	30007a00 <flash_perror>
30003418:	e3e09000 	mvn	r9, #0	; 0x0
3000341c:	ea00002a 	b	300034cc <load_serial_ymodem+0x11c>
30003420:	e1a00006 	mov	r0, r6
30003424:	e1a0100d 	mov	r1, sp
30003428:	e1a02004 	mov	r2, r4
3000342c:	eb0028b7 	bl	3000d710 <memcpy>
30003430:	e28d2e42 	add	r2, sp, #1056	; 0x420
30003434:	e3a01b01 	mov	r1, #1024	; 0x400
30003438:	e282200c 	add	r2, r2, #12	; 0xc
3000343c:	e1a0000d 	mov	r0, sp
30003440:	eb00220c 	bl	3000bc78 <xyzModem_stream_read>
30003444:	e0876009 	add	r6, r7, r9
30003448:	e2504000 	subs	r4, r0, #0	; 0x0
3000344c:	e1a0a00d 	mov	sl, sp
30003450:	e1a00006 	mov	r0, r6
30003454:	e0877004 	add	r7, r7, r4
30003458:	caffffe3 	bgt	300033ec <load_serial_ymodem+0x3c>
3000345c:	ea000005 	b	30003478 <load_serial_ymodem+0xc8>
30003460:	e59d042c 	ldr	r0, [sp, #1068]
30003464:	eb0020d1 	bl	3000b7b0 <xyzModem_error>
30003468:	e1a01000 	mov	r1, r0
3000346c:	e59f0068 	ldr	r0, [pc, #104]	; 300034dc <load_serial_ymodem+0x12c>
30003470:	eb000ba3 	bl	30006304 <printf>
30003474:	e3a05000 	mov	r5, #0	; 0x0
30003478:	e28d0e42 	add	r0, sp, #1056	; 0x420
3000347c:	e280000c 	add	r0, r0, #12	; 0xc
30003480:	eb0020f1 	bl	3000b84c <xyzModem_stream_close>
30003484:	e3a00000 	mov	r0, #0	; 0x0
30003488:	e59f1050 	ldr	r1, [pc, #80]	; 300034e0 <load_serial_ymodem+0x130>
3000348c:	eb002122 	bl	3000b91c <xyzModem_stream_terminate>
30003490:	e1a00009 	mov	r0, r9
30003494:	e1a01005 	mov	r1, r5
30003498:	eb00377d 	bl	30011294 <flush_cache>
3000349c:	e28d4b01 	add	r4, sp, #1024	; 0x400
300034a0:	e59f003c 	ldr	r0, [pc, #60]	; 300034e4 <load_serial_ymodem+0x134>
300034a4:	e1a01005 	mov	r1, r5
300034a8:	e1a02005 	mov	r2, r5
300034ac:	eb000b94 	bl	30006304 <printf>
300034b0:	e59f1030 	ldr	r1, [pc, #48]	; 300034e8 <load_serial_ymodem+0x138>
300034b4:	e1a02005 	mov	r2, r5
300034b8:	e1a00004 	mov	r0, r4
300034bc:	eb002c3f 	bl	3000e5c0 <sprintf>
300034c0:	e1a01004 	mov	r1, r4
300034c4:	e59f0020 	ldr	r0, [pc, #32]	; 300034ec <load_serial_ymodem+0x13c>
300034c8:	eb00073c 	bl	300051c0 <setenv>
300034cc:	e1a00009 	mov	r0, r9
300034d0:	e28dd034 	add	sp, sp, #52	; 0x34
300034d4:	e28ddb01 	add	sp, sp, #1024	; 0x400
300034d8:	e8bd86f0 	pop	{r4, r5, r6, r7, r9, sl, pc}
300034dc:	30019b5d 	.word	0x30019b5d
300034e0:	300034f0 	.word	0x300034f0
300034e4:	30018a45 	.word	0x30018a45
300034e8:	30018a6d 	.word	0x30018a6d
300034ec:	30017906 	.word	0x30017906

300034f0 <getcxmodem>:
300034f0:	e92d4010 	push	{r4, lr}
300034f4:	eb000c10 	bl	3000653c <tstc>
300034f8:	e3500000 	cmp	r0, #0	; 0x0
300034fc:	1a000001 	bne	30003508 <getcxmodem+0x18>
30003500:	e3e00000 	mvn	r0, #0	; 0x0
30003504:	e8bd8010 	pop	{r4, pc}
30003508:	e8bd4010 	pop	{r4, lr}
3000350c:	ea000c10 	b	30006554 <getc>

30003510 <do_load_serial_bin>:
30003510:	e92d4ef0 	push	{r4, r5, r6, r7, r9, sl, fp, lr}
30003514:	e59f0410 	ldr	r0, [pc, #1040]	; 3000392c <do_load_serial_bin+0x41c>
30003518:	e24dd028 	sub	sp, sp, #40	; 0x28
3000351c:	e1a05002 	mov	r5, r2
30003520:	e1a04003 	mov	r4, r3
30003524:	eb000591 	bl	30004b70 <getenv>
30003528:	e3500000 	cmp	r0, #0	; 0x0
3000352c:	03a0a433 	moveq	sl, #855638016	; 0x33000000
30003530:	0a000003 	beq	30003544 <do_load_serial_bin+0x34>
30003534:	e3a01000 	mov	r1, #0	; 0x0
30003538:	e3a02010 	mov	r2, #16	; 0x10
3000353c:	eb002900 	bl	3000d944 <simple_strtoul>
30003540:	e1a0a000 	mov	sl, r0
30003544:	e5983008 	ldr	r3, [r8, #8]
30003548:	e3550001 	cmp	r5, #1	; 0x1
3000354c:	e58d3000 	str	r3, [sp]
30003550:	da0000ee 	ble	30003910 <do_load_serial_bin+0x400>
30003554:	e5940004 	ldr	r0, [r4, #4]
30003558:	e3a01000 	mov	r1, #0	; 0x0
3000355c:	e3a02010 	mov	r2, #16	; 0x10
30003560:	eb0028f7 	bl	3000d944 <simple_strtoul>
30003564:	e3550003 	cmp	r5, #3	; 0x3
30003568:	e1a0a000 	mov	sl, r0
3000356c:	1a0000e7 	bne	30003910 <do_load_serial_bin+0x400>
30003570:	e5940008 	ldr	r0, [r4, #8]
30003574:	e3a01000 	mov	r1, #0	; 0x0
30003578:	e3a0200a 	mov	r2, #10	; 0xa
3000357c:	eb0028f0 	bl	3000d944 <simple_strtoul>
30003580:	e3500000 	cmp	r0, #0	; 0x0
30003584:	e58d0004 	str	r0, [sp, #4]
30003588:	0a0000e0 	beq	30003910 <do_load_serial_bin+0x400>
3000358c:	e59d2000 	ldr	r2, [sp]
30003590:	e1500002 	cmp	r0, r2
30003594:	0a00000c 	beq	300035cc <do_load_serial_bin+0xbc>
30003598:	e1a01000 	mov	r1, r0
3000359c:	e59f038c 	ldr	r0, [pc, #908]	; 30003930 <do_load_serial_bin+0x420>
300035a0:	eb000b57 	bl	30006304 <printf>
300035a4:	e59f0388 	ldr	r0, [pc, #904]	; 30003934 <do_load_serial_bin+0x424>
300035a8:	eb003688 	bl	30010fd0 <udelay>
300035ac:	e59d2004 	ldr	r2, [sp, #4]
300035b0:	e5882008 	str	r2, [r8, #8]
300035b4:	ebfff4aa 	bl	30000864 <serial_setbrg>
300035b8:	e59f0374 	ldr	r0, [pc, #884]	; 30003934 <do_load_serial_bin+0x424>
300035bc:	eb003683 	bl	30010fd0 <udelay>
300035c0:	eb000be3 	bl	30006554 <getc>
300035c4:	e350000d 	cmp	r0, #13	; 0xd
300035c8:	1afffffc 	bne	300035c0 <do_load_serial_bin+0xb0>
300035cc:	e5940000 	ldr	r0, [r4]
300035d0:	e59f1360 	ldr	r1, [pc, #864]	; 30003938 <do_load_serial_bin+0x428>
300035d4:	eb002775 	bl	3000d3b0 <strcmp>
300035d8:	e2504000 	subs	r4, r0, #0	; 0x0
300035dc:	1a000006 	bne	300035fc <do_load_serial_bin+0xec>
300035e0:	e1a0100a 	mov	r1, sl
300035e4:	e59d2004 	ldr	r2, [sp, #4]
300035e8:	e59f034c 	ldr	r0, [pc, #844]	; 3000393c <do_load_serial_bin+0x42c>
300035ec:	eb000b44 	bl	30006304 <printf>
300035f0:	e1a0000a 	mov	r0, sl
300035f4:	ebffff6d 	bl	300033b0 <load_serial_ymodem>
300035f8:	ea0000b1 	b	300038c4 <do_load_serial_bin+0x3b4>
300035fc:	e59f033c 	ldr	r0, [pc, #828]	; 30003940 <do_load_serial_bin+0x430>
30003600:	e1a0100a 	mov	r1, sl
30003604:	e59d2004 	ldr	r2, [sp, #4]
30003608:	eb000b3d 	bl	30006304 <printf>
3000360c:	e59f3330 	ldr	r3, [pc, #816]	; 30003944 <do_load_serial_bin+0x434>
30003610:	e3a02023 	mov	r2, #35	; 0x23
30003614:	e5c32024 	strb	r2, [r3, #36]
30003618:	e59f2328 	ldr	r2, [pc, #808]	; 30003948 <do_load_serial_bin+0x438>
3000361c:	e5832010 	str	r2, [r3, #16]
30003620:	e59f2324 	ldr	r2, [pc, #804]	; 3000394c <do_load_serial_bin+0x43c>
30003624:	e3a04000 	mov	r4, #0	; 0x0
30003628:	e5832020 	str	r2, [r3, #32]
3000362c:	e3a0200d 	mov	r2, #13	; 0xd
30003630:	e5c3202d 	strb	r2, [r3, #45]
30003634:	e583a008 	str	sl, [r3, #8]
30003638:	e5834028 	str	r4, [r3, #40]
3000363c:	e5c3402c 	strb	r4, [r3, #44]
30003640:	ebfffe76 	bl	30003020 <k_data_init>
30003644:	ebfffe7d 	bl	30003040 <k_data_save>
30003648:	e3e05000 	mvn	r5, #0	; 0x0
3000364c:	e59f22f0 	ldr	r2, [pc, #752]	; 30003944 <do_load_serial_bin+0x434>
30003650:	e2823034 	add	r3, r2, #52	; 0x34
30003654:	e5823030 	str	r3, [r2, #48]
30003658:	eb000bbd 	bl	30006554 <getc>
3000365c:	e3500001 	cmp	r0, #1	; 0x1
30003660:	0a000002 	beq	30003670 <do_load_serial_bin+0x160>
30003664:	e3500003 	cmp	r0, #3	; 0x3
30003668:	1afffffa 	bne	30003658 <do_load_serial_bin+0x148>
3000366c:	ea00006d 	b	30003828 <do_load_serial_bin+0x318>
30003670:	eb000bb7 	bl	30006554 <getc>
30003674:	e31000e0 	tst	r0, #224	; 0xe0
30003678:	e200b0ff 	and	fp, r0, #255	; 0xff
3000367c:	0a000058 	beq	300037e4 <do_load_serial_bin+0x2d4>
30003680:	eb000bb3 	bl	30006554 <getc>
30003684:	e31000e0 	tst	r0, #224	; 0xe0
30003688:	e20060ff 	and	r6, r0, #255	; 0xff
3000368c:	0a000054 	beq	300037e4 <do_load_serial_bin+0x2d4>
30003690:	e2463020 	sub	r3, r6, #32	; 0x20
30003694:	e20370ff 	and	r7, r3, #255	; 0xff
30003698:	e1570005 	cmp	r7, r5
3000369c:	1a000001 	bne	300036a8 <do_load_serial_bin+0x198>
300036a0:	ebfffe6e 	bl	30003060 <k_data_restore>
300036a4:	ea000000 	b	300036ac <do_load_serial_bin+0x19c>
300036a8:	ebfffe64 	bl	30003040 <k_data_save>
300036ac:	eb000ba8 	bl	30006554 <getc>
300036b0:	e31000e0 	tst	r0, #224	; 0xe0
300036b4:	e20090ff 	and	r9, r0, #255	; 0xff
300036b8:	0a000047 	beq	300037dc <do_load_serial_bin+0x2cc>
300036bc:	e24b3020 	sub	r3, fp, #32	; 0x20
300036c0:	e20330ff 	and	r3, r3, #255	; 0xff
300036c4:	e2435002 	sub	r5, r3, #2	; 0x2
300036c8:	e3750002 	cmn	r5, #2	; 0x2
300036cc:	e086300b 	add	r3, r6, fp
300036d0:	e0836009 	add	r6, r3, r9
300036d4:	1a000030 	bne	3000379c <do_load_serial_bin+0x28c>
300036d8:	eb000b9d 	bl	30006554 <getc>
300036dc:	e31000e0 	tst	r0, #224	; 0xe0
300036e0:	e20050ff 	and	r5, r0, #255	; 0xff
300036e4:	0a00003c 	beq	300037dc <do_load_serial_bin+0x2cc>
300036e8:	eb000b99 	bl	30006554 <getc>
300036ec:	e31000e0 	tst	r0, #224	; 0xe0
300036f0:	e20040ff 	and	r4, r0, #255	; 0xff
300036f4:	0a000038 	beq	300037dc <do_load_serial_bin+0x2cc>
300036f8:	eb000b95 	bl	30006554 <getc>
300036fc:	e31000e0 	tst	r0, #224	; 0xe0
30003700:	e200c0ff 	and	ip, r0, #255	; 0xff
30003704:	0a000034 	beq	300037dc <do_load_serial_bin+0x2cc>
30003708:	e0853006 	add	r3, r5, r6
3000370c:	e0830004 	add	r0, r3, r4
30003710:	e1a03c00 	lsl	r3, r0, #24
30003714:	e0803f23 	add	r3, r0, r3, lsr #30
30003718:	e203303f 	and	r3, r3, #63	; 0x3f
3000371c:	e2833020 	add	r3, r3, #32	; 0x20
30003720:	e15c0003 	cmp	ip, r3
30003724:	1a00002c 	bne	300037dc <do_load_serial_bin+0x2cc>
30003728:	e2452020 	sub	r2, r5, #32	; 0x20
3000372c:	e2443020 	sub	r3, r4, #32	; 0x20
30003730:	e20330ff 	and	r3, r3, #255	; 0xff
30003734:	e20220ff 	and	r2, r2, #255	; 0xff
30003738:	e3a0105f 	mov	r1, #95	; 0x5f
3000373c:	e0253291 	mla	r5, r1, r2, r3
30003740:	e08c6000 	add	r6, ip, r0
30003744:	ea000014 	b	3000379c <do_load_serial_bin+0x28c>
30003748:	eb000b81 	bl	30006554 <getc>
3000374c:	e31000e0 	tst	r0, #224	; 0xe0
30003750:	e20040ff 	and	r4, r0, #255	; 0xff
30003754:	0a000020 	beq	300037dc <do_load_serial_bin+0x2cc>
30003758:	e3590044 	cmp	r9, #68	; 0x44
3000375c:	1a000002 	bne	3000376c <do_load_serial_bin+0x25c>
30003760:	e1a00004 	mov	r0, r4
30003764:	ebfffe45 	bl	30003080 <k_data_char>
30003768:	ea000009 	b	30003794 <do_load_serial_bin+0x284>
3000376c:	e3590053 	cmp	r9, #83	; 0x53
30003770:	1a000007 	bne	30003794 <do_load_serial_bin+0x284>
30003774:	e59f11c8 	ldr	r1, [pc, #456]	; 30003944 <do_load_serial_bin+0x434>
30003778:	e5910030 	ldr	r0, [r1, #48]
3000377c:	e1a03000 	mov	r3, r0
30003780:	e4c34001 	strb	r4, [r3], #1
30003784:	e2812048 	add	r2, r1, #72	; 0x48
30003788:	e1530002 	cmp	r3, r2
3000378c:	e5813030 	str	r3, [r1, #48]
30003790:	25810030 	strcs	r0, [r1, #48]
30003794:	e0866004 	add	r6, r6, r4
30003798:	e2455001 	sub	r5, r5, #1	; 0x1
3000379c:	e3550001 	cmp	r5, #1	; 0x1
300037a0:	caffffe8 	bgt	30003748 <do_load_serial_bin+0x238>
300037a4:	eb000b6a 	bl	30006554 <getc>
300037a8:	e31000e0 	tst	r0, #224	; 0xe0
300037ac:	e20000ff 	and	r0, r0, #255	; 0xff
300037b0:	0a000009 	beq	300037dc <do_load_serial_bin+0x2cc>
300037b4:	e1a03c06 	lsl	r3, r6, #24
300037b8:	e0863f23 	add	r3, r6, r3, lsr #30
300037bc:	e203303f 	and	r3, r3, #63	; 0x3f
300037c0:	e2833020 	add	r3, r3, #32	; 0x20
300037c4:	e1500003 	cmp	r0, r3
300037c8:	1a000003 	bne	300037dc <do_load_serial_bin+0x2cc>
300037cc:	eb000b60 	bl	30006554 <getc>
300037d0:	e20000ff 	and	r0, r0, #255	; 0xff
300037d4:	e350000d 	cmp	r0, #13	; 0xd
300037d8:	0a000006 	beq	300037f8 <do_load_serial_bin+0x2e8>
300037dc:	e1a05007 	mov	r5, r7
300037e0:	e1a04007 	mov	r4, r7
300037e4:	ebfffe1d 	bl	30003060 <k_data_restore>
300037e8:	e1a00004 	mov	r0, r4
300037ec:	ebfffebf 	bl	300032f0 <send_nack>
300037f0:	e1a07005 	mov	r7, r5
300037f4:	ea000009 	b	30003820 <do_load_serial_bin+0x310>
300037f8:	e3590053 	cmp	r9, #83	; 0x53
300037fc:	1a000002 	bne	3000380c <do_load_serial_bin+0x2fc>
30003800:	e1a00007 	mov	r0, r7
30003804:	ebfffe48 	bl	3000312c <handle_send_packet>
30003808:	ea000003 	b	3000381c <do_load_serial_bin+0x30c>
3000380c:	e1a00007 	mov	r0, r7
30003810:	ebfffece 	bl	30003350 <send_ack>
30003814:	e3590042 	cmp	r9, #66	; 0x42
30003818:	0a00003f 	beq	3000391c <do_load_serial_bin+0x40c>
3000381c:	e1a04007 	mov	r4, r7
30003820:	e1a05007 	mov	r5, r7
30003824:	eaffff88 	b	3000364c <do_load_serial_bin+0x13c>
30003828:	e3a05000 	mov	r5, #0	; 0x0
3000382c:	e3a04000 	mov	r4, #0	; 0x0
30003830:	eb000b41 	bl	3000653c <tstc>
30003834:	e3500000 	cmp	r0, #0	; 0x0
30003838:	e2844001 	add	r4, r4, #1	; 0x1
3000383c:	1b000b44 	blne	30006554 <getc>
30003840:	e3a00ffa 	mov	r0, #1000	; 0x3e8
30003844:	eb0035e1 	bl	30010fd0 <udelay>
30003848:	e3540064 	cmp	r4, #100	; 0x64
3000384c:	1afffff7 	bne	30003830 <do_load_serial_bin+0x320>
30003850:	e1a0000a 	mov	r0, sl
30003854:	e1a01005 	mov	r1, r5
30003858:	eb00368d 	bl	30011294 <flush_cache>
3000385c:	e28d4008 	add	r4, sp, #8	; 0x8
30003860:	e59f00e8 	ldr	r0, [pc, #232]	; 30003950 <do_load_serial_bin+0x440>
30003864:	e1a01005 	mov	r1, r5
30003868:	e1a02005 	mov	r2, r5
3000386c:	eb000aa4 	bl	30006304 <printf>
30003870:	e1a02005 	mov	r2, r5
30003874:	e59f10d8 	ldr	r1, [pc, #216]	; 30003954 <do_load_serial_bin+0x444>
30003878:	e1a00004 	mov	r0, r4
3000387c:	eb002b4f 	bl	3000e5c0 <sprintf>
30003880:	e1a01004 	mov	r1, r4
30003884:	e59f00cc 	ldr	r0, [pc, #204]	; 30003958 <do_load_serial_bin+0x448>
30003888:	eb00064c 	bl	300051c0 <setenv>
3000388c:	e37a0001 	cmn	sl, #1	; 0x1
30003890:	e59f40c4 	ldr	r4, [pc, #196]	; 3000395c <do_load_serial_bin+0x44c>
30003894:	1a000005 	bne	300038b0 <do_load_serial_bin+0x3a0>
30003898:	e3a03000 	mov	r3, #0	; 0x0
3000389c:	e5843000 	str	r3, [r4]
300038a0:	e59f00b8 	ldr	r0, [pc, #184]	; 30003960 <do_load_serial_bin+0x450>
300038a4:	eb000a96 	bl	30006304 <printf>
300038a8:	e3a04001 	mov	r4, #1	; 0x1
300038ac:	ea000004 	b	300038c4 <do_load_serial_bin+0x3b4>
300038b0:	e59f00ac 	ldr	r0, [pc, #172]	; 30003964 <do_load_serial_bin+0x454>
300038b4:	e1a0100a 	mov	r1, sl
300038b8:	eb000a91 	bl	30006304 <printf>
300038bc:	e584a000 	str	sl, [r4]
300038c0:	e3a04000 	mov	r4, #0	; 0x0
300038c4:	e89d000c 	ldm	sp, {r2, r3}
300038c8:	e1530002 	cmp	r3, r2
300038cc:	0a00000c 	beq	30003904 <do_load_serial_bin+0x3f4>
300038d0:	e1a01002 	mov	r1, r2
300038d4:	e59f008c 	ldr	r0, [pc, #140]	; 30003968 <do_load_serial_bin+0x458>
300038d8:	eb000a89 	bl	30006304 <printf>
300038dc:	e59f0050 	ldr	r0, [pc, #80]	; 30003934 <do_load_serial_bin+0x424>
300038e0:	eb0035ba 	bl	30010fd0 <udelay>
300038e4:	e59d2000 	ldr	r2, [sp]
300038e8:	e5882008 	str	r2, [r8, #8]
300038ec:	ebfff3dc 	bl	30000864 <serial_setbrg>
300038f0:	e59f003c 	ldr	r0, [pc, #60]	; 30003934 <do_load_serial_bin+0x424>
300038f4:	eb0035b5 	bl	30010fd0 <udelay>
300038f8:	eb000b15 	bl	30006554 <getc>
300038fc:	e350001b 	cmp	r0, #27	; 0x1b
30003900:	1afffffc 	bne	300038f8 <do_load_serial_bin+0x3e8>
30003904:	e1a00004 	mov	r0, r4
30003908:	e28dd028 	add	sp, sp, #40	; 0x28
3000390c:	e8bd8ef0 	pop	{r4, r5, r6, r7, r9, sl, fp, pc}
30003910:	e59d3000 	ldr	r3, [sp]
30003914:	e58d3004 	str	r3, [sp, #4]
30003918:	eaffff2b 	b	300035cc <do_load_serial_bin+0xbc>
3000391c:	e59f3020 	ldr	r3, [pc, #32]	; 30003944 <do_load_serial_bin+0x434>
30003920:	e9930024 	ldmib	r3, {r2, r5}
30003924:	e0425005 	sub	r5, r2, r5
30003928:	eaffffbf 	b	3000382c <do_load_serial_bin+0x31c>
3000392c:	300175b9 	.word	0x300175b9
30003930:	30018a70 	.word	0x30018a70
30003934:	0000c350 	.word	0x0000c350
30003938:	30018aa2 	.word	0x30018aa2
3000393c:	30018aa8 	.word	0x30018aa8
30003940:	30018ae7 	.word	0x30018ae7
30003944:	3001c3b0 	.word	0x3001c3b0
30003948:	30002fe4 	.word	0x30002fe4
3000394c:	30003000 	.word	0x30003000
30003950:	30018a45 	.word	0x30018a45
30003954:	30018a6d 	.word	0x30018a6d
30003958:	30017906 	.word	0x30017906
3000395c:	3001b2e8 	.word	0x3001b2e8
30003960:	30018b26 	.word	0x30018b26
30003964:	30018b4b 	.word	0x30018b4b
30003968:	30018b69 	.word	0x30018b69

3000396c <load_serial>:
3000396c:	e92d46f0 	push	{r4, r5, r6, r7, r9, sl, lr}
30003970:	e3a06000 	mov	r6, #0	; 0x0
30003974:	e24ddfcf 	sub	sp, sp, #828	; 0x33c
30003978:	e1a09000 	mov	r9, r0
3000397c:	e3e07000 	mvn	r7, #0	; 0x0
30003980:	e1a0a006 	mov	sl, r6
30003984:	ea000053 	b	30003ad8 <load_serial+0x16c>
30003988:	e28d3f85 	add	r3, sp, #532	; 0x214
3000398c:	e2433003 	sub	r3, r3, #3	; 0x3
30003990:	e28d000c 	add	r0, sp, #12	; 0xc
30003994:	e28d1fcd 	add	r1, sp, #820	; 0x334
30003998:	e28d2e33 	add	r2, sp, #816	; 0x330
3000399c:	eb001e40 	bl	3000b2a4 <srec_decode>
300039a0:	e3500000 	cmp	r0, #0	; 0x0
300039a4:	ba000070 	blt	30003b6c <load_serial+0x200>
300039a8:	e2403001 	sub	r3, r0, #1	; 0x1
300039ac:	e3530008 	cmp	r3, #8	; 0x8
300039b0:	979ff103 	ldrls	pc, [pc, r3, lsl #2]
300039b4:	ea00003a 	b	30003aa4 <load_serial+0x138>
300039b8:	300039dc 	.word	0x300039dc
300039bc:	300039dc 	.word	0x300039dc
300039c0:	300039dc 	.word	0x300039dc
300039c4:	30003aa4 	.word	0x30003aa4
300039c8:	30003aa4 	.word	0x30003aa4
300039cc:	30003aa4 	.word	0x30003aa4
300039d0:	30003a48 	.word	0x30003a48
300039d4:	30003a48 	.word	0x30003a48
300039d8:	30003a48 	.word	0x30003a48
300039dc:	e59d3330 	ldr	r3, [sp, #816]
300039e0:	e0894003 	add	r4, r9, r3
300039e4:	e1a00004 	mov	r0, r4
300039e8:	eb000ff2 	bl	300079b8 <addr2info>
300039ec:	e3500000 	cmp	r0, #0	; 0x0
300039f0:	e28d0f85 	add	r0, sp, #532	; 0x214
300039f4:	e2400003 	sub	r0, r0, #3	; 0x3
300039f8:	0a000006 	beq	30003a18 <load_serial+0xac>
300039fc:	e1a01004 	mov	r1, r4
30003a00:	e59d2334 	ldr	r2, [sp, #820]
30003a04:	eb001035 	bl	30007ae0 <flash_write>
30003a08:	e3500000 	cmp	r0, #0	; 0x0
30003a0c:	0a000005 	beq	30003a28 <load_serial+0xbc>
30003a10:	eb000ffa 	bl	30007a00 <flash_perror>
30003a14:	ea000054 	b	30003b6c <load_serial+0x200>
30003a18:	e1a01000 	mov	r1, r0
30003a1c:	e59d2334 	ldr	r2, [sp, #820]
30003a20:	e1a00004 	mov	r0, r4
30003a24:	eb002739 	bl	3000d710 <memcpy>
30003a28:	e59d3334 	ldr	r3, [sp, #820]
30003a2c:	e2433001 	sub	r3, r3, #1	; 0x1
30003a30:	e0835004 	add	r5, r3, r4
30003a34:	e1570004 	cmp	r7, r4
30003a38:	21a07004 	movcs	r7, r4
30003a3c:	e1550006 	cmp	r5, r6
30003a40:	8a000018 	bhi	30003aa8 <load_serial+0x13c>
30003a44:	ea000016 	b	30003aa4 <load_serial+0x138>
30003a48:	e2864001 	add	r4, r6, #1	; 0x1
30003a4c:	e0674004 	rsb	r4, r7, r4
30003a50:	e59f0120 	ldr	r0, [pc, #288]	; 30003b78 <load_serial+0x20c>
30003a54:	eb00355d 	bl	30010fd0 <udelay>
30003a58:	e1a03004 	mov	r3, r4
30003a5c:	e1a02006 	mov	r2, r6
30003a60:	e59f0114 	ldr	r0, [pc, #276]	; 30003b7c <load_serial+0x210>
30003a64:	e1a01007 	mov	r1, r7
30003a68:	e28d5e31 	add	r5, sp, #784	; 0x310
30003a6c:	e58d4000 	str	r4, [sp]
30003a70:	eb000a23 	bl	30006304 <printf>
30003a74:	e1a00007 	mov	r0, r7
30003a78:	e1a01004 	mov	r1, r4
30003a7c:	eb003604 	bl	30011294 <flush_cache>
30003a80:	e1a02004 	mov	r2, r4
30003a84:	e59f10f4 	ldr	r1, [pc, #244]	; 30003b80 <load_serial+0x214>
30003a88:	e1a00005 	mov	r0, r5
30003a8c:	eb002acb 	bl	3000e5c0 <sprintf>
30003a90:	e1a01005 	mov	r1, r5
30003a94:	e59f00e8 	ldr	r0, [pc, #232]	; 30003b84 <load_serial+0x218>
30003a98:	eb0005c8 	bl	300051c0 <setenv>
30003a9c:	e59d0330 	ldr	r0, [sp, #816]
30003aa0:	ea000032 	b	30003b70 <load_serial+0x204>
30003aa4:	e1a05006 	mov	r5, r6
30003aa8:	e59f30d8 	ldr	r3, [pc, #216]	; 30003b88 <load_serial+0x21c>
30003aac:	e5933000 	ldr	r3, [r3]
30003ab0:	e3530000 	cmp	r3, #0	; 0x0
30003ab4:	1a000006 	bne	30003ad4 <load_serial+0x168>
30003ab8:	e28aa001 	add	sl, sl, #1	; 0x1
30003abc:	e1a0000a 	mov	r0, sl
30003ac0:	e3a01064 	mov	r1, #100	; 0x64
30003ac4:	eb00490d 	bl	30015f00 <__aeabi_idivmod>
30003ac8:	e3510000 	cmp	r1, #0	; 0x0
30003acc:	03a0002e 	moveq	r0, #46	; 0x2e
30003ad0:	0b000a92 	bleq	30006520 <putc>
30003ad4:	e1a06005 	mov	r6, r5
30003ad8:	e28d500c 	add	r5, sp, #12	; 0xc
30003adc:	eb000a9c 	bl	30006554 <getc>
30003ae0:	e59f30a0 	ldr	r3, [pc, #160]	; 30003b88 <load_serial+0x21c>
30003ae4:	e5933000 	ldr	r3, [r3]
30003ae8:	e3530000 	cmp	r3, #0	; 0x0
30003aec:	e20040ff 	and	r4, r0, #255	; 0xff
30003af0:	11a00004 	movne	r0, r4
30003af4:	1b000a89 	blne	30006520 <putc>
30003af8:	e3540003 	cmp	r4, #3	; 0x3
30003afc:	0a00001a 	beq	30003b6c <load_serial+0x200>
30003b00:	8a000002 	bhi	30003b10 <load_serial+0x1a4>
30003b04:	e3540000 	cmp	r4, #0	; 0x0
30003b08:	0a000017 	beq	30003b6c <load_serial+0x200>
30003b0c:	ea000003 	b	30003b20 <load_serial+0x1b4>
30003b10:	e354000a 	cmp	r4, #10	; 0xa
30003b14:	0a00000e 	beq	30003b54 <load_serial+0x1e8>
30003b18:	e354000d 	cmp	r4, #13	; 0xd
30003b1c:	0a00000c 	beq	30003b54 <load_serial+0x1e8>
30003b20:	e5c54000 	strb	r4, [r5]
30003b24:	e598301c 	ldr	r3, [r8, #28]
30003b28:	e5932004 	ldr	r2, [r3, #4]
30003b2c:	e59f3058 	ldr	r3, [pc, #88]	; 30003b8c <load_serial+0x220>
30003b30:	e1520003 	cmp	r2, r3
30003b34:	0a000002 	beq	30003b44 <load_serial+0x1d8>
30003b38:	eb000a8b 	bl	3000656c <ctrlc>
30003b3c:	e3500000 	cmp	r0, #0	; 0x0
30003b40:	1a000009 	bne	30003b6c <load_serial+0x200>
30003b44:	e2855001 	add	r5, r5, #1	; 0x1
30003b48:	e28d3e21 	add	r3, sp, #528	; 0x210
30003b4c:	e1550003 	cmp	r5, r3
30003b50:	3affffe1 	bcc	30003adc <load_serial+0x170>
30003b54:	e3a03000 	mov	r3, #0	; 0x0
30003b58:	e5c53000 	strb	r3, [r5]
30003b5c:	e28d300c 	add	r3, sp, #12	; 0xc
30003b60:	e0633005 	rsb	r3, r3, r5
30003b64:	e3530000 	cmp	r3, #0	; 0x0
30003b68:	aaffff86 	bge	30003988 <load_serial+0x1c>
30003b6c:	e3e00000 	mvn	r0, #0	; 0x0
30003b70:	e28ddfcf 	add	sp, sp, #828	; 0x33c
30003b74:	e8bd86f0 	pop	{r4, r5, r6, r7, r9, sl, pc}
30003b78:	00002710 	.word	0x00002710
30003b7c:	30018b99 	.word	0x30018b99
30003b80:	30017902 	.word	0x30017902
30003b84:	30017906 	.word	0x30017906
30003b88:	3001b400 	.word	0x3001b400
30003b8c:	30006554 	.word	0x30006554

30003b90 <do_load_serial>:
30003b90:	e92d4070 	push	{r4, r5, r6, lr}
30003b94:	e59f00b8 	ldr	r0, [pc, #184]	; 30003c54 <do_load_serial+0xc4>
30003b98:	e1a04002 	mov	r4, r2
30003b9c:	e1a05003 	mov	r5, r3
30003ba0:	eb0003f2 	bl	30004b70 <getenv>
30003ba4:	e3500000 	cmp	r0, #0	; 0x0
30003ba8:	0a000003 	beq	30003bbc <do_load_serial+0x2c>
30003bac:	e5d03000 	ldrb	r3, [r0]
30003bb0:	e3530031 	cmp	r3, #49	; 0x31
30003bb4:	03a02001 	moveq	r2, #1	; 0x1
30003bb8:	0a000000 	beq	30003bc0 <do_load_serial+0x30>
30003bbc:	e3a02000 	mov	r2, #0	; 0x0
30003bc0:	e59f3090 	ldr	r3, [pc, #144]	; 30003c58 <do_load_serial+0xc8>
30003bc4:	e3540002 	cmp	r4, #2	; 0x2
30003bc8:	e5832000 	str	r2, [r3]
30003bcc:	13a04000 	movne	r4, #0	; 0x0
30003bd0:	1a000004 	bne	30003be8 <do_load_serial+0x58>
30003bd4:	e5950004 	ldr	r0, [r5, #4]
30003bd8:	e3a01000 	mov	r1, #0	; 0x0
30003bdc:	e3a02010 	mov	r2, #16	; 0x10
30003be0:	eb002785 	bl	3000d9fc <simple_strtol>
30003be4:	e1a04000 	mov	r4, r0
30003be8:	e59f006c 	ldr	r0, [pc, #108]	; 30003c5c <do_load_serial+0xcc>
30003bec:	eb0009c4 	bl	30006304 <printf>
30003bf0:	e1a00004 	mov	r0, r4
30003bf4:	ebffff5c 	bl	3000396c <load_serial>
30003bf8:	e3a04000 	mov	r4, #0	; 0x0
30003bfc:	e1a05000 	mov	r5, r0
30003c00:	eb000a4d 	bl	3000653c <tstc>
30003c04:	e3500000 	cmp	r0, #0	; 0x0
30003c08:	e2844001 	add	r4, r4, #1	; 0x1
30003c0c:	1b000a50 	blne	30006554 <getc>
30003c10:	e3a00ffa 	mov	r0, #1000	; 0x3e8
30003c14:	eb0034ed 	bl	30010fd0 <udelay>
30003c18:	e3540064 	cmp	r4, #100	; 0x64
30003c1c:	1afffff7 	bne	30003c00 <do_load_serial+0x70>
30003c20:	e3750001 	cmn	r5, #1	; 0x1
30003c24:	1a000003 	bne	30003c38 <do_load_serial+0xa8>
30003c28:	e59f0030 	ldr	r0, [pc, #48]	; 30003c60 <do_load_serial+0xd0>
30003c2c:	eb0009b4 	bl	30006304 <printf>
30003c30:	e3a00001 	mov	r0, #1	; 0x1
30003c34:	e8bd8070 	pop	{r4, r5, r6, pc}
30003c38:	e59f0024 	ldr	r0, [pc, #36]	; 30003c64 <do_load_serial+0xd4>
30003c3c:	e1a01005 	mov	r1, r5
30003c40:	eb0009af 	bl	30006304 <printf>
30003c44:	e59f301c 	ldr	r3, [pc, #28]	; 30003c68 <do_load_serial+0xd8>
30003c48:	e3a00000 	mov	r0, #0	; 0x0
30003c4c:	e5835000 	str	r5, [r3]
30003c50:	e8bd8070 	pop	{r4, r5, r6, pc}
30003c54:	30018bfe 	.word	0x30018bfe
30003c58:	3001b400 	.word	0x3001b400
30003c5c:	30018c09 	.word	0x30018c09
30003c60:	30018c2d 	.word	0x30018c2d
30003c64:	30018b4b 	.word	0x30018b4b
30003c68:	3001b2e8 	.word	0x3001b2e8

30003c6c <do_mem_crc>:
30003c6c:	e3520002 	cmp	r2, #2	; 0x2
30003c70:	e92d44f0 	push	{r4, r5, r6, r7, sl, lr}
30003c74:	e1a0a002 	mov	sl, r2
30003c78:	e1a06003 	mov	r6, r3
30003c7c:	ca000002 	bgt	30003c8c <do_mem_crc+0x20>
30003c80:	eb0006f4 	bl	30005858 <cmd_usage>
30003c84:	e3a00001 	mov	r0, #1	; 0x1
30003c88:	e8bd84f0 	pop	{r4, r5, r6, r7, sl, pc}
30003c8c:	e3a01000 	mov	r1, #0	; 0x0
30003c90:	e3a02010 	mov	r2, #16	; 0x10
30003c94:	e5930004 	ldr	r0, [r3, #4]
30003c98:	eb002729 	bl	3000d944 <simple_strtoul>
30003c9c:	e59f306c 	ldr	r3, [pc, #108]	; 30003d10 <do_mem_crc+0xa4>
30003ca0:	e5933000 	ldr	r3, [r3]
30003ca4:	e3a01000 	mov	r1, #0	; 0x0
30003ca8:	e0805003 	add	r5, r0, r3
30003cac:	e3a02010 	mov	r2, #16	; 0x10
30003cb0:	e5960008 	ldr	r0, [r6, #8]
30003cb4:	eb002722 	bl	3000d944 <simple_strtoul>
30003cb8:	e1a01005 	mov	r1, r5
30003cbc:	e1a02000 	mov	r2, r0
30003cc0:	e1a04000 	mov	r4, r0
30003cc4:	e3a00000 	mov	r0, #0	; 0x0
30003cc8:	eb0022d8 	bl	3000c830 <crc32>
30003ccc:	e2444001 	sub	r4, r4, #1	; 0x1
30003cd0:	e1a07000 	mov	r7, r0
30003cd4:	e1a01005 	mov	r1, r5
30003cd8:	e59f0034 	ldr	r0, [pc, #52]	; 30003d14 <do_mem_crc+0xa8>
30003cdc:	e0842005 	add	r2, r4, r5
30003ce0:	e1a03007 	mov	r3, r7
30003ce4:	eb000986 	bl	30006304 <printf>
30003ce8:	e35a0003 	cmp	sl, #3	; 0x3
30003cec:	03a00000 	moveq	r0, #0	; 0x0
30003cf0:	08bd84f0 	popeq	{r4, r5, r6, r7, sl, pc}
30003cf4:	e596000c 	ldr	r0, [r6, #12]
30003cf8:	e3a01000 	mov	r1, #0	; 0x0
30003cfc:	e3a02010 	mov	r2, #16	; 0x10
30003d00:	eb00270f 	bl	3000d944 <simple_strtoul>
30003d04:	e5807000 	str	r7, [r0]
30003d08:	e3a00000 	mov	r0, #0	; 0x0
30003d0c:	e8bd84f0 	pop	{r4, r5, r6, r7, sl, pc}
30003d10:	3001c410 	.word	0x3001c410
30003d14:	30018d7e 	.word	0x30018d7e

30003d18 <do_mem_base>:
30003d18:	e3520001 	cmp	r2, #1	; 0x1
30003d1c:	e92d4010 	push	{r4, lr}
30003d20:	da000005 	ble	30003d3c <do_mem_base+0x24>
30003d24:	e5930004 	ldr	r0, [r3, #4]
30003d28:	e3a01000 	mov	r1, #0	; 0x0
30003d2c:	e3a02010 	mov	r2, #16	; 0x10
30003d30:	eb002703 	bl	3000d944 <simple_strtoul>
30003d34:	e59f3018 	ldr	r3, [pc, #24]	; 30003d54 <do_mem_base+0x3c>
30003d38:	e5830000 	str	r0, [r3]
30003d3c:	e59f3010 	ldr	r3, [pc, #16]	; 30003d54 <do_mem_base+0x3c>
30003d40:	e59f0010 	ldr	r0, [pc, #16]	; 30003d58 <do_mem_base+0x40>
30003d44:	e5931000 	ldr	r1, [r3]
30003d48:	eb00096d 	bl	30006304 <printf>
30003d4c:	e3a00000 	mov	r0, #0	; 0x0
30003d50:	e8bd8010 	pop	{r4, pc}
30003d54:	3001c410 	.word	0x3001c410
30003d58:	30018da3 	.word	0x30018da3

30003d5c <do_mem_mtest>:
30003d5c:	e3520001 	cmp	r2, #1	; 0x1
30003d60:	e92d4ef3 	push	{r0, r1, r4, r5, r6, r7, r9, sl, fp, lr}
30003d64:	e1a04002 	mov	r4, r2
30003d68:	e1a05003 	mov	r5, r3
30003d6c:	da000057 	ble	30003ed0 <do_mem_mtest+0x174>
30003d70:	e5930004 	ldr	r0, [r3, #4]
30003d74:	e3a01000 	mov	r1, #0	; 0x0
30003d78:	e3a02010 	mov	r2, #16	; 0x10
30003d7c:	eb0026f0 	bl	3000d944 <simple_strtoul>
30003d80:	e3540002 	cmp	r4, #2	; 0x2
30003d84:	e58d0000 	str	r0, [sp]
30003d88:	0a000052 	beq	30003ed8 <do_mem_mtest+0x17c>
30003d8c:	e5950008 	ldr	r0, [r5, #8]
30003d90:	e3a01000 	mov	r1, #0	; 0x0
30003d94:	e3a02010 	mov	r2, #16	; 0x10
30003d98:	eb0026e9 	bl	3000d944 <simple_strtoul>
30003d9c:	e3540003 	cmp	r4, #3	; 0x3
30003da0:	e58d0004 	str	r0, [sp, #4]
30003da4:	0a00004d 	beq	30003ee0 <do_mem_mtest+0x184>
30003da8:	e595000c 	ldr	r0, [r5, #12]
30003dac:	e3a01000 	mov	r1, #0	; 0x0
30003db0:	e3a02010 	mov	r2, #16	; 0x10
30003db4:	eb0026e2 	bl	3000d944 <simple_strtoul>
30003db8:	e3540004 	cmp	r4, #4	; 0x4
30003dbc:	e1a06000 	mov	r6, r0
30003dc0:	03a0a000 	moveq	sl, #0	; 0x0
30003dc4:	0a000004 	beq	30003ddc <do_mem_mtest+0x80>
30003dc8:	e5950010 	ldr	r0, [r5, #16]
30003dcc:	e3a01000 	mov	r1, #0	; 0x0
30003dd0:	e3a02010 	mov	r2, #16	; 0x10
30003dd4:	eb0026da 	bl	3000d944 <simple_strtoul>
30003dd8:	e1a0a000 	mov	sl, r0
30003ddc:	e3a07001 	mov	r7, #1	; 0x1
30003de0:	e3a0b000 	mov	fp, #0	; 0x0
30003de4:	e1a09007 	mov	r9, r7
30003de8:	eb0009df 	bl	3000656c <ctrlc>
30003dec:	e3500000 	cmp	r0, #0	; 0x0
30003df0:	1a000023 	bne	30003e84 <do_mem_mtest+0x128>
30003df4:	e35a0000 	cmp	sl, #0	; 0x0
30003df8:	1157000a 	cmpne	r7, sl
30003dfc:	da000006 	ble	30003e1c <do_mem_mtest+0xc0>
30003e00:	e59f00e4 	ldr	r0, [pc, #228]	; 30003eec <do_mem_mtest+0x190>
30003e04:	e2471001 	sub	r1, r7, #1	; 0x1
30003e08:	e1a0200b 	mov	r2, fp
30003e0c:	eb00093c 	bl	30006304 <printf>
30003e10:	e25b0000 	subs	r0, fp, #0	; 0x0
30003e14:	13a00001 	movne	r0, #1	; 0x1
30003e18:	ea00002b 	b	30003ecc <do_mem_mtest+0x170>
30003e1c:	e59f20cc 	ldr	r2, [pc, #204]	; 30003ef0 <do_mem_mtest+0x194>
30003e20:	e59f00cc 	ldr	r0, [pc, #204]	; 30003ef4 <do_mem_mtest+0x198>
30003e24:	e1a01006 	mov	r1, r6
30003e28:	eb000935 	bl	30006304 <printf>
30003e2c:	e59d2000 	ldr	r2, [sp]
30003e30:	e1a03006 	mov	r3, r6
30003e34:	ea000001 	b	30003e40 <do_mem_mtest+0xe4>
30003e38:	e4823004 	str	r3, [r2], #4
30003e3c:	e0833009 	add	r3, r3, r9
30003e40:	e59d1004 	ldr	r1, [sp, #4]
30003e44:	e1520001 	cmp	r2, r1
30003e48:	3afffffa 	bcc	30003e38 <do_mem_mtest+0xdc>
30003e4c:	e59f00a4 	ldr	r0, [pc, #164]	; 30003ef8 <do_mem_mtest+0x19c>
30003e50:	eb000919 	bl	300062bc <puts>
30003e54:	e1a05006 	mov	r5, r6
30003e58:	e59d4000 	ldr	r4, [sp]
30003e5c:	ea00000e 	b	30003e9c <do_mem_mtest+0x140>
30003e60:	e594c000 	ldr	ip, [r4]
30003e64:	e15c0005 	cmp	ip, r5
30003e68:	e1a0200c 	mov	r2, ip
30003e6c:	0a000008 	beq	30003e94 <do_mem_mtest+0x138>
30003e70:	eb000923 	bl	30006304 <printf>
30003e74:	eb0009bc 	bl	3000656c <ctrlc>
30003e78:	e3500000 	cmp	r0, #0	; 0x0
30003e7c:	028bb001 	addeq	fp, fp, #1	; 0x1
30003e80:	0a000003 	beq	30003e94 <do_mem_mtest+0x138>
30003e84:	e3a0000a 	mov	r0, #10	; 0xa
30003e88:	eb0009a4 	bl	30006520 <putc>
30003e8c:	e3a00001 	mov	r0, #1	; 0x1
30003e90:	ea00000d 	b	30003ecc <do_mem_mtest+0x170>
30003e94:	e0855009 	add	r5, r5, r9
30003e98:	e2844004 	add	r4, r4, #4	; 0x4
30003e9c:	e59d2004 	ldr	r2, [sp, #4]
30003ea0:	e1540002 	cmp	r4, r2
30003ea4:	e1a01004 	mov	r1, r4
30003ea8:	e1a03005 	mov	r3, r5
30003eac:	e59f0048 	ldr	r0, [pc, #72]	; 30003efc <do_mem_mtest+0x1a0>
30003eb0:	3affffea 	bcc	30003e60 <do_mem_mtest+0x104>
30003eb4:	e3560000 	cmp	r6, #0	; 0x0
30003eb8:	b2666000 	rsblt	r6, r6, #0	; 0x0
30003ebc:	a1e06006 	mvnge	r6, r6
30003ec0:	e2877001 	add	r7, r7, #1	; 0x1
30003ec4:	e2699000 	rsb	r9, r9, #0	; 0x0
30003ec8:	eaffffc6 	b	30003de8 <do_mem_mtest+0x8c>
30003ecc:	e8bd8efc 	pop	{r2, r3, r4, r5, r6, r7, r9, sl, fp, pc}
30003ed0:	e3a03203 	mov	r3, #805306368	; 0x30000000
30003ed4:	e58d3000 	str	r3, [sp]
30003ed8:	e59f1020 	ldr	r1, [pc, #32]	; 30003f00 <do_mem_mtest+0x1a4>
30003edc:	e58d1004 	str	r1, [sp, #4]
30003ee0:	e3a0a000 	mov	sl, #0	; 0x0
30003ee4:	e1a0600a 	mov	r6, sl
30003ee8:	eaffffbb 	b	30003ddc <do_mem_mtest+0x80>
30003eec:	30018dba 	.word	0x30018dba
30003ef0:	30018e0b 	.word	0x30018e0b
30003ef4:	30018de3 	.word	0x30018de3
30003ef8:	30018e0c 	.word	0x30018e0c
30003efc:	30018e17 	.word	0x30018e17
30003f00:	33f00000 	.word	0x33f00000

30003f04 <do_mem_loop>:
30003f04:	e3520002 	cmp	r2, #2	; 0x2
30003f08:	e92d4070 	push	{r4, r5, r6, lr}
30003f0c:	e1a04003 	mov	r4, r3
30003f10:	ca000001 	bgt	30003f1c <do_mem_loop+0x18>
30003f14:	eb00064f 	bl	30005858 <cmd_usage>
30003f18:	ea000035 	b	30003ff4 <do_mem_loop+0xf0>
30003f1c:	e5930000 	ldr	r0, [r3]
30003f20:	e3a01004 	mov	r1, #4	; 0x4
30003f24:	eb000625 	bl	300057c0 <cmd_get_data_size>
30003f28:	e2505000 	subs	r5, r0, #0	; 0x0
30003f2c:	ba000030 	blt	30003ff4 <do_mem_loop+0xf0>
30003f30:	e3a01000 	mov	r1, #0	; 0x0
30003f34:	e3a02010 	mov	r2, #16	; 0x10
30003f38:	e5940004 	ldr	r0, [r4, #4]
30003f3c:	eb002680 	bl	3000d944 <simple_strtoul>
30003f40:	e3a01000 	mov	r1, #0	; 0x0
30003f44:	e1a06000 	mov	r6, r0
30003f48:	e3a02010 	mov	r2, #16	; 0x10
30003f4c:	e5940008 	ldr	r0, [r4, #8]
30003f50:	eb00267b 	bl	3000d944 <simple_strtoul>
30003f54:	e3500001 	cmp	r0, #1	; 0x1
30003f58:	1a000009 	bne	30003f84 <do_mem_loop+0x80>
30003f5c:	e3550004 	cmp	r5, #4	; 0x4
30003f60:	1a000001 	bne	30003f6c <do_mem_loop+0x68>
30003f64:	e5963000 	ldr	r3, [r6]
30003f68:	eafffffd 	b	30003f64 <do_mem_loop+0x60>
30003f6c:	e3550002 	cmp	r5, #2	; 0x2
30003f70:	1a000001 	bne	30003f7c <do_mem_loop+0x78>
30003f74:	e1d630b0 	ldrh	r3, [r6]
30003f78:	eafffffd 	b	30003f74 <do_mem_loop+0x70>
30003f7c:	e5d63000 	ldrb	r3, [r6]
30003f80:	eafffffd 	b	30003f7c <do_mem_loop+0x78>
30003f84:	e3550004 	cmp	r5, #4	; 0x4
30003f88:	1a000007 	bne	30003fac <do_mem_loop+0xa8>
30003f8c:	e1a02006 	mov	r2, r6
30003f90:	e1a03000 	mov	r3, r0
30003f94:	ea000001 	b	30003fa0 <do_mem_loop+0x9c>
30003f98:	e4921004 	ldr	r1, [r2], #4
30003f9c:	e2433001 	sub	r3, r3, #1	; 0x1
30003fa0:	e3530000 	cmp	r3, #0	; 0x0
30003fa4:	0afffff8 	beq	30003f8c <do_mem_loop+0x88>
30003fa8:	eafffffa 	b	30003f98 <do_mem_loop+0x94>
30003fac:	e3550002 	cmp	r5, #2	; 0x2
30003fb0:	1a000007 	bne	30003fd4 <do_mem_loop+0xd0>
30003fb4:	e1a02006 	mov	r2, r6
30003fb8:	e1a03000 	mov	r3, r0
30003fbc:	ea000001 	b	30003fc8 <do_mem_loop+0xc4>
30003fc0:	e0d210b2 	ldrh	r1, [r2], #2
30003fc4:	e2433001 	sub	r3, r3, #1	; 0x1
30003fc8:	e3530000 	cmp	r3, #0	; 0x0
30003fcc:	0afffff8 	beq	30003fb4 <do_mem_loop+0xb0>
30003fd0:	eafffffa 	b	30003fc0 <do_mem_loop+0xbc>
30003fd4:	e1a02006 	mov	r2, r6
30003fd8:	e1a03000 	mov	r3, r0
30003fdc:	ea000001 	b	30003fe8 <do_mem_loop+0xe4>
30003fe0:	e4d21001 	ldrb	r1, [r2], #1
30003fe4:	e2433001 	sub	r3, r3, #1	; 0x1
30003fe8:	e3530000 	cmp	r3, #0	; 0x0
30003fec:	0afffff8 	beq	30003fd4 <do_mem_loop+0xd0>
30003ff0:	eafffffa 	b	30003fe0 <do_mem_loop+0xdc>
30003ff4:	e3a00001 	mov	r0, #1	; 0x1
30003ff8:	e8bd8070 	pop	{r4, r5, r6, pc}

30003ffc <do_mem_cmp>:
30003ffc:	e3520004 	cmp	r2, #4	; 0x4
30004000:	e92d40f7 	push	{r0, r1, r2, r4, r5, r6, r7, lr}
30004004:	e1a01002 	mov	r1, r2
30004008:	e1a06003 	mov	r6, r3
3000400c:	0a000001 	beq	30004018 <do_mem_cmp+0x1c>
30004010:	eb000610 	bl	30005858 <cmd_usage>
30004014:	ea000003 	b	30004028 <do_mem_cmp+0x2c>
30004018:	e5930000 	ldr	r0, [r3]
3000401c:	eb0005e7 	bl	300057c0 <cmd_get_data_size>
30004020:	e2507000 	subs	r7, r0, #0	; 0x0
30004024:	aa000001 	bge	30004030 <do_mem_cmp+0x34>
30004028:	e3a04001 	mov	r4, #1	; 0x1
3000402c:	ea00004c 	b	30004164 <do_mem_cmp+0x168>
30004030:	e3a01000 	mov	r1, #0	; 0x0
30004034:	e3a02010 	mov	r2, #16	; 0x10
30004038:	e5960004 	ldr	r0, [r6, #4]
3000403c:	eb002640 	bl	3000d944 <simple_strtoul>
30004040:	e59f4124 	ldr	r4, [pc, #292]	; 3000416c <do_mem_cmp+0x170>
30004044:	e5943000 	ldr	r3, [r4]
30004048:	e3a01000 	mov	r1, #0	; 0x0
3000404c:	e0805003 	add	r5, r0, r3
30004050:	e3a02010 	mov	r2, #16	; 0x10
30004054:	e5960008 	ldr	r0, [r6, #8]
30004058:	eb002639 	bl	3000d944 <simple_strtoul>
3000405c:	e5943000 	ldr	r3, [r4]
30004060:	e3a01000 	mov	r1, #0	; 0x0
30004064:	e0804003 	add	r4, r0, r3
30004068:	e3a02010 	mov	r2, #16	; 0x10
3000406c:	e596000c 	ldr	r0, [r6, #12]
30004070:	eb002633 	bl	3000d944 <simple_strtoul>
30004074:	e3a06000 	mov	r6, #0	; 0x0
30004078:	ea000025 	b	30004114 <do_mem_cmp+0x118>
3000407c:	e3570004 	cmp	r7, #4	; 0x4
30004080:	1a00000b 	bne	300040b4 <do_mem_cmp+0xb8>
30004084:	e5952000 	ldr	r2, [r5]
30004088:	e594c000 	ldr	ip, [r4]
3000408c:	e152000c 	cmp	r2, ip
30004090:	0a00001c 	beq	30004108 <do_mem_cmp+0x10c>
30004094:	e1a03004 	mov	r3, r4
30004098:	e59f00d0 	ldr	r0, [pc, #208]	; 30004170 <do_mem_cmp+0x174>
3000409c:	e1a01005 	mov	r1, r5
300040a0:	e58dc000 	str	ip, [sp]
300040a4:	e3a04001 	mov	r4, #1	; 0x1
300040a8:	eb000895 	bl	30006304 <printf>
300040ac:	e59f00c0 	ldr	r0, [pc, #192]	; 30004174 <do_mem_cmp+0x178>
300040b0:	ea000023 	b	30004144 <do_mem_cmp+0x148>
300040b4:	e3570002 	cmp	r7, #2	; 0x2
300040b8:	1a000007 	bne	300040dc <do_mem_cmp+0xe0>
300040bc:	e1d520b0 	ldrh	r2, [r5]
300040c0:	e1d4c0b0 	ldrh	ip, [r4]
300040c4:	e152000c 	cmp	r2, ip
300040c8:	0a00000e 	beq	30004108 <do_mem_cmp+0x10c>
300040cc:	e1a01005 	mov	r1, r5
300040d0:	e1a03004 	mov	r3, r4
300040d4:	e59f009c 	ldr	r0, [pc, #156]	; 30004178 <do_mem_cmp+0x17c>
300040d8:	ea000006 	b	300040f8 <do_mem_cmp+0xfc>
300040dc:	e5d52000 	ldrb	r2, [r5]
300040e0:	e5d4c000 	ldrb	ip, [r4]
300040e4:	e152000c 	cmp	r2, ip
300040e8:	0a000006 	beq	30004108 <do_mem_cmp+0x10c>
300040ec:	e59f0088 	ldr	r0, [pc, #136]	; 3000417c <do_mem_cmp+0x180>
300040f0:	e1a01005 	mov	r1, r5
300040f4:	e1a03004 	mov	r3, r4
300040f8:	e58dc000 	str	ip, [sp]
300040fc:	e3a04001 	mov	r4, #1	; 0x1
30004100:	eb00087f 	bl	30006304 <printf>
30004104:	ea000009 	b	30004130 <do_mem_cmp+0x134>
30004108:	e2866001 	add	r6, r6, #1	; 0x1
3000410c:	e0855007 	add	r5, r5, r7
30004110:	e0844007 	add	r4, r4, r7
30004114:	e1500006 	cmp	r0, r6
30004118:	1affffd7 	bne	3000407c <do_mem_cmp+0x80>
3000411c:	e3570004 	cmp	r7, #4	; 0x4
30004120:	059f004c 	ldreq	r0, [pc, #76]	; 30004174 <do_mem_cmp+0x178>
30004124:	03a04000 	moveq	r4, #0	; 0x0
30004128:	0a000005 	beq	30004144 <do_mem_cmp+0x148>
3000412c:	e3a04000 	mov	r4, #0	; 0x0
30004130:	e59f2048 	ldr	r2, [pc, #72]	; 30004180 <do_mem_cmp+0x184>
30004134:	e59f3048 	ldr	r3, [pc, #72]	; 30004184 <do_mem_cmp+0x188>
30004138:	e3570002 	cmp	r7, #2	; 0x2
3000413c:	01a00003 	moveq	r0, r3
30004140:	11a00002 	movne	r0, r2
30004144:	e59f203c 	ldr	r2, [pc, #60]	; 30004188 <do_mem_cmp+0x18c>
30004148:	e3560001 	cmp	r6, #1	; 0x1
3000414c:	e59f3038 	ldr	r3, [pc, #56]	; 3000418c <do_mem_cmp+0x190>
30004150:	e1a01006 	mov	r1, r6
30004154:	11a03002 	movne	r3, r2
30004158:	e1a02000 	mov	r2, r0
3000415c:	e59f002c 	ldr	r0, [pc, #44]	; 30004190 <do_mem_cmp+0x194>
30004160:	eb000867 	bl	30006304 <printf>
30004164:	e1a00004 	mov	r0, r4
30004168:	e8bd80fe 	pop	{r1, r2, r3, r4, r5, r6, r7, pc}
3000416c:	3001c410 	.word	0x3001c410
30004170:	30018e49 	.word	0x30018e49
30004174:	30018efe 	.word	0x30018efe
30004178:	30018e81 	.word	0x30018e81
3000417c:	30018ebf 	.word	0x30018ebf
30004180:	30018ef5 	.word	0x30018ef5
30004184:	30018efa 	.word	0x30018efa
30004188:	3001a8e5 	.word	0x3001a8e5
3000418c:	30018e0b 	.word	0x30018e0b
30004190:	30018f03 	.word	0x30018f03

30004194 <do_mem_mw>:
30004194:	e92d47f0 	push	{r4, r5, r6, r7, r8, r9, sl, lr}
30004198:	e1a0a002 	mov	sl, r2
3000419c:	e2422003 	sub	r2, r2, #3	; 0x3
300041a0:	e3520001 	cmp	r2, #1	; 0x1
300041a4:	e1a04003 	mov	r4, r3
300041a8:	9a000001 	bls	300041b4 <do_mem_mw+0x20>
300041ac:	eb0005a9 	bl	30005858 <cmd_usage>
300041b0:	ea000004 	b	300041c8 <do_mem_mw+0x34>
300041b4:	e5930000 	ldr	r0, [r3]
300041b8:	e3a01004 	mov	r1, #4	; 0x4
300041bc:	eb00057f 	bl	300057c0 <cmd_get_data_size>
300041c0:	e2506000 	subs	r6, r0, #0	; 0x0
300041c4:	ca000001 	bgt	300041d0 <do_mem_mw+0x3c>
300041c8:	e3a00001 	mov	r0, #1	; 0x1
300041cc:	e8bd87f0 	pop	{r4, r5, r6, r7, r8, r9, sl, pc}
300041d0:	e3a01000 	mov	r1, #0	; 0x0
300041d4:	e3a02010 	mov	r2, #16	; 0x10
300041d8:	e5940004 	ldr	r0, [r4, #4]
300041dc:	eb0025d8 	bl	3000d944 <simple_strtoul>
300041e0:	e59f3070 	ldr	r3, [pc, #112]	; 30004258 <do_mem_mw+0xc4>
300041e4:	e1a09000 	mov	r9, r0
300041e8:	e3a01000 	mov	r1, #0	; 0x0
300041ec:	e5940008 	ldr	r0, [r4, #8]
300041f0:	e3a02010 	mov	r2, #16	; 0x10
300041f4:	e5937000 	ldr	r7, [r3]
300041f8:	eb0025d1 	bl	3000d944 <simple_strtoul>
300041fc:	e35a0004 	cmp	sl, #4	; 0x4
30004200:	e1a05000 	mov	r5, r0
30004204:	13a03001 	movne	r3, #1	; 0x1
30004208:	1a000004 	bne	30004220 <do_mem_mw+0x8c>
3000420c:	e594000c 	ldr	r0, [r4, #12]
30004210:	e3a01000 	mov	r1, #0	; 0x0
30004214:	e3a02010 	mov	r2, #16	; 0x10
30004218:	eb0025c9 	bl	3000d944 <simple_strtoul>
3000421c:	e1a03000 	mov	r3, r0
30004220:	e0890007 	add	r0, r9, r7
30004224:	ea000007 	b	30004248 <do_mem_mw+0xb4>
30004228:	e3560004 	cmp	r6, #4	; 0x4
3000422c:	05805000 	streq	r5, [r0]
30004230:	0a000002 	beq	30004240 <do_mem_mw+0xac>
30004234:	e3560002 	cmp	r6, #2	; 0x2
30004238:	01c050b0 	strheq	r5, [r0]
3000423c:	15c05000 	strbne	r5, [r0]
30004240:	e0800006 	add	r0, r0, r6
30004244:	e2433001 	sub	r3, r3, #1	; 0x1
30004248:	e3530000 	cmp	r3, #0	; 0x0
3000424c:	1afffff5 	bne	30004228 <do_mem_mw+0x94>
30004250:	e1a00003 	mov	r0, r3
30004254:	e8bd87f0 	pop	{r4, r5, r6, r7, r8, r9, sl, pc}
30004258:	3001c410 	.word	0x3001c410

3000425c <do_mem_cp>:
3000425c:	e3520004 	cmp	r2, #4	; 0x4
30004260:	e92d4ef0 	push	{r4, r5, r6, r7, r9, sl, fp, lr}
30004264:	e1a01002 	mov	r1, r2
30004268:	e1a05003 	mov	r5, r3
3000426c:	0a000001 	beq	30004278 <do_mem_cp+0x1c>
30004270:	eb000578 	bl	30005858 <cmd_usage>
30004274:	ea000028 	b	3000431c <do_mem_cp+0xc0>
30004278:	e5930000 	ldr	r0, [r3]
3000427c:	eb00054f 	bl	300057c0 <cmd_get_data_size>
30004280:	e2507000 	subs	r7, r0, #0	; 0x0
30004284:	ba000024 	blt	3000431c <do_mem_cp+0xc0>
30004288:	e3a01000 	mov	r1, #0	; 0x0
3000428c:	e3a02010 	mov	r2, #16	; 0x10
30004290:	e5950004 	ldr	r0, [r5, #4]
30004294:	eb0025aa 	bl	3000d944 <simple_strtoul>
30004298:	e59f40d0 	ldr	r4, [pc, #208]	; 30004370 <do_mem_cp+0x114>
3000429c:	e3a01000 	mov	r1, #0	; 0x0
300042a0:	e3a02010 	mov	r2, #16	; 0x10
300042a4:	e1a0b000 	mov	fp, r0
300042a8:	e5950008 	ldr	r0, [r5, #8]
300042ac:	e5949000 	ldr	r9, [r4]
300042b0:	eb0025a3 	bl	3000d944 <simple_strtoul>
300042b4:	e3a01000 	mov	r1, #0	; 0x0
300042b8:	e1a0a000 	mov	sl, r0
300042bc:	e3a02010 	mov	r2, #16	; 0x10
300042c0:	e595000c 	ldr	r0, [r5, #12]
300042c4:	e5944000 	ldr	r4, [r4]
300042c8:	eb00259d 	bl	3000d944 <simple_strtoul>
300042cc:	e2506000 	subs	r6, r0, #0	; 0x0
300042d0:	1a000002 	bne	300042e0 <do_mem_cp+0x84>
300042d4:	e59f0098 	ldr	r0, [pc, #152]	; 30004374 <do_mem_cp+0x118>
300042d8:	eb0007f7 	bl	300062bc <puts>
300042dc:	ea00000e 	b	3000431c <do_mem_cp+0xc0>
300042e0:	e08a4004 	add	r4, sl, r4
300042e4:	e1a00004 	mov	r0, r4
300042e8:	eb000db2 	bl	300079b8 <addr2info>
300042ec:	e3500000 	cmp	r0, #0	; 0x0
300042f0:	e08b5009 	add	r5, fp, r9
300042f4:	0a00000e 	beq	30004334 <do_mem_cp+0xd8>
300042f8:	e59f0078 	ldr	r0, [pc, #120]	; 30004378 <do_mem_cp+0x11c>
300042fc:	eb0007ee 	bl	300062bc <puts>
30004300:	e1a01004 	mov	r1, r4
30004304:	e1a00005 	mov	r0, r5
30004308:	e0020697 	mul	r2, r7, r6
3000430c:	eb000df3 	bl	30007ae0 <flash_write>
30004310:	e2504000 	subs	r4, r0, #0	; 0x0
30004314:	0a000002 	beq	30004324 <do_mem_cp+0xc8>
30004318:	eb000db8 	bl	30007a00 <flash_perror>
3000431c:	e3a00001 	mov	r0, #1	; 0x1
30004320:	e8bd8ef0 	pop	{r4, r5, r6, r7, r9, sl, fp, pc}
30004324:	e59f0050 	ldr	r0, [pc, #80]	; 3000437c <do_mem_cp+0x120>
30004328:	eb0007e3 	bl	300062bc <puts>
3000432c:	e1a00004 	mov	r0, r4
30004330:	e8bd8ef0 	pop	{r4, r5, r6, r7, r9, sl, fp, pc}
30004334:	e3570004 	cmp	r7, #4	; 0x4
30004338:	05953000 	ldreq	r3, [r5]
3000433c:	05843000 	streq	r3, [r4]
30004340:	0a000004 	beq	30004358 <do_mem_cp+0xfc>
30004344:	e3570002 	cmp	r7, #2	; 0x2
30004348:	01d530b0 	ldrheq	r3, [r5]
3000434c:	15d53000 	ldrbne	r3, [r5]
30004350:	01c430b0 	strheq	r3, [r4]
30004354:	15c43000 	strbne	r3, [r4]
30004358:	e2566001 	subs	r6, r6, #1	; 0x1
3000435c:	e0855007 	add	r5, r5, r7
30004360:	e0844007 	add	r4, r4, r7
30004364:	1afffff2 	bne	30004334 <do_mem_cp+0xd8>
30004368:	e1a00006 	mov	r0, r6
3000436c:	e8bd8ef0 	pop	{r4, r5, r6, r7, r9, sl, fp, pc}
30004370:	3001c410 	.word	0x3001c410
30004374:	30018f24 	.word	0x30018f24
30004378:	30018f35 	.word	0x30018f35
3000437c:	3001af1a 	.word	0x3001af1a

30004380 <mod_mem>:
30004380:	e92d46f7 	push	{r0, r1, r2, r4, r5, r6, r7, r9, sl, lr}
30004384:	e3530002 	cmp	r3, #2	; 0x2
30004388:	e1a09001 	mov	r9, r1
3000438c:	e59da028 	ldr	sl, [sp, #40]
30004390:	0a000001 	beq	3000439c <mod_mem+0x1c>
30004394:	eb00052f 	bl	30005858 <cmd_usage>
30004398:	ea00000a 	b	300043c8 <mod_mem+0x48>
3000439c:	e59f4110 	ldr	r4, [pc, #272]	; 300044b4 <mod_mem+0x134>
300043a0:	e5940008 	ldr	r0, [r4, #8]
300043a4:	e2127001 	ands	r7, r2, #1	; 0x1
300043a8:	e5945004 	ldr	r5, [r4, #4]
300043ac:	11a06000 	movne	r6, r0
300043b0:	1a00000c 	bne	300043e8 <mod_mem+0x68>
300043b4:	e59a0000 	ldr	r0, [sl]
300043b8:	e3a01004 	mov	r1, #4	; 0x4
300043bc:	eb0004ff 	bl	300057c0 <cmd_get_data_size>
300043c0:	e2506000 	subs	r6, r0, #0	; 0x0
300043c4:	aa000001 	bge	300043d0 <mod_mem+0x50>
300043c8:	e3a00001 	mov	r0, #1	; 0x1
300043cc:	ea000037 	b	300044b0 <mod_mem+0x130>
300043d0:	e59a0004 	ldr	r0, [sl, #4]
300043d4:	e1a01007 	mov	r1, r7
300043d8:	e3a02010 	mov	r2, #16	; 0x10
300043dc:	eb002558 	bl	3000d944 <simple_strtoul>
300043e0:	e5943000 	ldr	r3, [r4]
300043e4:	e0805003 	add	r5, r0, r3
300043e8:	e59f00c8 	ldr	r0, [pc, #200]	; 300044b8 <mod_mem+0x138>
300043ec:	e1a01005 	mov	r1, r5
300043f0:	eb0007c3 	bl	30006304 <printf>
300043f4:	e3560004 	cmp	r6, #4	; 0x4
300043f8:	059f00bc 	ldreq	r0, [pc, #188]	; 300044bc <mod_mem+0x13c>
300043fc:	05951000 	ldreq	r1, [r5]
30004400:	0a000004 	beq	30004418 <mod_mem+0x98>
30004404:	e3560002 	cmp	r6, #2	; 0x2
30004408:	059f00b0 	ldreq	r0, [pc, #176]	; 300044c0 <mod_mem+0x140>
3000440c:	01d510b0 	ldrheq	r1, [r5]
30004410:	159f00ac 	ldrne	r0, [pc, #172]	; 300044c4 <mod_mem+0x144>
30004414:	15d51000 	ldrbne	r1, [r5]
30004418:	eb0007b9 	bl	30006304 <printf>
3000441c:	e59f00a4 	ldr	r0, [pc, #164]	; 300044c8 <mod_mem+0x148>
30004420:	eb001b3e 	bl	3000b120 <readline>
30004424:	e3500000 	cmp	r0, #0	; 0x0
30004428:	0a000005 	beq	30004444 <mod_mem+0xc4>
3000442c:	e3500001 	cmp	r0, #1	; 0x1
30004430:	1a00000a 	bne	30004460 <mod_mem+0xe0>
30004434:	e59f3090 	ldr	r3, [pc, #144]	; 300044cc <mod_mem+0x14c>
30004438:	e5d33000 	ldrb	r3, [r3]
3000443c:	e353002d 	cmp	r3, #45	; 0x2d
30004440:	1a000006 	bne	30004460 <mod_mem+0xe0>
30004444:	e3590000 	cmp	r9, #0	; 0x0
30004448:	0affffe6 	beq	300043e8 <mod_mem+0x68>
3000444c:	e3500000 	cmp	r0, #0	; 0x0
30004450:	12663000 	rsbne	r3, r6, #0	; 0x0
30004454:	01a03006 	moveq	r3, r6
30004458:	e0855003 	add	r5, r5, r3
3000445c:	eaffffe1 	b	300043e8 <mod_mem+0x68>
30004460:	e59f4064 	ldr	r4, [pc, #100]	; 300044cc <mod_mem+0x14c>
30004464:	e28d1004 	add	r1, sp, #4	; 0x4
30004468:	e1a00004 	mov	r0, r4
3000446c:	e3a02010 	mov	r2, #16	; 0x10
30004470:	eb002533 	bl	3000d944 <simple_strtoul>
30004474:	e59d3004 	ldr	r3, [sp, #4]
30004478:	e1530004 	cmp	r3, r4
3000447c:	0a000008 	beq	300044a4 <mod_mem+0x124>
30004480:	e3560004 	cmp	r6, #4	; 0x4
30004484:	05850000 	streq	r0, [r5]
30004488:	0a000002 	beq	30004498 <mod_mem+0x118>
3000448c:	e3560002 	cmp	r6, #2	; 0x2
30004490:	01c500b0 	strheq	r0, [r5]
30004494:	15c50000 	strbne	r0, [r5]
30004498:	e3590000 	cmp	r9, #0	; 0x0
3000449c:	10855006 	addne	r5, r5, r6
300044a0:	eaffffd0 	b	300043e8 <mod_mem+0x68>
300044a4:	e59f3008 	ldr	r3, [pc, #8]	; 300044b4 <mod_mem+0x134>
300044a8:	e9830060 	stmib	r3, {r5, r6}
300044ac:	e3a00000 	mov	r0, #0	; 0x0
300044b0:	e8bd86fe 	pop	{r1, r2, r3, r4, r5, r6, r7, r9, sl, pc}
300044b4:	3001c410 	.word	0x3001c410
300044b8:	30018f47 	.word	0x30018f47
300044bc:	30018f4e 	.word	0x30018f4e
300044c0:	30018f54 	.word	0x30018f54
300044c4:	30018f5a 	.word	0x30018f5a
300044c8:	30018f60 	.word	0x30018f60
300044cc:	3001db28 	.word	0x3001db28

300044d0 <do_mem_nm>:
300044d0:	e92d4007 	push	{r0, r1, r2, lr}
300044d4:	e1a0c002 	mov	ip, r2
300044d8:	e58d3000 	str	r3, [sp]
300044dc:	e1a02001 	mov	r2, r1
300044e0:	e1a0300c 	mov	r3, ip
300044e4:	e3a01000 	mov	r1, #0	; 0x0
300044e8:	ebffffa4 	bl	30004380 <mod_mem>
300044ec:	e8bd800e 	pop	{r1, r2, r3, pc}

300044f0 <do_mem_mm>:
300044f0:	e92d4007 	push	{r0, r1, r2, lr}
300044f4:	e1a0c002 	mov	ip, r2
300044f8:	e58d3000 	str	r3, [sp]
300044fc:	e1a02001 	mov	r2, r1
30004500:	e1a0300c 	mov	r3, ip
30004504:	e3a01001 	mov	r1, #1	; 0x1
30004508:	ebffff9c 	bl	30004380 <mod_mem>
3000450c:	e8bd800e 	pop	{r1, r2, r3, pc}

30004510 <do_mem_md>:
30004510:	e92d4ef3 	push	{r0, r1, r4, r5, r6, r7, r9, sl, fp, lr}
30004514:	e59fa0c4 	ldr	sl, [pc, #196]	; 300045e0 <do_mem_md+0xd0>
30004518:	e1a06003 	mov	r6, r3
3000451c:	e59f30c0 	ldr	r3, [pc, #192]	; 300045e4 <do_mem_md+0xd4>
30004520:	e3520001 	cmp	r2, #1	; 0x1
30004524:	e1a0b002 	mov	fp, r2
30004528:	e5937000 	ldr	r7, [r3]
3000452c:	e59a400c 	ldr	r4, [sl, #12]
30004530:	e59a2010 	ldr	r2, [sl, #16]
30004534:	ca000001 	bgt	30004540 <do_mem_md+0x30>
30004538:	eb0004c6 	bl	30005858 <cmd_usage>
3000453c:	ea000007 	b	30004560 <do_mem_md+0x50>
30004540:	e2119001 	ands	r9, r1, #1	; 0x1
30004544:	11a05002 	movne	r5, r2
30004548:	1a000013 	bne	3000459c <do_mem_md+0x8c>
3000454c:	e5960000 	ldr	r0, [r6]
30004550:	e3a01004 	mov	r1, #4	; 0x4
30004554:	eb000499 	bl	300057c0 <cmd_get_data_size>
30004558:	e2505000 	subs	r5, r0, #0	; 0x0
3000455c:	aa000001 	bge	30004568 <do_mem_md+0x58>
30004560:	e3a00001 	mov	r0, #1	; 0x1
30004564:	ea00001c 	b	300045dc <do_mem_md+0xcc>
30004568:	e5960004 	ldr	r0, [r6, #4]
3000456c:	e1a01009 	mov	r1, r9
30004570:	e3a02010 	mov	r2, #16	; 0x10
30004574:	eb0024f2 	bl	3000d944 <simple_strtoul>
30004578:	e59a3000 	ldr	r3, [sl]
3000457c:	e35b0002 	cmp	fp, #2	; 0x2
30004580:	e0804003 	add	r4, r0, r3
30004584:	0a000004 	beq	3000459c <do_mem_md+0x8c>
30004588:	e5960008 	ldr	r0, [r6, #8]
3000458c:	e1a01009 	mov	r1, r9
30004590:	e3a02010 	mov	r2, #16	; 0x10
30004594:	eb0024ea 	bl	3000d944 <simple_strtoul>
30004598:	e1a07000 	mov	r7, r0
3000459c:	e1a01005 	mov	r1, r5
300045a0:	e3a00010 	mov	r0, #16	; 0x10
300045a4:	eb0045cd 	bl	30015ce0 <__aeabi_idiv>
300045a8:	e1a01004 	mov	r1, r4
300045ac:	e58d0000 	str	r0, [sp]
300045b0:	e1a02005 	mov	r2, r5
300045b4:	e1a03007 	mov	r3, r7
300045b8:	e1a00004 	mov	r0, r4
300045bc:	eb00211b 	bl	3000ca30 <print_buffer>
300045c0:	e0214597 	mla	r1, r7, r5, r4
300045c4:	e59f2014 	ldr	r2, [pc, #20]	; 300045e0 <do_mem_md+0xd0>
300045c8:	e59f3014 	ldr	r3, [pc, #20]	; 300045e4 <do_mem_md+0xd4>
300045cc:	e5825010 	str	r5, [r2, #16]
300045d0:	e5837000 	str	r7, [r3]
300045d4:	e582100c 	str	r1, [r2, #12]
300045d8:	e3a00000 	mov	r0, #0	; 0x0
300045dc:	e8bd8efc 	pop	{r2, r3, r4, r5, r6, r7, r9, sl, fp, pc}
300045e0:	3001c410 	.word	0x3001c410
300045e4:	3001b404 	.word	0x3001b404

300045e8 <do_sleep>:
300045e8:	e92d41f0 	push	{r4, r5, r6, r7, r8, lr}
300045ec:	e1a06000 	mov	r6, r0
300045f0:	e3a00000 	mov	r0, #0	; 0x0
300045f4:	e1a04002 	mov	r4, r2
300045f8:	e1a05003 	mov	r5, r3
300045fc:	eb00326e 	bl	30010fbc <get_timer>
30004600:	e3540002 	cmp	r4, #2	; 0x2
30004604:	e1a07000 	mov	r7, r0
30004608:	0a000003 	beq	3000461c <do_sleep+0x34>
3000460c:	e1a00006 	mov	r0, r6
30004610:	eb000490 	bl	30005858 <cmd_usage>
30004614:	e3a00001 	mov	r0, #1	; 0x1
30004618:	e8bd81f0 	pop	{r4, r5, r6, r7, r8, pc}
3000461c:	e5950004 	ldr	r0, [r5, #4]
30004620:	e3a01000 	mov	r1, #0	; 0x0
30004624:	e3a0200a 	mov	r2, #10	; 0xa
30004628:	eb0024c5 	bl	3000d944 <simple_strtoul>
3000462c:	e3a03ffa 	mov	r3, #1000	; 0x3e8
30004630:	e0040093 	mul	r4, r3, r0
30004634:	ea000006 	b	30004654 <do_sleep+0x6c>
30004638:	eb0007cb 	bl	3000656c <ctrlc>
3000463c:	e3500000 	cmp	r0, #0	; 0x0
30004640:	e3a00064 	mov	r0, #100	; 0x64
30004644:	0a000001 	beq	30004650 <do_sleep+0x68>
30004648:	e3e00000 	mvn	r0, #0	; 0x0
3000464c:	e8bd81f0 	pop	{r4, r5, r6, r7, r8, pc}
30004650:	eb00325e 	bl	30010fd0 <udelay>
30004654:	e1a00007 	mov	r0, r7
30004658:	eb003257 	bl	30010fbc <get_timer>
3000465c:	e1500004 	cmp	r0, r4
30004660:	3afffff4 	bcc	30004638 <do_sleep+0x50>
30004664:	e3a00000 	mov	r0, #0	; 0x0
30004668:	e8bd81f0 	pop	{r4, r5, r6, r7, r8, pc}

3000466c <do_ping>:
3000466c:	e3520001 	cmp	r2, #1	; 0x1
30004670:	e92d4070 	push	{r4, r5, r6, lr}
30004674:	e1a05000 	mov	r5, r0
30004678:	e1a04003 	mov	r4, r3
3000467c:	da000007 	ble	300046a0 <do_ping+0x34>
30004680:	e5930004 	ldr	r0, [r3, #4]
30004684:	eb0033a0 	bl	3001150c <string_to_ip>
30004688:	e59f3050 	ldr	r3, [pc, #80]	; 300046e0 <do_ping+0x74>
3000468c:	e3500000 	cmp	r0, #0	; 0x0
30004690:	e5830000 	str	r0, [r3]
30004694:	1a000003 	bne	300046a8 <do_ping+0x3c>
30004698:	e1a00005 	mov	r0, r5
3000469c:	eb00046d 	bl	30005858 <cmd_usage>
300046a0:	e3e00000 	mvn	r0, #0	; 0x0
300046a4:	e8bd8070 	pop	{r4, r5, r6, pc}
300046a8:	e3a00005 	mov	r0, #5	; 0x5
300046ac:	eb00371d 	bl	30012328 <NetLoop>
300046b0:	e3500000 	cmp	r0, #0	; 0x0
300046b4:	aa000004 	bge	300046cc <do_ping+0x60>
300046b8:	e59f0024 	ldr	r0, [pc, #36]	; 300046e4 <do_ping+0x78>
300046bc:	e5941004 	ldr	r1, [r4, #4]
300046c0:	eb00070f 	bl	30006304 <printf>
300046c4:	e3a00001 	mov	r0, #1	; 0x1
300046c8:	e8bd8070 	pop	{r4, r5, r6, pc}
300046cc:	e5941004 	ldr	r1, [r4, #4]
300046d0:	e59f0010 	ldr	r0, [pc, #16]	; 300046e8 <do_ping+0x7c>
300046d4:	eb00070a 	bl	30006304 <printf>
300046d8:	e3a00000 	mov	r0, #0	; 0x0
300046dc:	e8bd8070 	pop	{r4, r5, r6, pc}
300046e0:	3001e154 	.word	0x3001e154
300046e4:	30019272 	.word	0x30019272
300046e8:	30019295 	.word	0x30019295

300046ec <netboot_common>:
300046ec:	e92d46f0 	push	{r4, r5, r6, r7, r9, sl, lr}
300046f0:	e1a0a000 	mov	sl, r0
300046f4:	e24dd02c 	sub	sp, sp, #44	; 0x2c
300046f8:	e59f029c 	ldr	r0, [pc, #668]	; 3000499c <netboot_common+0x2b0>
300046fc:	e1a09001 	mov	r9, r1
30004700:	e1a04002 	mov	r4, r2
30004704:	e1a07003 	mov	r7, r3
30004708:	eb000118 	bl	30004b70 <getenv>
3000470c:	e3500000 	cmp	r0, #0	; 0x0
30004710:	0a000004 	beq	30004728 <netboot_common+0x3c>
30004714:	e3a01000 	mov	r1, #0	; 0x0
30004718:	e3a02010 	mov	r2, #16	; 0x10
3000471c:	eb002488 	bl	3000d944 <simple_strtoul>
30004720:	e59f3278 	ldr	r3, [pc, #632]	; 300049a0 <netboot_common+0x2b4>
30004724:	e5830000 	str	r0, [r3]
30004728:	e3540002 	cmp	r4, #2	; 0x2
3000472c:	0a000004 	beq	30004744 <netboot_common+0x58>
30004730:	e3540003 	cmp	r4, #3	; 0x3
30004734:	0a000013 	beq	30004788 <netboot_common+0x9c>
30004738:	e3540001 	cmp	r4, #1	; 0x1
3000473c:	1a00001c 	bne	300047b4 <netboot_common+0xc8>
30004740:	ea00001f 	b	300047c4 <netboot_common+0xd8>
30004744:	e28d1024 	add	r1, sp, #36	; 0x24
30004748:	e3a02010 	mov	r2, #16	; 0x10
3000474c:	e5970004 	ldr	r0, [r7, #4]
30004750:	eb00247b 	bl	3000d944 <simple_strtoul>
30004754:	e5974004 	ldr	r4, [r7, #4]
30004758:	e1a06000 	mov	r6, r0
3000475c:	e1a00004 	mov	r0, r4
30004760:	e59d5024 	ldr	r5, [sp, #36]
30004764:	eb00233e 	bl	3000d464 <strlen>
30004768:	e0844000 	add	r4, r4, r0
3000476c:	e1550004 	cmp	r5, r4
30004770:	059f3228 	ldreq	r3, [pc, #552]	; 300049a0 <netboot_common+0x2b4>
30004774:	159f0228 	ldrne	r0, [pc, #552]	; 300049a4 <netboot_common+0x2b8>
30004778:	05836000 	streq	r6, [r3]
3000477c:	15971004 	ldrne	r1, [r7, #4]
30004780:	1a000008 	bne	300047a8 <netboot_common+0xbc>
30004784:	ea00000e 	b	300047c4 <netboot_common+0xd8>
30004788:	e3a01000 	mov	r1, #0	; 0x0
3000478c:	e5970004 	ldr	r0, [r7, #4]
30004790:	e3a02010 	mov	r2, #16	; 0x10
30004794:	eb00246a 	bl	3000d944 <simple_strtoul>
30004798:	e59f3200 	ldr	r3, [pc, #512]	; 300049a0 <netboot_common+0x2b4>
3000479c:	e5971008 	ldr	r1, [r7, #8]
300047a0:	e5830000 	str	r0, [r3]
300047a4:	e59f01f8 	ldr	r0, [pc, #504]	; 300049a4 <netboot_common+0x2b8>
300047a8:	e3a02080 	mov	r2, #128	; 0x80
300047ac:	eb003329 	bl	30011458 <copy_filename>
300047b0:	ea000003 	b	300047c4 <netboot_common+0xd8>
300047b4:	e1a00009 	mov	r0, r9
300047b8:	eb000426 	bl	30005858 <cmd_usage>
300047bc:	e3e0004f 	mvn	r0, #79	; 0x4f
300047c0:	ea000006 	b	300047e0 <netboot_common+0xf4>
300047c4:	e3a00050 	mov	r0, #80	; 0x50
300047c8:	eb001675 	bl	3000a1a4 <__show_boot_progress>
300047cc:	e1a0000a 	mov	r0, sl
300047d0:	eb0036d4 	bl	30012328 <NetLoop>
300047d4:	e2506000 	subs	r6, r0, #0	; 0x0
300047d8:	aa000003 	bge	300047ec <netboot_common+0x100>
300047dc:	e3e00050 	mvn	r0, #80	; 0x50
300047e0:	eb00166f 	bl	3000a1a4 <__show_boot_progress>
300047e4:	e3a04001 	mov	r4, #1	; 0x1
300047e8:	ea000066 	b	30004988 <netboot_common+0x29c>
300047ec:	e3a00051 	mov	r0, #81	; 0x51
300047f0:	eb00166b 	bl	3000a1a4 <__show_boot_progress>
300047f4:	e59f31ac 	ldr	r3, [pc, #428]	; 300049a8 <netboot_common+0x2bc>
300047f8:	e5930000 	ldr	r0, [r3]
300047fc:	e3500000 	cmp	r0, #0	; 0x0
30004800:	0a000005 	beq	3000481c <netboot_common+0x130>
30004804:	e28d4006 	add	r4, sp, #6	; 0x6
30004808:	e1a01004 	mov	r1, r4
3000480c:	eb003382 	bl	3001161c <ip_to_string>
30004810:	e1a01004 	mov	r1, r4
30004814:	e59f0190 	ldr	r0, [pc, #400]	; 300049ac <netboot_common+0x2c0>
30004818:	eb000268 	bl	300051c0 <setenv>
3000481c:	e59f318c 	ldr	r3, [pc, #396]	; 300049b0 <netboot_common+0x2c4>
30004820:	e5930000 	ldr	r0, [r3]
30004824:	e3500000 	cmp	r0, #0	; 0x0
30004828:	0a000005 	beq	30004844 <netboot_common+0x158>
3000482c:	e28d4006 	add	r4, sp, #6	; 0x6
30004830:	e1a01004 	mov	r1, r4
30004834:	eb003378 	bl	3001161c <ip_to_string>
30004838:	e1a01004 	mov	r1, r4
3000483c:	e59f0170 	ldr	r0, [pc, #368]	; 300049b4 <netboot_common+0x2c8>
30004840:	eb00025e 	bl	300051c0 <setenv>
30004844:	e59f116c 	ldr	r1, [pc, #364]	; 300049b8 <netboot_common+0x2cc>
30004848:	e5d13000 	ldrb	r3, [r1]
3000484c:	e3530000 	cmp	r3, #0	; 0x0
30004850:	159f0164 	ldrne	r0, [pc, #356]	; 300049bc <netboot_common+0x2d0>
30004854:	1b000259 	blne	300051c0 <setenv>
30004858:	e59f1160 	ldr	r1, [pc, #352]	; 300049c0 <netboot_common+0x2d4>
3000485c:	e5d13000 	ldrb	r3, [r1]
30004860:	e3530000 	cmp	r3, #0	; 0x0
30004864:	159f0158 	ldrne	r0, [pc, #344]	; 300049c4 <netboot_common+0x2d8>
30004868:	1b000254 	blne	300051c0 <setenv>
3000486c:	e59f3154 	ldr	r3, [pc, #340]	; 300049c8 <netboot_common+0x2dc>
30004870:	e5930000 	ldr	r0, [r3]
30004874:	e3500000 	cmp	r0, #0	; 0x0
30004878:	0a000005 	beq	30004894 <netboot_common+0x1a8>
3000487c:	e28d4006 	add	r4, sp, #6	; 0x6
30004880:	e1a01004 	mov	r1, r4
30004884:	eb003364 	bl	3001161c <ip_to_string>
30004888:	e1a01004 	mov	r1, r4
3000488c:	e59f0138 	ldr	r0, [pc, #312]	; 300049cc <netboot_common+0x2e0>
30004890:	eb00024a 	bl	300051c0 <setenv>
30004894:	e59f3134 	ldr	r3, [pc, #308]	; 300049d0 <netboot_common+0x2e4>
30004898:	e5930000 	ldr	r0, [r3]
3000489c:	e3500000 	cmp	r0, #0	; 0x0
300048a0:	0a000005 	beq	300048bc <netboot_common+0x1d0>
300048a4:	e28d4006 	add	r4, sp, #6	; 0x6
300048a8:	e1a01004 	mov	r1, r4
300048ac:	eb00335a 	bl	3001161c <ip_to_string>
300048b0:	e1a01004 	mov	r1, r4
300048b4:	e59f0118 	ldr	r0, [pc, #280]	; 300049d4 <netboot_common+0x2e8>
300048b8:	eb000240 	bl	300051c0 <setenv>
300048bc:	e59f3114 	ldr	r3, [pc, #276]	; 300049d8 <netboot_common+0x2ec>
300048c0:	e5930000 	ldr	r0, [r3]
300048c4:	e3500000 	cmp	r0, #0	; 0x0
300048c8:	0a000005 	beq	300048e4 <netboot_common+0x1f8>
300048cc:	e28d4006 	add	r4, sp, #6	; 0x6
300048d0:	e1a01004 	mov	r1, r4
300048d4:	eb003350 	bl	3001161c <ip_to_string>
300048d8:	e1a01004 	mov	r1, r4
300048dc:	e59f00f8 	ldr	r0, [pc, #248]	; 300049dc <netboot_common+0x2f0>
300048e0:	eb000236 	bl	300051c0 <setenv>
300048e4:	e59f10f4 	ldr	r1, [pc, #244]	; 300049e0 <netboot_common+0x2f4>
300048e8:	e5d13000 	ldrb	r3, [r1]
300048ec:	e3530000 	cmp	r3, #0	; 0x0
300048f0:	159f00ec 	ldrne	r0, [pc, #236]	; 300049e4 <netboot_common+0x2f8>
300048f4:	1b000231 	blne	300051c0 <setenv>
300048f8:	e3560000 	cmp	r6, #0	; 0x0
300048fc:	1a000003 	bne	30004910 <netboot_common+0x224>
30004900:	e3e00051 	mvn	r0, #81	; 0x51
30004904:	eb001626 	bl	3000a1a4 <__show_boot_progress>
30004908:	e1a04006 	mov	r4, r6
3000490c:	ea00001d 	b	30004988 <netboot_common+0x29c>
30004910:	e59f5088 	ldr	r5, [pc, #136]	; 300049a0 <netboot_common+0x2b4>
30004914:	e1a01006 	mov	r1, r6
30004918:	e5950000 	ldr	r0, [r5]
3000491c:	eb00325c 	bl	30011294 <flush_cache>
30004920:	e59f00c0 	ldr	r0, [pc, #192]	; 300049e8 <netboot_common+0x2fc>
30004924:	eb000091 	bl	30004b70 <getenv>
30004928:	e3500000 	cmp	r0, #0	; 0x0
3000492c:	0a000018 	beq	30004994 <netboot_common+0x2a8>
30004930:	e59f10b4 	ldr	r1, [pc, #180]	; 300049ec <netboot_common+0x300>
30004934:	eb00229d 	bl	3000d3b0 <strcmp>
30004938:	e2504000 	subs	r4, r0, #0	; 0x0
3000493c:	1a000014 	bne	30004994 <netboot_common+0x2a8>
30004940:	e5973000 	ldr	r3, [r7]
30004944:	e5951000 	ldr	r1, [r5]
30004948:	e59f00a0 	ldr	r0, [pc, #160]	; 300049f0 <netboot_common+0x304>
3000494c:	e58d301c 	str	r3, [sp, #28]
30004950:	e58d4020 	str	r4, [sp, #32]
30004954:	eb00066a 	bl	30006304 <printf>
30004958:	e3a00052 	mov	r0, #82	; 0x52
3000495c:	eb001610 	bl	3000a1a4 <__show_boot_progress>
30004960:	e1a01004 	mov	r1, r4
30004964:	e1a00009 	mov	r0, r9
30004968:	e3a02001 	mov	r2, #1	; 0x1
3000496c:	e28d301c 	add	r3, sp, #28	; 0x1c
30004970:	ebfff2fa 	bl	30001560 <do_bootm>
30004974:	e2504000 	subs	r4, r0, #0	; 0x0
30004978:	b3e00052 	mvnlt	r0, #82	; 0x52
3000497c:	ba000000 	blt	30004984 <netboot_common+0x298>
30004980:	e3a00054 	mov	r0, #84	; 0x54
30004984:	eb001606 	bl	3000a1a4 <__show_boot_progress>
30004988:	e1a00004 	mov	r0, r4
3000498c:	e28dd02c 	add	sp, sp, #44	; 0x2c
30004990:	e8bd86f0 	pop	{r4, r5, r6, r7, r9, sl, pc}
30004994:	e3a04000 	mov	r4, #0	; 0x0
30004998:	eafffff8 	b	30004980 <netboot_common+0x294>
3000499c:	300175b9 	.word	0x300175b9
300049a0:	3001b2e8 	.word	0x3001b2e8
300049a4:	30020692 	.word	0x30020692
300049a8:	3001e188 	.word	0x3001e188
300049ac:	300192a7 	.word	0x300192a7
300049b0:	3001e184 	.word	0x3001e184
300049b4:	300192b1 	.word	0x300192b1
300049b8:	30020630 	.word	0x30020630
300049bc:	300180e7 	.word	0x300180e7
300049c0:	30020650 	.word	0x30020650
300049c4:	300192b9 	.word	0x300192b9
300049c8:	3001e148 	.word	0x3001e148
300049cc:	300180cb 	.word	0x300180cb
300049d0:	3001e174 	.word	0x3001e174
300049d4:	300180d8 	.word	0x300180d8
300049d8:	3002060c 	.word	0x3002060c
300049dc:	300192c2 	.word	0x300192c2
300049e0:	30020610 	.word	0x30020610
300049e4:	300192c8 	.word	0x300192c8
300049e8:	300178f5 	.word	0x300178f5
300049ec:	300192cf 	.word	0x300192cf
300049f0:	300192d3 	.word	0x300192d3

300049f4 <do_nfs>:
300049f4:	e1a01000 	mov	r1, r0
300049f8:	e3a00007 	mov	r0, #7	; 0x7
300049fc:	eaffff3a 	b	300046ec <netboot_common>

30004a00 <do_dhcp>:
30004a00:	e1a01000 	mov	r1, r0
30004a04:	e3a00004 	mov	r0, #4	; 0x4
30004a08:	eaffff37 	b	300046ec <netboot_common>

30004a0c <do_rarpb>:
30004a0c:	e1a01000 	mov	r1, r0
30004a10:	e3a00001 	mov	r0, #1	; 0x1
30004a14:	eaffff34 	b	300046ec <netboot_common>

30004a18 <do_tftpb>:
30004a18:	e1a01000 	mov	r1, r0
30004a1c:	e3a00003 	mov	r0, #3	; 0x3
30004a20:	eaffff31 	b	300046ec <netboot_common>

30004a24 <do_bootp>:
30004a24:	e1a01000 	mov	r1, r0
30004a28:	e3a00000 	mov	r0, #0	; 0x0
30004a2c:	eaffff2e 	b	300046ec <netboot_common>

30004a30 <get_env_id>:
30004a30:	e59f3004 	ldr	r3, [pc, #4]	; 30004a3c <get_env_id+0xc>
30004a34:	e5930000 	ldr	r0, [r3]
30004a38:	e1a0f00e 	mov	pc, lr
30004a3c:	3001b408 	.word	0x3001b408

30004a40 <envmatch>:
30004a40:	e92d4070 	push	{r4, r5, r6, lr}
30004a44:	e1a06000 	mov	r6, r0
30004a48:	e1a05001 	mov	r5, r1
30004a4c:	ea000002 	b	30004a5c <envmatch+0x1c>
30004a50:	e353003d 	cmp	r3, #61	; 0x3d
30004a54:	0a00000f 	beq	30004a98 <envmatch+0x58>
30004a58:	e1a05004 	mov	r5, r4
30004a5c:	e1a00005 	mov	r0, r5
30004a60:	e5d64000 	ldrb	r4, [r6]
30004a64:	eb000b0a 	bl	30007694 <env_get_char>
30004a68:	e1540000 	cmp	r4, r0
30004a6c:	e5d63000 	ldrb	r3, [r6]
30004a70:	e2854001 	add	r4, r5, #1	; 0x1
30004a74:	e2866001 	add	r6, r6, #1	; 0x1
30004a78:	0afffff4 	beq	30004a50 <envmatch+0x10>
30004a7c:	e3530000 	cmp	r3, #0	; 0x0
30004a80:	1a000003 	bne	30004a94 <envmatch+0x54>
30004a84:	e1a00005 	mov	r0, r5
30004a88:	eb000b01 	bl	30007694 <env_get_char>
30004a8c:	e350003d 	cmp	r0, #61	; 0x3d
30004a90:	0a000000 	beq	30004a98 <envmatch+0x58>
30004a94:	e3e04000 	mvn	r4, #0	; 0x0
30004a98:	e1a00004 	mov	r0, r4
30004a9c:	e8bd8070 	pop	{r4, r5, r6, pc}

30004aa0 <getenv_r>:
30004aa0:	e92d47f0 	push	{r4, r5, r6, r7, r8, r9, sl, lr}
30004aa4:	e1a09000 	mov	r9, r0
30004aa8:	e1a07001 	mov	r7, r1
30004aac:	e1a0a002 	mov	sl, r2
30004ab0:	e3a05000 	mov	r5, #0	; 0x0
30004ab4:	ea00001a 	b	30004b24 <getenv_r+0x84>
30004ab8:	e3540801 	cmp	r4, #65536	; 0x10000
30004abc:	aa00001d 	bge	30004b38 <getenv_r+0x98>
30004ac0:	e2844001 	add	r4, r4, #1	; 0x1
30004ac4:	e1a00004 	mov	r0, r4
30004ac8:	eb000af1 	bl	30007694 <env_get_char>
30004acc:	e2506000 	subs	r6, r0, #0	; 0x0
30004ad0:	1afffff8 	bne	30004ab8 <getenv_r+0x18>
30004ad4:	e1a01005 	mov	r1, r5
30004ad8:	e1a00009 	mov	r0, r9
30004adc:	ebffffd7 	bl	30004a40 <envmatch>
30004ae0:	e2505000 	subs	r5, r0, #0	; 0x0
30004ae4:	ba00000d 	blt	30004b20 <getenv_r+0x80>
30004ae8:	e1a04006 	mov	r4, r6
30004aec:	e0840005 	add	r0, r4, r5
30004af0:	e2844001 	add	r4, r4, #1	; 0x1
30004af4:	e2443001 	sub	r3, r4, #1	; 0x1
30004af8:	e15a0003 	cmp	sl, r3
30004afc:	9a000003 	bls	30004b10 <getenv_r+0x70>
30004b00:	eb000ae3 	bl	30007694 <env_get_char>
30004b04:	e3500000 	cmp	r0, #0	; 0x0
30004b08:	e4c70001 	strb	r0, [r7], #1
30004b0c:	1afffff6 	bne	30004aec <getenv_r+0x4c>
30004b10:	e15a0004 	cmp	sl, r4
30004b14:	03a03000 	moveq	r3, #0	; 0x0
30004b18:	05c73000 	strbeq	r3, [r7]
30004b1c:	ea000006 	b	30004b3c <getenv_r+0x9c>
30004b20:	e2845001 	add	r5, r4, #1	; 0x1
30004b24:	e1a00005 	mov	r0, r5
30004b28:	eb000ad9 	bl	30007694 <env_get_char>
30004b2c:	e3500000 	cmp	r0, #0	; 0x0
30004b30:	11a04005 	movne	r4, r5
30004b34:	1affffe2 	bne	30004ac4 <getenv_r+0x24>
30004b38:	e3e04000 	mvn	r4, #0	; 0x0
30004b3c:	e1a00004 	mov	r0, r4
30004b40:	e8bd87f0 	pop	{r4, r5, r6, r7, r8, r9, sl, pc}

30004b44 <do_saveenv>:
30004b44:	e59f301c 	ldr	r3, [pc, #28]	; 30004b68 <do_saveenv+0x24>
30004b48:	e92d4010 	push	{r4, lr}
30004b4c:	e5931000 	ldr	r1, [r3]
30004b50:	e59f0014 	ldr	r0, [pc, #20]	; 30004b6c <do_saveenv+0x28>
30004b54:	eb0005ea 	bl	30006304 <printf>
30004b58:	eb000b15 	bl	300077b4 <saveenv>
30004b5c:	e2500000 	subs	r0, r0, #0	; 0x0
30004b60:	13a00001 	movne	r0, #1	; 0x1
30004b64:	e8bd8010 	pop	{r4, pc}
30004b68:	3001b950 	.word	0x3001b950
30004b6c:	30019469 	.word	0x30019469

30004b70 <getenv>:
30004b70:	e92d4070 	push	{r4, r5, r6, lr}
30004b74:	e1a06000 	mov	r6, r0
30004b78:	e3a05000 	mov	r5, #0	; 0x0
30004b7c:	ea00000e 	b	30004bbc <getenv+0x4c>
30004b80:	e3540801 	cmp	r4, #65536	; 0x10000
30004b84:	aa000011 	bge	30004bd0 <getenv+0x60>
30004b88:	e2844001 	add	r4, r4, #1	; 0x1
30004b8c:	e1a00004 	mov	r0, r4
30004b90:	eb000abf 	bl	30007694 <env_get_char>
30004b94:	e3500000 	cmp	r0, #0	; 0x0
30004b98:	1afffff8 	bne	30004b80 <getenv+0x10>
30004b9c:	e1a01005 	mov	r1, r5
30004ba0:	e1a00006 	mov	r0, r6
30004ba4:	ebffffa5 	bl	30004a40 <envmatch>
30004ba8:	e3500000 	cmp	r0, #0	; 0x0
30004bac:	ba000001 	blt	30004bb8 <getenv+0x48>
30004bb0:	e8bd4070 	pop	{r4, r5, r6, lr}
30004bb4:	ea000aae 	b	30007674 <env_get_addr>
30004bb8:	e2845001 	add	r5, r4, #1	; 0x1
30004bbc:	e1a00005 	mov	r0, r5
30004bc0:	eb000ab3 	bl	30007694 <env_get_char>
30004bc4:	e3500000 	cmp	r0, #0	; 0x0
30004bc8:	11a04005 	movne	r4, r5
30004bcc:	1affffee 	bne	30004b8c <getenv+0x1c>
30004bd0:	e3a00000 	mov	r0, #0	; 0x0
30004bd4:	e8bd8070 	pop	{r4, r5, r6, pc}

30004bd8 <_do_setenv>:
30004bd8:	e92d4eff 	push	{r0, r1, r2, r3, r4, r5, r6, r7, r9, sl, fp, lr}
30004bdc:	e5983000 	ldr	r3, [r8]
30004be0:	e3a00000 	mov	r0, #0	; 0x0
30004be4:	e58d1000 	str	r1, [sp]
30004be8:	e1a0a002 	mov	sl, r2
30004bec:	e58d3004 	str	r3, [sp, #4]
30004bf0:	eb000a9f 	bl	30007674 <env_get_addr>
30004bf4:	e250b000 	subs	fp, r0, #0	; 0x0
30004bf8:	0a000034 	beq	30004cd0 <_do_setenv+0xf8>
30004bfc:	e59a9004 	ldr	r9, [sl, #4]
30004c00:	e3a0103d 	mov	r1, #61	; 0x3d
30004c04:	e1a00009 	mov	r0, r9
30004c08:	eb00220a 	bl	3000d438 <strchr>
30004c0c:	e3500000 	cmp	r0, #0	; 0x0
30004c10:	11a01009 	movne	r1, r9
30004c14:	159f03b8 	ldrne	r0, [pc, #952]	; 30004fd4 <_do_setenv+0x3fc>
30004c18:	1a00002b 	bne	30004ccc <_do_setenv+0xf4>
30004c1c:	e59f23b4 	ldr	r2, [pc, #948]	; 30004fd8 <_do_setenv+0x400>
30004c20:	e5923000 	ldr	r3, [r2]
30004c24:	e2833001 	add	r3, r3, #1	; 0x1
30004c28:	e5823000 	str	r3, [r2]
30004c2c:	e1a07000 	mov	r7, r0
30004c30:	e1a0500b 	mov	r5, fp
30004c34:	e3e04000 	mvn	r4, #0	; 0x0
30004c38:	ea000009 	b	30004c64 <_do_setenv+0x8c>
30004c3c:	e2877001 	add	r7, r7, #1	; 0x1
30004c40:	e5d73000 	ldrb	r3, [r7]
30004c44:	e3530000 	cmp	r3, #0	; 0x0
30004c48:	1afffffb 	bne	30004c3c <_do_setenv+0x64>
30004c4c:	e1a00009 	mov	r0, r9
30004c50:	e06b1005 	rsb	r1, fp, r5
30004c54:	ebffff79 	bl	30004a40 <envmatch>
30004c58:	e2504000 	subs	r4, r0, #0	; 0x0
30004c5c:	aa000004 	bge	30004c74 <_do_setenv+0x9c>
30004c60:	e2875001 	add	r5, r7, #1	; 0x1
30004c64:	e5d53000 	ldrb	r3, [r5]
30004c68:	e3530000 	cmp	r3, #0	; 0x0
30004c6c:	11a07005 	movne	r7, r5
30004c70:	1afffff2 	bne	30004c40 <_do_setenv+0x68>
30004c74:	e1a00009 	mov	r0, r9
30004c78:	e59f135c 	ldr	r1, [pc, #860]	; 30004fdc <_do_setenv+0x404>
30004c7c:	eb0021cb 	bl	3000d3b0 <strcmp>
30004c80:	e3500000 	cmp	r0, #0	; 0x0
30004c84:	0a00000b 	beq	30004cb8 <_do_setenv+0xe0>
30004c88:	e1a00009 	mov	r0, r9
30004c8c:	e59f134c 	ldr	r1, [pc, #844]	; 30004fe0 <_do_setenv+0x408>
30004c90:	eb0021c6 	bl	3000d3b0 <strcmp>
30004c94:	e3500000 	cmp	r0, #0	; 0x0
30004c98:	02800001 	addeq	r0, r0, #1	; 0x1
30004c9c:	0a000005 	beq	30004cb8 <_do_setenv+0xe0>
30004ca0:	e1a00009 	mov	r0, r9
30004ca4:	e59f1338 	ldr	r1, [pc, #824]	; 30004fe4 <_do_setenv+0x40c>
30004ca8:	eb0021c0 	bl	3000d3b0 <strcmp>
30004cac:	e3500000 	cmp	r0, #0	; 0x0
30004cb0:	1a00000c 	bne	30004ce8 <_do_setenv+0x110>
30004cb4:	e2800002 	add	r0, r0, #2	; 0x2
30004cb8:	e59d2000 	ldr	r2, [sp]
30004cbc:	e3520002 	cmp	r2, #2	; 0x2
30004cc0:	ca000004 	bgt	30004cd8 <_do_setenv+0x100>
30004cc4:	e59f031c 	ldr	r0, [pc, #796]	; 30004fe8 <_do_setenv+0x410>
30004cc8:	e1a01009 	mov	r1, r9
30004ccc:	eb00058c 	bl	30006304 <printf>
30004cd0:	e3a00001 	mov	r0, #1	; 0x1
30004cd4:	ea0000bc 	b	30004fcc <_do_setenv+0x3f4>
30004cd8:	e59a1008 	ldr	r1, [sl, #8]
30004cdc:	eb000554 	bl	30006234 <console_assign>
30004ce0:	e3500000 	cmp	r0, #0	; 0x0
30004ce4:	bafffff9 	blt	30004cd0 <_do_setenv+0xf8>
30004ce8:	e3540000 	cmp	r4, #0	; 0x0
30004cec:	ba000037 	blt	30004dd0 <_do_setenv+0x1f8>
30004cf0:	e59a0004 	ldr	r0, [sl, #4]
30004cf4:	e59f12f0 	ldr	r1, [pc, #752]	; 30004fec <_do_setenv+0x414>
30004cf8:	eb0021ac 	bl	3000d3b0 <strcmp>
30004cfc:	e2506000 	subs	r6, r0, #0	; 0x0
30004d00:	1a00001e 	bne	30004d80 <_do_setenv+0x1a8>
30004d04:	e59a0008 	ldr	r0, [sl, #8]
30004d08:	e1a01006 	mov	r1, r6
30004d0c:	e3a0200a 	mov	r2, #10	; 0xa
30004d10:	eb00230b 	bl	3000d944 <simple_strtoul>
30004d14:	e1a04000 	mov	r4, r0
30004d18:	e1a00006 	mov	r0, r6
30004d1c:	e59f32cc 	ldr	r3, [pc, #716]	; 30004ff0 <_do_setenv+0x418>
30004d20:	e7933100 	ldr	r3, [r3, r0, lsl #2]
30004d24:	e1540003 	cmp	r4, r3
30004d28:	1a000002 	bne	30004d38 <_do_setenv+0x160>
30004d2c:	e3500005 	cmp	r0, #5	; 0x5
30004d30:	1a000006 	bne	30004d50 <_do_setenv+0x178>
30004d34:	ea000002 	b	30004d44 <_do_setenv+0x16c>
30004d38:	e2800001 	add	r0, r0, #1	; 0x1
30004d3c:	e3500005 	cmp	r0, #5	; 0x5
30004d40:	1afffff5 	bne	30004d1c <_do_setenv+0x144>
30004d44:	e1a01004 	mov	r1, r4
30004d48:	e59f02a4 	ldr	r0, [pc, #676]	; 30004ff4 <_do_setenv+0x41c>
30004d4c:	eaffffde 	b	30004ccc <_do_setenv+0xf4>
30004d50:	e1a01004 	mov	r1, r4
30004d54:	e59f029c 	ldr	r0, [pc, #668]	; 30004ff8 <_do_setenv+0x420>
30004d58:	eb000569 	bl	30006304 <printf>
30004d5c:	e59f0298 	ldr	r0, [pc, #664]	; 30004ffc <_do_setenv+0x424>
30004d60:	eb00309a 	bl	30010fd0 <udelay>
30004d64:	e5884008 	str	r4, [r8, #8]
30004d68:	ebffeebd 	bl	30000864 <serial_setbrg>
30004d6c:	e59f0288 	ldr	r0, [pc, #648]	; 30004ffc <_do_setenv+0x424>
30004d70:	eb003096 	bl	30010fd0 <udelay>
30004d74:	eb0005f6 	bl	30006554 <getc>
30004d78:	e350000d 	cmp	r0, #13	; 0xd
30004d7c:	1afffffc 	bne	30004d74 <_do_setenv+0x19c>
30004d80:	e5d73001 	ldrb	r3, [r7, #1]
30004d84:	e3530000 	cmp	r3, #0	; 0x0
30004d88:	11a00007 	movne	r0, r7
30004d8c:	1a000003 	bne	30004da0 <_do_setenv+0x1c8>
30004d90:	e155000b 	cmp	r5, fp
30004d94:	82455001 	subhi	r5, r5, #1	; 0x1
30004d98:	95c53000 	strbls	r3, [r5]
30004d9c:	ea000009 	b	30004dc8 <_do_setenv+0x1f0>
30004da0:	e5d03001 	ldrb	r3, [r0, #1]
30004da4:	e3530000 	cmp	r3, #0	; 0x0
30004da8:	e5c53000 	strb	r3, [r5]
30004dac:	1a000002 	bne	30004dbc <_do_setenv+0x1e4>
30004db0:	e5d03002 	ldrb	r3, [r0, #2]
30004db4:	e3530000 	cmp	r3, #0	; 0x0
30004db8:	0a000002 	beq	30004dc8 <_do_setenv+0x1f0>
30004dbc:	e2855001 	add	r5, r5, #1	; 0x1
30004dc0:	e2800001 	add	r0, r0, #1	; 0x1
30004dc4:	eafffff5 	b	30004da0 <_do_setenv+0x1c8>
30004dc8:	e3a03000 	mov	r3, #0	; 0x0
30004dcc:	e5c53001 	strb	r3, [r5, #1]
30004dd0:	e59d3000 	ldr	r3, [sp]
30004dd4:	e3530002 	cmp	r3, #2	; 0x2
30004dd8:	da000003 	ble	30004dec <_do_setenv+0x214>
30004ddc:	e59a3008 	ldr	r3, [sl, #8]
30004de0:	e3530000 	cmp	r3, #0	; 0x0
30004de4:	11a0500b 	movne	r5, fp
30004de8:	1a000002 	bne	30004df8 <_do_setenv+0x220>
30004dec:	eb000a34 	bl	300076c4 <env_crc_update>
30004df0:	ea000074 	b	30004fc8 <_do_setenv+0x3f0>
30004df4:	e2855001 	add	r5, r5, #1	; 0x1
30004df8:	e5d53000 	ldrb	r3, [r5]
30004dfc:	e3530000 	cmp	r3, #0	; 0x0
30004e00:	e2852001 	add	r2, r5, #1	; 0x1
30004e04:	1afffffa 	bne	30004df4 <_do_setenv+0x21c>
30004e08:	e5d53001 	ldrb	r3, [r5, #1]
30004e0c:	e3530000 	cmp	r3, #0	; 0x0
30004e10:	1afffff7 	bne	30004df4 <_do_setenv+0x21c>
30004e14:	e155000b 	cmp	r5, fp
30004e18:	e1a00009 	mov	r0, r9
30004e1c:	81a05002 	movhi	r5, r2
30004e20:	eb00218f 	bl	3000d464 <strlen>
30004e24:	e3a04002 	mov	r4, #2	; 0x2
30004e28:	e2806002 	add	r6, r0, #2	; 0x2
30004e2c:	e79a0104 	ldr	r0, [sl, r4, lsl #2]
30004e30:	eb00218b 	bl	3000d464 <strlen>
30004e34:	e59d2000 	ldr	r2, [sp]
30004e38:	e2844001 	add	r4, r4, #1	; 0x1
30004e3c:	e2800001 	add	r0, r0, #1	; 0x1
30004e40:	e1540002 	cmp	r4, r2
30004e44:	e0806006 	add	r6, r0, r6
30004e48:	bafffff7 	blt	30004e2c <_do_setenv+0x254>
30004e4c:	e28b3cff 	add	r3, fp, #65280	; 0xff00
30004e50:	e28330fc 	add	r3, r3, #252	; 0xfc
30004e54:	e0653003 	rsb	r3, r5, r3
30004e58:	e1560003 	cmp	r6, r3
30004e5c:	c1a01009 	movgt	r1, r9
30004e60:	c59f0198 	ldrgt	r0, [pc, #408]	; 30005000 <_do_setenv+0x428>
30004e64:	caffff98 	bgt	30004ccc <_do_setenv+0xf4>
30004e68:	e3a02000 	mov	r2, #0	; 0x0
30004e6c:	e7d93002 	ldrb	r3, [r9, r2]
30004e70:	e3530000 	cmp	r3, #0	; 0x0
30004e74:	e7c53002 	strb	r3, [r5, r2]
30004e78:	e0850002 	add	r0, r5, r2
30004e7c:	e2822001 	add	r2, r2, #1	; 0x1
30004e80:	1afffff9 	bne	30004e6c <_do_setenv+0x294>
30004e84:	e3a01002 	mov	r1, #2	; 0x2
30004e88:	e3510002 	cmp	r1, #2	; 0x2
30004e8c:	03a0303d 	moveq	r3, #61	; 0x3d
30004e90:	13a03020 	movne	r3, #32	; 0x20
30004e94:	e79ac101 	ldr	ip, [sl, r1, lsl #2]
30004e98:	e5c03000 	strb	r3, [r0]
30004e9c:	e3a03000 	mov	r3, #0	; 0x0
30004ea0:	e7dc2003 	ldrb	r2, [ip, r3]
30004ea4:	e3520000 	cmp	r2, #0	; 0x0
30004ea8:	e5e02001 	strb	r2, [r0, #1]!
30004eac:	e2833001 	add	r3, r3, #1	; 0x1
30004eb0:	1afffffa 	bne	30004ea0 <_do_setenv+0x2c8>
30004eb4:	e59d3000 	ldr	r3, [sp]
30004eb8:	e2811001 	add	r1, r1, #1	; 0x1
30004ebc:	e1510003 	cmp	r1, r3
30004ec0:	bafffff0 	blt	30004e88 <_do_setenv+0x2b0>
30004ec4:	e5c02001 	strb	r2, [r0, #1]
30004ec8:	eb0009fd 	bl	300076c4 <env_crc_update>
30004ecc:	e59a0004 	ldr	r0, [sl, #4]
30004ed0:	e59f112c 	ldr	r1, [pc, #300]	; 30005004 <_do_setenv+0x42c>
30004ed4:	eb002135 	bl	3000d3b0 <strcmp>
30004ed8:	e3500000 	cmp	r0, #0	; 0x0
30004edc:	0a000039 	beq	30004fc8 <_do_setenv+0x3f0>
30004ee0:	e59a0004 	ldr	r0, [sl, #4]
30004ee4:	e59f111c 	ldr	r1, [pc, #284]	; 30005008 <_do_setenv+0x430>
30004ee8:	eb002130 	bl	3000d3b0 <strcmp>
30004eec:	e3500000 	cmp	r0, #0	; 0x0
30004ef0:	1a00001d 	bne	30004f6c <_do_setenv+0x394>
30004ef4:	e59d2004 	ldr	r2, [sp, #4]
30004ef8:	e59a4008 	ldr	r4, [sl, #8]
30004efc:	e5820004 	str	r0, [r2, #4]
30004f00:	e1a06000 	mov	r6, r0
30004f04:	e1a05000 	mov	r5, r0
30004f08:	e3540000 	cmp	r4, #0	; 0x0
30004f0c:	e1a00004 	mov	r0, r4
30004f10:	e28d100c 	add	r1, sp, #12	; 0xc
30004f14:	e3a0200a 	mov	r2, #10	; 0xa
30004f18:	1b002289 	blne	3000d944 <simple_strtoul>
30004f1c:	e20030ff 	and	r3, r0, #255	; 0xff
30004f20:	e3540000 	cmp	r4, #0	; 0x0
30004f24:	e2866001 	add	r6, r6, #1	; 0x1
30004f28:	e1835405 	orr	r5, r3, r5, lsl #8
30004f2c:	0a000003 	beq	30004f40 <_do_setenv+0x368>
30004f30:	e59d400c 	ldr	r4, [sp, #12]
30004f34:	e5d43000 	ldrb	r3, [r4]
30004f38:	e3530000 	cmp	r3, #0	; 0x0
30004f3c:	12844001 	addne	r4, r4, #1	; 0x1
30004f40:	e3560004 	cmp	r6, #4	; 0x4
30004f44:	1affffef 	bne	30004f08 <_do_setenv+0x330>
30004f48:	e1a03c05 	lsl	r3, r5, #24
30004f4c:	e2052cff 	and	r2, r5, #65280	; 0xff00
30004f50:	e1833c25 	orr	r3, r3, r5, lsr #24
30004f54:	e1833402 	orr	r3, r3, r2, lsl #8
30004f58:	e20528ff 	and	r2, r5, #16711680	; 0xff0000
30004f5c:	e1833422 	orr	r3, r3, r2, lsr #8
30004f60:	e59d2004 	ldr	r2, [sp, #4]
30004f64:	e5823004 	str	r3, [r2, #4]
30004f68:	ea000016 	b	30004fc8 <_do_setenv+0x3f0>
30004f6c:	e59a0004 	ldr	r0, [sl, #4]
30004f70:	e59f1094 	ldr	r1, [pc, #148]	; 3000500c <_do_setenv+0x434>
30004f74:	eb00210d 	bl	3000d3b0 <strcmp>
30004f78:	e2504000 	subs	r4, r0, #0	; 0x0
30004f7c:	1a000006 	bne	30004f9c <_do_setenv+0x3c4>
30004f80:	e59a0008 	ldr	r0, [sl, #8]
30004f84:	e1a01004 	mov	r1, r4
30004f88:	e3a02010 	mov	r2, #16	; 0x10
30004f8c:	eb00226c 	bl	3000d944 <simple_strtoul>
30004f90:	e59f3078 	ldr	r3, [pc, #120]	; 30005010 <_do_setenv+0x438>
30004f94:	e5830000 	str	r0, [r3]
30004f98:	ea000008 	b	30004fc0 <_do_setenv+0x3e8>
30004f9c:	e59a0004 	ldr	r0, [sl, #4]
30004fa0:	e59f106c 	ldr	r1, [pc, #108]	; 30005014 <_do_setenv+0x43c>
30004fa4:	eb002101 	bl	3000d3b0 <strcmp>
30004fa8:	e2504000 	subs	r4, r0, #0	; 0x0
30004fac:	1a000005 	bne	30004fc8 <_do_setenv+0x3f0>
30004fb0:	e59a1008 	ldr	r1, [sl, #8]
30004fb4:	e59f005c 	ldr	r0, [pc, #92]	; 30005018 <_do_setenv+0x440>
30004fb8:	e3a02080 	mov	r2, #128	; 0x80
30004fbc:	eb003125 	bl	30011458 <copy_filename>
30004fc0:	e1a00004 	mov	r0, r4
30004fc4:	ea000000 	b	30004fcc <_do_setenv+0x3f4>
30004fc8:	e3a00000 	mov	r0, #0	; 0x0
30004fcc:	e28dd010 	add	sp, sp, #16	; 0x10
30004fd0:	e8bd8ef0 	pop	{r4, r5, r6, r7, r9, sl, fp, pc}
30004fd4:	30019486 	.word	0x30019486
30004fd8:	3001b408 	.word	0x3001b408
30004fdc:	30019765 	.word	0x30019765
30004fe0:	300194bd 	.word	0x300194bd
30004fe4:	300194c4 	.word	0x300194c4
30004fe8:	300194cb 	.word	0x300194cb
30004fec:	300170a2 	.word	0x300170a2
30004ff0:	30015ffc 	.word	0x30015ffc
30004ff4:	300194de 	.word	0x300194de
30004ff8:	30018a70 	.word	0x30018a70
30004ffc:	0000c350 	.word	0x0000c350
30005000:	30019500 	.word	0x30019500
30005004:	30017358 	.word	0x30017358
30005008:	300180cb 	.word	0x300180cb
3000500c:	300175b9 	.word	0x300175b9
30005010:	3001b2e8 	.word	0x3001b2e8
30005014:	300180ae 	.word	0x300180ae
30005018:	30020692 	.word	0x30020692

3000501c <do_askenv>:
3000501c:	e92d46f0 	push	{r4, r5, r6, r7, r9, sl, lr}
30005020:	e1a0a003 	mov	sl, r3
30005024:	e1a05002 	mov	r5, r2
30005028:	e5933000 	ldr	r3, [r3]
3000502c:	e59a2004 	ldr	r2, [sl, #4]
30005030:	e24ddf45 	sub	sp, sp, #276	; 0x114
30005034:	e3a04000 	mov	r4, #0	; 0x0
30005038:	e3550001 	cmp	r5, #1	; 0x1
3000503c:	e58d3100 	str	r3, [sp, #256]
30005040:	e1a09001 	mov	r9, r1
30005044:	e58d2104 	str	r2, [sp, #260]
30005048:	e58d4108 	str	r4, [sp, #264]
3000504c:	e58d410c 	str	r4, [sp, #268]
30005050:	ca000001 	bgt	3000505c <do_askenv+0x40>
30005054:	eb0001ff 	bl	30005858 <cmd_usage>
30005058:	ea000038 	b	30005140 <do_askenv+0x124>
3000505c:	e3550002 	cmp	r5, #2	; 0x2
30005060:	0a000008 	beq	30005088 <do_askenv+0x6c>
30005064:	e3550003 	cmp	r5, #3	; 0x3
30005068:	0a00000a 	beq	30005098 <do_askenv+0x7c>
3000506c:	e3550001 	cmp	r5, #1	; 0x1
30005070:	11a0600a 	movne	r6, sl
30005074:	13a07002 	movne	r7, #2	; 0x2
30005078:	1a000018 	bne	300050e0 <do_askenv+0xc4>
3000507c:	eb0001f5 	bl	30005858 <cmd_usage>
30005080:	e1a00005 	mov	r0, r5
30005084:	ea00003e 	b	30005184 <do_askenv+0x168>
30005088:	e1a0000d 	mov	r0, sp
3000508c:	e59f10f8 	ldr	r1, [pc, #248]	; 3000518c <do_askenv+0x170>
30005090:	eb00254a 	bl	3000e5c0 <sprintf>
30005094:	ea000025 	b	30005130 <do_askenv+0x114>
30005098:	e59f10ec 	ldr	r1, [pc, #236]	; 3000518c <do_askenv+0x170>
3000509c:	e1a0000d 	mov	r0, sp
300050a0:	eb002546 	bl	3000e5c0 <sprintf>
300050a4:	e59a0008 	ldr	r0, [sl, #8]
300050a8:	e1a01004 	mov	r1, r4
300050ac:	e3a0200a 	mov	r2, #10	; 0xa
300050b0:	ea00001a 	b	30005120 <do_askenv+0x104>
300050b4:	e3540000 	cmp	r4, #0	; 0x0
300050b8:	13a03020 	movne	r3, #32	; 0x20
300050bc:	15423110 	strbne	r3, [r2, #-272]
300050c0:	12844001 	addne	r4, r4, #1	; 0x1
300050c4:	e5961008 	ldr	r1, [r6, #8]
300050c8:	e08d0004 	add	r0, sp, r4
300050cc:	eb002080 	bl	3000d2d4 <strcpy>
300050d0:	e5960008 	ldr	r0, [r6, #8]
300050d4:	eb0020e2 	bl	3000d464 <strlen>
300050d8:	e2866004 	add	r6, r6, #4	; 0x4
300050dc:	e0844000 	add	r4, r4, r0
300050e0:	e2453001 	sub	r3, r5, #1	; 0x1
300050e4:	e1570003 	cmp	r7, r3
300050e8:	e28d3e11 	add	r3, sp, #272	; 0x110
300050ec:	e2877001 	add	r7, r7, #1	; 0x1
300050f0:	e0832004 	add	r2, r3, r4
300050f4:	baffffee 	blt	300050b4 <do_askenv+0x98>
300050f8:	e2652001 	rsb	r2, r5, #1	; 0x1
300050fc:	e3e03003 	mvn	r3, #3	; 0x3
30005100:	e0030392 	mul	r3, r2, r3
30005104:	e28d2e11 	add	r2, sp, #272	; 0x110
30005108:	e3a0c000 	mov	ip, #0	; 0x0
3000510c:	e79a0003 	ldr	r0, [sl, r3]
30005110:	e0823004 	add	r3, r2, r4
30005114:	e543c110 	strb	ip, [r3, #-272]
30005118:	e1a0100c 	mov	r1, ip
3000511c:	e3a0200a 	mov	r2, #10	; 0xa
30005120:	eb002207 	bl	3000d944 <simple_strtoul>
30005124:	e35000ff 	cmp	r0, #255	; 0xff
30005128:	e1a04000 	mov	r4, r0
3000512c:	da000001 	ble	30005138 <do_askenv+0x11c>
30005130:	e3a040ff 	mov	r4, #255	; 0xff
30005134:	ea000003 	b	30005148 <do_askenv+0x12c>
30005138:	e3500000 	cmp	r0, #0	; 0x0
3000513c:	ca000001 	bgt	30005148 <do_askenv+0x12c>
30005140:	e3a00001 	mov	r0, #1	; 0x1
30005144:	ea00000e 	b	30005184 <do_askenv+0x168>
30005148:	e1a0000d 	mov	r0, sp
3000514c:	eb0017f3 	bl	3000b120 <readline>
30005150:	e1540000 	cmp	r4, r0
30005154:	b59f3034 	ldrlt	r3, [pc, #52]	; 30005190 <do_askenv+0x174>
30005158:	b3a02000 	movlt	r2, #0	; 0x0
3000515c:	b7c32004 	strblt	r2, [r3, r4]
30005160:	e59f2028 	ldr	r2, [pc, #40]	; 30005190 <do_askenv+0x174>
30005164:	e5d23000 	ldrb	r3, [r2]
30005168:	e3530000 	cmp	r3, #0	; 0x0
3000516c:	158d2108 	strne	r2, [sp, #264]
30005170:	03a01002 	moveq	r1, #2	; 0x2
30005174:	13a01003 	movne	r1, #3	; 0x3
30005178:	e1a00009 	mov	r0, r9
3000517c:	e28d2c01 	add	r2, sp, #256	; 0x100
30005180:	ebfffe94 	bl	30004bd8 <_do_setenv>
30005184:	e28ddf45 	add	sp, sp, #276	; 0x114
30005188:	e8bd86f0 	pop	{r4, r5, r6, r7, r9, sl, pc}
3000518c:	3001952e 	.word	0x3001952e
30005190:	3001db28 	.word	0x3001db28

30005194 <do_setenv>:
30005194:	e3520001 	cmp	r2, #1	; 0x1
30005198:	e92d4010 	push	{r4, lr}
3000519c:	ca000002 	bgt	300051ac <do_setenv+0x18>
300051a0:	eb0001ac 	bl	30005858 <cmd_usage>
300051a4:	e3a00001 	mov	r0, #1	; 0x1
300051a8:	e8bd8010 	pop	{r4, pc}
300051ac:	e1a00001 	mov	r0, r1
300051b0:	e1a01002 	mov	r1, r2
300051b4:	e1a02003 	mov	r2, r3
300051b8:	e8bd4010 	pop	{r4, lr}
300051bc:	eafffe85 	b	30004bd8 <_do_setenv>

300051c0 <setenv>:
300051c0:	e92d401f 	push	{r0, r1, r2, r3, r4, lr}
300051c4:	e59f303c 	ldr	r3, [pc, #60]	; 30005208 <setenv+0x48>
300051c8:	e3a02000 	mov	r2, #0	; 0x0
300051cc:	e3510000 	cmp	r1, #0	; 0x0
300051d0:	e58d3000 	str	r3, [sp]
300051d4:	e98d0007 	stmib	sp, {r0, r1, r2}
300051d8:	0a000004 	beq	300051f0 <setenv+0x30>
300051dc:	e5d13000 	ldrb	r3, [r1]
300051e0:	e1530002 	cmp	r3, r2
300051e4:	11a00002 	movne	r0, r2
300051e8:	13a01003 	movne	r1, #3	; 0x3
300051ec:	1a000001 	bne	300051f8 <setenv+0x38>
300051f0:	e3a00000 	mov	r0, #0	; 0x0
300051f4:	e3a01002 	mov	r1, #2	; 0x2
300051f8:	e1a0200d 	mov	r2, sp
300051fc:	ebfffe75 	bl	30004bd8 <_do_setenv>
30005200:	e28dd014 	add	sp, sp, #20	; 0x14
30005204:	e8bd8000 	pop	{pc}
30005208:	30019541 	.word	0x30019541

3000520c <do_editenv>:
3000520c:	e92d4030 	push	{r4, r5, lr}
30005210:	e3520001 	cmp	r2, #1	; 0x1
30005214:	e24ddf41 	sub	sp, sp, #260	; 0x104
30005218:	e1a05003 	mov	r5, r3
3000521c:	ca000002 	bgt	3000522c <do_editenv+0x20>
30005220:	eb00018c 	bl	30005858 <cmd_usage>
30005224:	e3a00001 	mov	r0, #1	; 0x1
30005228:	ea00000e 	b	30005268 <do_editenv+0x5c>
3000522c:	e5930004 	ldr	r0, [r3, #4]
30005230:	ebfffe4e 	bl	30004b70 <getenv>
30005234:	e3500000 	cmp	r0, #0	; 0x0
30005238:	05cd0000 	strbeq	r0, [sp]
3000523c:	11a02000 	movne	r2, r0
30005240:	159f1028 	ldrne	r1, [pc, #40]	; 30005270 <do_editenv+0x64>
30005244:	11a0000d 	movne	r0, sp
30005248:	1b0024dc 	blne	3000e5c0 <sprintf>
3000524c:	e1a0100d 	mov	r1, sp
30005250:	e59f001c 	ldr	r0, [pc, #28]	; 30005274 <do_editenv+0x68>
30005254:	eb001594 	bl	3000a8ac <readline_into_buffer>
30005258:	e5950004 	ldr	r0, [r5, #4]
3000525c:	e1a0100d 	mov	r1, sp
30005260:	e1a0400d 	mov	r4, sp
30005264:	ebffffd5 	bl	300051c0 <setenv>
30005268:	e28ddf41 	add	sp, sp, #260	; 0x104
3000526c:	e8bd8030 	pop	{r4, r5, pc}
30005270:	3001a8e4 	.word	0x3001a8e4
30005274:	30019548 	.word	0x30019548

30005278 <printenv>:
30005278:	e92d46f0 	push	{r4, r5, r6, r7, r9, sl, lr}
3000527c:	e3a03000 	mov	r3, #0	; 0x0
30005280:	e24dd01c 	sub	sp, sp, #28	; 0x1c
30005284:	e1a09000 	mov	r9, r0
30005288:	e1a06001 	mov	r6, r1
3000528c:	e5cd3017 	strb	r3, [sp, #23]
30005290:	e1a05003 	mov	r5, r3
30005294:	ea000026 	b	30005334 <printenv+0xbc>
30005298:	e3560002 	cmp	r6, #2	; 0x2
3000529c:	1a000005 	bne	300052b8 <printenv+0x40>
300052a0:	e1a00009 	mov	r0, r9
300052a4:	e1a01005 	mov	r1, r5
300052a8:	ebfffde4 	bl	30004a40 <envmatch>
300052ac:	e3500000 	cmp	r0, #0	; 0x0
300052b0:	b3a06002 	movlt	r6, #2	; 0x2
300052b4:	a3a06000 	movge	r6, #0	; 0x0
300052b8:	e3a04000 	mov	r4, #0	; 0x0
300052bc:	e1a00005 	mov	r0, r5
300052c0:	eb0008f3 	bl	30007694 <env_get_char>
300052c4:	e28d2018 	add	r2, sp, #24	; 0x18
300052c8:	e0823004 	add	r3, r2, r4
300052cc:	e2844001 	add	r4, r4, #1	; 0x1
300052d0:	e3540010 	cmp	r4, #16	; 0x10
300052d4:	e1a07000 	mov	r7, r0
300052d8:	e5430011 	strb	r0, [r3, #-17]
300052dc:	e285a001 	add	sl, r5, #1	; 0x1
300052e0:	1a000004 	bne	300052f8 <printenv+0x80>
300052e4:	e3560001 	cmp	r6, #1	; 0x1
300052e8:	ca000001 	bgt	300052f4 <printenv+0x7c>
300052ec:	e28d0007 	add	r0, sp, #7	; 0x7
300052f0:	eb0003f1 	bl	300062bc <puts>
300052f4:	e3a04000 	mov	r4, #0	; 0x0
300052f8:	e3570000 	cmp	r7, #0	; 0x0
300052fc:	e1a0500a 	mov	r5, sl
30005300:	1affffed 	bne	300052bc <printenv+0x44>
30005304:	e3560001 	cmp	r6, #1	; 0x1
30005308:	ca000004 	bgt	30005320 <printenv+0xa8>
3000530c:	e3540000 	cmp	r4, #0	; 0x0
30005310:	128d0007 	addne	r0, sp, #7	; 0x7
30005314:	1b0003e8 	blne	300062bc <puts>
30005318:	e3a0000a 	mov	r0, #10	; 0xa
3000531c:	eb00047f 	bl	30006520 <putc>
30005320:	eb000491 	bl	3000656c <ctrlc>
30005324:	e3500000 	cmp	r0, #0	; 0x0
30005328:	13e05000 	mvnne	r5, #0	; 0x0
3000532c:	1a000007 	bne	30005350 <printenv+0xd8>
30005330:	e1a0500a 	mov	r5, sl
30005334:	e3560000 	cmp	r6, #0	; 0x0
30005338:	01a05006 	moveq	r5, r6
3000533c:	0a000003 	beq	30005350 <printenv+0xd8>
30005340:	e1a00005 	mov	r0, r5
30005344:	eb0008d2 	bl	30007694 <env_get_char>
30005348:	e3500000 	cmp	r0, #0	; 0x0
3000534c:	1affffd1 	bne	30005298 <printenv+0x20>
30005350:	e1a00005 	mov	r0, r5
30005354:	e28dd01c 	add	sp, sp, #28	; 0x1c
30005358:	e8bd86f0 	pop	{r4, r5, r6, r7, r9, sl, pc}

3000535c <do_printenv>:
3000535c:	e3520001 	cmp	r2, #1	; 0x1
30005360:	e92d44f0 	push	{r4, r5, r6, r7, sl, lr}
30005364:	e1a07002 	mov	r7, r2
30005368:	e1a0a003 	mov	sl, r3
3000536c:	13a04001 	movne	r4, #1	; 0x1
30005370:	13a05000 	movne	r5, #0	; 0x0
30005374:	1a000015 	bne	300053d0 <do_printenv+0x74>
30005378:	e3a00000 	mov	r0, #0	; 0x0
3000537c:	e1a01002 	mov	r1, r2
30005380:	ebffffbc 	bl	30005278 <printenv>
30005384:	e3500000 	cmp	r0, #0	; 0x0
30005388:	b1a05007 	movlt	r5, r7
3000538c:	ba000012 	blt	300053dc <do_printenv+0x80>
30005390:	e1a01000 	mov	r1, r0
30005394:	e59f2048 	ldr	r2, [pc, #72]	; 300053e4 <do_printenv+0x88>
30005398:	e59f0048 	ldr	r0, [pc, #72]	; 300053e8 <do_printenv+0x8c>
3000539c:	eb0003d8 	bl	30006304 <printf>
300053a0:	e3a05000 	mov	r5, #0	; 0x0
300053a4:	ea00000c 	b	300053dc <do_printenv+0x80>
300053a8:	e79a6104 	ldr	r6, [sl, r4, lsl #2]
300053ac:	e1a00006 	mov	r0, r6
300053b0:	ebffffb0 	bl	30005278 <printenv>
300053b4:	e3500000 	cmp	r0, #0	; 0x0
300053b8:	e2844001 	add	r4, r4, #1	; 0x1
300053bc:	0a000003 	beq	300053d0 <do_printenv+0x74>
300053c0:	e1a01006 	mov	r1, r6
300053c4:	e59f0020 	ldr	r0, [pc, #32]	; 300053ec <do_printenv+0x90>
300053c8:	eb0003cd 	bl	30006304 <printf>
300053cc:	e2855001 	add	r5, r5, #1	; 0x1
300053d0:	e1540007 	cmp	r4, r7
300053d4:	e3a01002 	mov	r1, #2	; 0x2
300053d8:	bafffff2 	blt	300053a8 <do_printenv+0x4c>
300053dc:	e1a00005 	mov	r0, r5
300053e0:	e8bd84f0 	pop	{r4, r5, r6, r7, sl, pc}
300053e4:	0000fffc 	.word	0x0000fffc
300053e8:	3001954f 	.word	0x3001954f
300053ec:	30019570 	.word	0x30019570

300053f0 <__fswab32>:
300053f0:	e1a03000 	mov	r3, r0
300053f4:	e1a00c00 	lsl	r0, r0, #24
300053f8:	e2032cff 	and	r2, r3, #65280	; 0xff00
300053fc:	e1800c23 	orr	r0, r0, r3, lsr #24
30005400:	e1800402 	orr	r0, r0, r2, lsl #8
30005404:	e20338ff 	and	r3, r3, #16711680	; 0xff0000
30005408:	e1800423 	orr	r0, r0, r3, lsr #8
3000540c:	e1a0f00e 	mov	pc, lr

30005410 <source>:
30005410:	e92d41f0 	push	{r4, r5, r6, r7, r8, lr}
30005414:	e1a04000 	mov	r4, r0
30005418:	e59f0100 	ldr	r0, [pc, #256]	; 30005520 <source+0x110>
3000541c:	eb001225 	bl	30009cb8 <getenv_yesno>
30005420:	e1a06000 	mov	r6, r0
30005424:	e1a00004 	mov	r0, r4
30005428:	eb0011d2 	bl	30009b78 <genimg_get_format>
3000542c:	e3500001 	cmp	r0, #1	; 0x1
30005430:	e1a05000 	mov	r5, r0
30005434:	159f00e8 	ldrne	r0, [pc, #232]	; 30005524 <source+0x114>
30005438:	1a000024 	bne	300054d0 <source+0xc0>
3000543c:	e5940000 	ldr	r0, [r4]
30005440:	ebffffea 	bl	300053f0 <__fswab32>
30005444:	e59f30dc 	ldr	r3, [pc, #220]	; 30005528 <source+0x118>
30005448:	e1500003 	cmp	r0, r3
3000544c:	159f00d8 	ldrne	r0, [pc, #216]	; 3000552c <source+0x11c>
30005450:	1a000004 	bne	30005468 <source+0x58>
30005454:	e1a00004 	mov	r0, r4
30005458:	eb0012a9 	bl	30009f04 <image_check_hcrc>
3000545c:	e3500000 	cmp	r0, #0	; 0x0
30005460:	1a000003 	bne	30005474 <source+0x64>
30005464:	e59f00c4 	ldr	r0, [pc, #196]	; 30005530 <source+0x120>
30005468:	eb000393 	bl	300062bc <puts>
3000546c:	e1a04005 	mov	r4, r5
30005470:	ea000028 	b	30005518 <source+0x108>
30005474:	e3560000 	cmp	r6, #0	; 0x0
30005478:	0a000004 	beq	30005490 <source+0x80>
3000547c:	e1a00004 	mov	r0, r4
30005480:	eb00128d 	bl	30009ebc <image_check_dcrc>
30005484:	e3500000 	cmp	r0, #0	; 0x0
30005488:	059f00a4 	ldreq	r0, [pc, #164]	; 30005534 <source+0x124>
3000548c:	0afffff5 	beq	30005468 <source+0x58>
30005490:	e5d4301e 	ldrb	r3, [r4, #30]
30005494:	e3530006 	cmp	r3, #6	; 0x6
30005498:	159f0098 	ldrne	r0, [pc, #152]	; 30005538 <source+0x128>
3000549c:	1a00000b 	bne	300054d0 <source+0xc0>
300054a0:	e5940040 	ldr	r0, [r4, #64]
300054a4:	ebffffd1 	bl	300053f0 <__fswab32>
300054a8:	e2506000 	subs	r6, r0, #0	; 0x0
300054ac:	059f0088 	ldreq	r0, [pc, #136]	; 3000553c <source+0x12c>
300054b0:	0a000006 	beq	300054d0 <source+0xc0>
300054b4:	e2840044 	add	r0, r4, #68	; 0x44
300054b8:	e5107004 	ldr	r7, [r0, #-4]
300054bc:	e3570000 	cmp	r7, #0	; 0x0
300054c0:	e1a04000 	mov	r4, r0
300054c4:	e2800004 	add	r0, r0, #4	; 0x4
300054c8:	1afffffa 	bne	300054b8 <source+0xa8>
300054cc:	ea000001 	b	300054d8 <source+0xc8>
300054d0:	eb000379 	bl	300062bc <puts>
300054d4:	ea000003 	b	300054e8 <source+0xd8>
300054d8:	e2860001 	add	r0, r6, #1	; 0x1
300054dc:	eb000506 	bl	300068fc <malloc>
300054e0:	e2505000 	subs	r5, r0, #0	; 0x0
300054e4:	1a000001 	bne	300054f0 <source+0xe0>
300054e8:	e3a04001 	mov	r4, #1	; 0x1
300054ec:	ea000009 	b	30005518 <source+0x108>
300054f0:	e1a01004 	mov	r1, r4
300054f4:	e1a02006 	mov	r2, r6
300054f8:	eb0020a3 	bl	3000d78c <memmove>
300054fc:	e7c57006 	strb	r7, [r5, r6]
30005500:	e1a00005 	mov	r0, r5
30005504:	e3a01002 	mov	r1, #2	; 0x2
30005508:	eb000f0c 	bl	30009140 <parse_string_outer>
3000550c:	e1a04000 	mov	r4, r0
30005510:	e1a00005 	mov	r0, r5
30005514:	eb000468 	bl	300066bc <free>
30005518:	e1a00004 	mov	r0, r4
3000551c:	e8bd81f0 	pop	{r4, r5, r6, r7, r8, pc}
30005520:	30017614 	.word	0x30017614
30005524:	30019992 	.word	0x30019992
30005528:	27051956 	.word	0x27051956
3000552c:	30019944 	.word	0x30019944
30005530:	30019956 	.word	0x30019956
30005534:	30019966 	.word	0x30019966
30005538:	30019974 	.word	0x30019974
3000553c:	30019984 	.word	0x30019984

30005540 <do_source>:
30005540:	e3520001 	cmp	r2, #1	; 0x1
30005544:	e92d4010 	push	{r4, lr}
30005548:	d3a04433 	movle	r4, #855638016	; 0x33000000
3000554c:	da000004 	ble	30005564 <do_source+0x24>
30005550:	e5930004 	ldr	r0, [r3, #4]
30005554:	e3a01000 	mov	r1, #0	; 0x0
30005558:	e3a02010 	mov	r2, #16	; 0x10
3000555c:	eb0020f8 	bl	3000d944 <simple_strtoul>
30005560:	e1a04000 	mov	r4, r0
30005564:	e1a01004 	mov	r1, r4
30005568:	e59f0010 	ldr	r0, [pc, #16]	; 30005580 <do_source+0x40>
3000556c:	eb000364 	bl	30006304 <printf>
30005570:	e1a00004 	mov	r0, r4
30005574:	e3a01000 	mov	r1, #0	; 0x0
30005578:	e8bd4010 	pop	{r4, lr}
3000557c:	eaffffa3 	b	30005410 <source>
30005580:	300199bb 	.word	0x300199bb

30005584 <do_imgextract>:
30005584:	e92d4ef0 	push	{r4, r5, r6, r7, r9, sl, fp, lr}
30005588:	e1a05003 	mov	r5, r3
3000558c:	e59f31ec 	ldr	r3, [pc, #492]	; 30005780 <do_imgextract+0x1fc>
30005590:	e24dd018 	sub	sp, sp, #24	; 0x18
30005594:	e1a09000 	mov	r9, r0
30005598:	e59f01e4 	ldr	r0, [pc, #484]	; 30005784 <do_imgextract+0x200>
3000559c:	e1a0a002 	mov	sl, r2
300055a0:	e5934000 	ldr	r4, [r3]
300055a4:	eb0011c3 	bl	30009cb8 <getenv_yesno>
300055a8:	e35a0001 	cmp	sl, #1	; 0x1
300055ac:	e1a0b000 	mov	fp, r0
300055b0:	da00006f 	ble	30005774 <do_imgextract+0x1f0>
300055b4:	e5950004 	ldr	r0, [r5, #4]
300055b8:	e3a01000 	mov	r1, #0	; 0x0
300055bc:	e3a02010 	mov	r2, #16	; 0x10
300055c0:	eb0020df 	bl	3000d944 <simple_strtoul>
300055c4:	e35a0002 	cmp	sl, #2	; 0x2
300055c8:	e1a04000 	mov	r4, r0
300055cc:	0a000068 	beq	30005774 <do_imgextract+0x1f0>
300055d0:	e5950008 	ldr	r0, [r5, #8]
300055d4:	e3a01000 	mov	r1, #0	; 0x0
300055d8:	e3a02010 	mov	r2, #16	; 0x10
300055dc:	eb0020d8 	bl	3000d944 <simple_strtoul>
300055e0:	e35a0003 	cmp	sl, #3	; 0x3
300055e4:	e1a06000 	mov	r6, r0
300055e8:	03a07000 	moveq	r7, #0	; 0x0
300055ec:	0a000004 	beq	30005604 <do_imgextract+0x80>
300055f0:	e595000c 	ldr	r0, [r5, #12]
300055f4:	e3a01000 	mov	r1, #0	; 0x0
300055f8:	e3a02010 	mov	r2, #16	; 0x10
300055fc:	eb0020d0 	bl	3000d944 <simple_strtoul>
30005600:	e1a07000 	mov	r7, r0
30005604:	e1a00004 	mov	r0, r4
30005608:	eb00115a 	bl	30009b78 <genimg_get_format>
3000560c:	e3500001 	cmp	r0, #1	; 0x1
30005610:	e1a05000 	mov	r5, r0
30005614:	1a00003c 	bne	3000570c <do_imgextract+0x188>
30005618:	e59f0168 	ldr	r0, [pc, #360]	; 30005788 <do_imgextract+0x204>
3000561c:	e1a01006 	mov	r1, r6
30005620:	e1a02004 	mov	r2, r4
30005624:	eb000336 	bl	30006304 <printf>
30005628:	e5942000 	ldr	r2, [r4]
3000562c:	e1a03c02 	lsl	r3, r2, #24
30005630:	e1833c22 	orr	r3, r3, r2, lsr #24
30005634:	e2021cff 	and	r1, r2, #65280	; 0xff00
30005638:	e1833401 	orr	r3, r3, r1, lsl #8
3000563c:	e20228ff 	and	r2, r2, #16711680	; 0xff0000
30005640:	e1833422 	orr	r3, r3, r2, lsr #8
30005644:	e59f2140 	ldr	r2, [pc, #320]	; 3000578c <do_imgextract+0x208>
30005648:	e1530002 	cmp	r3, r2
3000564c:	159f013c 	ldrne	r0, [pc, #316]	; 30005790 <do_imgextract+0x20c>
30005650:	1a000004 	bne	30005668 <do_imgextract+0xe4>
30005654:	e1a00004 	mov	r0, r4
30005658:	eb001229 	bl	30009f04 <image_check_hcrc>
3000565c:	e3500000 	cmp	r0, #0	; 0x0
30005660:	1a000003 	bne	30005674 <do_imgextract+0xf0>
30005664:	e59f0128 	ldr	r0, [pc, #296]	; 30005794 <do_imgextract+0x210>
30005668:	eb000325 	bl	30006304 <printf>
3000566c:	e1a00005 	mov	r0, r5
30005670:	ea00003d 	b	3000576c <do_imgextract+0x1e8>
30005674:	e5d4301e 	ldrb	r3, [r4, #30]
30005678:	e3530004 	cmp	r3, #4	; 0x4
3000567c:	15991000 	ldrne	r1, [r9]
30005680:	159f0110 	ldrne	r0, [pc, #272]	; 30005798 <do_imgextract+0x214>
30005684:	1a000004 	bne	3000569c <do_imgextract+0x118>
30005688:	e5d4301f 	ldrb	r3, [r4, #31]
3000568c:	e3530000 	cmp	r3, #0	; 0x0
30005690:	0a000003 	beq	300056a4 <do_imgextract+0x120>
30005694:	e5991000 	ldr	r1, [r9]
30005698:	e59f00fc 	ldr	r0, [pc, #252]	; 3000579c <do_imgextract+0x218>
3000569c:	eb000318 	bl	30006304 <printf>
300056a0:	eafffff1 	b	3000566c <do_imgextract+0xe8>
300056a4:	e35b0000 	cmp	fp, #0	; 0x0
300056a8:	0a000008 	beq	300056d0 <do_imgextract+0x14c>
300056ac:	e59f00ec 	ldr	r0, [pc, #236]	; 300057a0 <do_imgextract+0x21c>
300056b0:	eb000313 	bl	30006304 <printf>
300056b4:	e1a00004 	mov	r0, r4
300056b8:	eb0011ff 	bl	30009ebc <image_check_dcrc>
300056bc:	e3500000 	cmp	r0, #0	; 0x0
300056c0:	059f00dc 	ldreq	r0, [pc, #220]	; 300057a4 <do_imgextract+0x220>
300056c4:	0affffe7 	beq	30005668 <do_imgextract+0xe4>
300056c8:	e59f00d8 	ldr	r0, [pc, #216]	; 300057a8 <do_imgextract+0x224>
300056cc:	eb00030c 	bl	30006304 <printf>
300056d0:	e1a00004 	mov	r0, r4
300056d4:	eb0010c4 	bl	300099ec <image_multi_count>
300056d8:	e1560000 	cmp	r6, r0
300056dc:	3a000002 	bcc	300056ec <do_imgextract+0x168>
300056e0:	e59f00c4 	ldr	r0, [pc, #196]	; 300057ac <do_imgextract+0x228>
300056e4:	eb000306 	bl	30006304 <printf>
300056e8:	ea000009 	b	30005714 <do_imgextract+0x190>
300056ec:	e1a00004 	mov	r0, r4
300056f0:	e1a01006 	mov	r1, r6
300056f4:	e28d2014 	add	r2, sp, #20	; 0x14
300056f8:	e28d3010 	add	r3, sp, #16	; 0x10
300056fc:	eb001126 	bl	30009b9c <image_multi_getimg>
30005700:	e35a0003 	cmp	sl, #3	; 0x3
30005704:	da000008 	ble	3000572c <do_imgextract+0x1a8>
30005708:	ea000003 	b	3000571c <do_imgextract+0x198>
3000570c:	e59f009c 	ldr	r0, [pc, #156]	; 300057b0 <do_imgextract+0x22c>
30005710:	eb0002e9 	bl	300062bc <puts>
30005714:	e3a00001 	mov	r0, #1	; 0x1
30005718:	ea000013 	b	3000576c <do_imgextract+0x1e8>
3000571c:	e1a00007 	mov	r0, r7
30005720:	e59d1014 	ldr	r1, [sp, #20]
30005724:	e59d2010 	ldr	r2, [sp, #16]
30005728:	eb001ff8 	bl	3000d710 <memcpy>
3000572c:	e28d4006 	add	r4, sp, #6	; 0x6
30005730:	e59d2014 	ldr	r2, [sp, #20]
30005734:	e59f1078 	ldr	r1, [pc, #120]	; 300057b4 <do_imgextract+0x230>
30005738:	e1a00004 	mov	r0, r4
3000573c:	eb00239f 	bl	3000e5c0 <sprintf>
30005740:	e1a01004 	mov	r1, r4
30005744:	e59f006c 	ldr	r0, [pc, #108]	; 300057b8 <do_imgextract+0x234>
30005748:	ebfffe9c 	bl	300051c0 <setenv>
3000574c:	e59f1060 	ldr	r1, [pc, #96]	; 300057b4 <do_imgextract+0x230>
30005750:	e59d2010 	ldr	r2, [sp, #16]
30005754:	e1a00004 	mov	r0, r4
30005758:	eb002398 	bl	3000e5c0 <sprintf>
3000575c:	e1a01004 	mov	r1, r4
30005760:	e59f0054 	ldr	r0, [pc, #84]	; 300057bc <do_imgextract+0x238>
30005764:	ebfffe95 	bl	300051c0 <setenv>
30005768:	e3a00000 	mov	r0, #0	; 0x0
3000576c:	e28dd018 	add	sp, sp, #24	; 0x18
30005770:	e8bd8ef0 	pop	{r4, r5, r6, r7, r9, sl, fp, pc}
30005774:	e3a07000 	mov	r7, #0	; 0x0
30005778:	e1a06007 	mov	r6, r7
3000577c:	eaffffa0 	b	30005604 <do_imgextract+0x80>
30005780:	3001b2e8 	.word	0x3001b2e8
30005784:	30017614 	.word	0x30017614
30005788:	30019a45 	.word	0x30019a45
3000578c:	27051956 	.word	0x27051956
30005790:	30017522 	.word	0x30017522
30005794:	30017537 	.word	0x30017537
30005798:	3001766c 	.word	0x3001766c
3000579c:	30019a78 	.word	0x30019a78
300057a0:	300174c8 	.word	0x300174c8
300057a4:	3001754f 	.word	0x3001754f
300057a8:	300174e3 	.word	0x300174e3
300057ac:	30019a9f 	.word	0x30019a9f
300057b0:	30019aaf 	.word	0x30019aaf
300057b4:	30019ad0 	.word	0x30019ad0
300057b8:	30019ad5 	.word	0x30019ad5
300057bc:	30017906 	.word	0x30017906

300057c0 <cmd_get_data_size>:
300057c0:	e92d4070 	push	{r4, r5, r6, lr}
300057c4:	e1a04001 	mov	r4, r1
300057c8:	e1a05000 	mov	r5, r0
300057cc:	eb001f24 	bl	3000d464 <strlen>
300057d0:	e3500002 	cmp	r0, #2	; 0x2
300057d4:	da000015 	ble	30005830 <cmd_get_data_size+0x70>
300057d8:	e0850000 	add	r0, r5, r0
300057dc:	e5503002 	ldrb	r3, [r0, #-2]
300057e0:	e353002e 	cmp	r3, #46	; 0x2e
300057e4:	1a000011 	bne	30005830 <cmd_get_data_size+0x70>
300057e8:	e5500001 	ldrb	r0, [r0, #-1]
300057ec:	e350006c 	cmp	r0, #108	; 0x6c
300057f0:	03a04004 	moveq	r4, #4	; 0x4
300057f4:	0a00000d 	beq	30005830 <cmd_get_data_size+0x70>
300057f8:	8a000002 	bhi	30005808 <cmd_get_data_size+0x48>
300057fc:	e3500062 	cmp	r0, #98	; 0x62
30005800:	1a000009 	bne	3000582c <cmd_get_data_size+0x6c>
30005804:	ea000006 	b	30005824 <cmd_get_data_size+0x64>
30005808:	e3500073 	cmp	r0, #115	; 0x73
3000580c:	03e04001 	mvneq	r4, #1	; 0x1
30005810:	0a000006 	beq	30005830 <cmd_get_data_size+0x70>
30005814:	e3500077 	cmp	r0, #119	; 0x77
30005818:	03a04002 	moveq	r4, #2	; 0x2
3000581c:	1a000002 	bne	3000582c <cmd_get_data_size+0x6c>
30005820:	ea000002 	b	30005830 <cmd_get_data_size+0x70>
30005824:	e3a04001 	mov	r4, #1	; 0x1
30005828:	ea000000 	b	30005830 <cmd_get_data_size+0x70>
3000582c:	e3e04000 	mvn	r4, #0	; 0x0
30005830:	e1a00004 	mov	r0, r4
30005834:	e8bd8070 	pop	{r4, r5, r6, pc}

30005838 <do_version>:
30005838:	e92d4010 	push	{r4, lr}
3000583c:	e59f000c 	ldr	r0, [pc, #12]	; 30005850 <do_version+0x18>
30005840:	e59f100c 	ldr	r1, [pc, #12]	; 30005854 <do_version+0x1c>
30005844:	eb0002ae 	bl	30006304 <printf>
30005848:	e3a00000 	mov	r0, #0	; 0x0
3000584c:	e8bd8010 	pop	{r4, pc}
30005850:	30019b5c 	.word	0x30019b5c
30005854:	3001700c 	.word	0x3001700c

30005858 <cmd_usage>:
30005858:	e92d4010 	push	{r4, lr}
3000585c:	e1a04000 	mov	r4, r0
30005860:	e5901000 	ldr	r1, [r0]
30005864:	e5942010 	ldr	r2, [r4, #16]
30005868:	e59f003c 	ldr	r0, [pc, #60]	; 300058ac <cmd_usage+0x54>
3000586c:	eb0002a4 	bl	30006304 <printf>
30005870:	e59f0038 	ldr	r0, [pc, #56]	; 300058b0 <cmd_usage+0x58>
30005874:	e5941000 	ldr	r1, [r4]
30005878:	eb0002a1 	bl	30006304 <printf>
3000587c:	e5940014 	ldr	r0, [r4, #20]
30005880:	e3500000 	cmp	r0, #0	; 0x0
30005884:	1a000003 	bne	30005898 <cmd_usage+0x40>
30005888:	e59f0024 	ldr	r0, [pc, #36]	; 300058b4 <cmd_usage+0x5c>
3000588c:	eb00028a 	bl	300062bc <puts>
30005890:	e3a00001 	mov	r0, #1	; 0x1
30005894:	e8bd8010 	pop	{r4, pc}
30005898:	eb000287 	bl	300062bc <puts>
3000589c:	e3a0000a 	mov	r0, #10	; 0xa
300058a0:	eb00031e 	bl	30006520 <putc>
300058a4:	e3a00000 	mov	r0, #0	; 0x0
300058a8:	e8bd8010 	pop	{r4, pc}
300058ac:	30019b61 	.word	0x30019b61
300058b0:	30019b6b 	.word	0x30019b6b
300058b4:	30019b76 	.word	0x30019b76

300058b8 <do_echo>:
300058b8:	e92d44f0 	push	{r4, r5, r6, r7, sl, lr}
300058bc:	e3a05001 	mov	r5, #1	; 0x1
300058c0:	e1a0a002 	mov	sl, r2
300058c4:	e1a07003 	mov	r7, r3
300058c8:	e1a06005 	mov	r6, r5
300058cc:	ea000011 	b	30005918 <do_echo+0x60>
300058d0:	e3550001 	cmp	r5, #1	; 0x1
300058d4:	e7974105 	ldr	r4, [r7, r5, lsl #2]
300058d8:	c3a00020 	movgt	r0, #32	; 0x20
300058dc:	ca000008 	bgt	30005904 <do_echo+0x4c>
300058e0:	ea000008 	b	30005908 <do_echo+0x50>
300058e4:	e353005c 	cmp	r3, #92	; 0x5c
300058e8:	e2844001 	add	r4, r4, #1	; 0x1
300058ec:	1a000004 	bne	30005904 <do_echo+0x4c>
300058f0:	e5d43000 	ldrb	r3, [r4]
300058f4:	e3530063 	cmp	r3, #99	; 0x63
300058f8:	02844001 	addeq	r4, r4, #1	; 0x1
300058fc:	03a06000 	moveq	r6, #0	; 0x0
30005900:	0a000000 	beq	30005908 <do_echo+0x50>
30005904:	eb000305 	bl	30006520 <putc>
30005908:	e5d43000 	ldrb	r3, [r4]
3000590c:	e2530000 	subs	r0, r3, #0	; 0x0
30005910:	1afffff3 	bne	300058e4 <do_echo+0x2c>
30005914:	e2855001 	add	r5, r5, #1	; 0x1
30005918:	e155000a 	cmp	r5, sl
3000591c:	baffffeb 	blt	300058d0 <do_echo+0x18>
30005920:	e3560000 	cmp	r6, #0	; 0x0
30005924:	13a0000a 	movne	r0, #10	; 0xa
30005928:	1b0002fc 	blne	30006520 <putc>
3000592c:	e3a00000 	mov	r0, #0	; 0x0
30005930:	e8bd84f0 	pop	{r4, r5, r6, r7, sl, pc}

30005934 <find_cmd_tbl>:
30005934:	e92d47f0 	push	{r4, r5, r6, r7, r8, r9, sl, lr}
30005938:	e1a05001 	mov	r5, r1
3000593c:	e3a0102e 	mov	r1, #46	; 0x2e
30005940:	e1a07000 	mov	r7, r0
30005944:	e1a0a002 	mov	sl, r2
30005948:	eb001eba 	bl	3000d438 <strchr>
3000594c:	e3500000 	cmp	r0, #0	; 0x0
30005950:	10676000 	rsbne	r6, r7, r0
30005954:	1a000002 	bne	30005964 <find_cmd_tbl+0x30>
30005958:	e1a00007 	mov	r0, r7
3000595c:	eb001ec0 	bl	3000d464 <strlen>
30005960:	e1a06000 	mov	r6, r0
30005964:	e3a03018 	mov	r3, #24	; 0x18
30005968:	e0295a93 	mla	r9, r3, sl, r5
3000596c:	e1a04005 	mov	r4, r5
30005970:	e1a0a005 	mov	sl, r5
30005974:	e3a05000 	mov	r5, #0	; 0x0
30005978:	ea00000a 	b	300059a8 <find_cmd_tbl+0x74>
3000597c:	e5941000 	ldr	r1, [r4]
30005980:	eb001e98 	bl	3000d3e8 <strncmp>
30005984:	e3500000 	cmp	r0, #0	; 0x0
30005988:	1a000005 	bne	300059a4 <find_cmd_tbl+0x70>
3000598c:	e5940000 	ldr	r0, [r4]
30005990:	eb001eb3 	bl	3000d464 <strlen>
30005994:	e1560000 	cmp	r6, r0
30005998:	0a000009 	beq	300059c4 <find_cmd_tbl+0x90>
3000599c:	e2855001 	add	r5, r5, #1	; 0x1
300059a0:	e1a0a004 	mov	sl, r4
300059a4:	e2844018 	add	r4, r4, #24	; 0x18
300059a8:	e1540009 	cmp	r4, r9
300059ac:	e1a02006 	mov	r2, r6
300059b0:	e1a00007 	mov	r0, r7
300059b4:	1afffff0 	bne	3000597c <find_cmd_tbl+0x48>
300059b8:	e3550001 	cmp	r5, #1	; 0x1
300059bc:	01a0400a 	moveq	r4, sl
300059c0:	13a04000 	movne	r4, #0	; 0x0
300059c4:	e1a00004 	mov	r0, r4
300059c8:	e8bd87f0 	pop	{r4, r5, r6, r7, r8, r9, sl, pc}

300059cc <find_cmd>:
300059cc:	e59f1014 	ldr	r1, [pc, #20]	; 300059e8 <find_cmd+0x1c>
300059d0:	e59f3014 	ldr	r3, [pc, #20]	; 300059ec <find_cmd+0x20>
300059d4:	e59f2014 	ldr	r2, [pc, #20]	; 300059f0 <find_cmd+0x24>
300059d8:	e0613003 	rsb	r3, r1, r3
300059dc:	e1a031c3 	asr	r3, r3, #3
300059e0:	e0020293 	mul	r2, r3, r2
300059e4:	eaffffd2 	b	30005934 <find_cmd_tbl>
300059e8:	3001bd88 	.word	0x3001bd88
300059ec:	3001c280 	.word	0x3001c280
300059f0:	aaaaaaab 	.word	0xaaaaaaab

300059f4 <_do_help>:
300059f4:	e92d4ef0 	push	{r4, r5, r6, r7, r9, sl, fp, lr}
300059f8:	e28db01c 	add	fp, sp, #28	; 0x1c
300059fc:	e24dd008 	sub	sp, sp, #8	; 0x8
30005a00:	e59ba004 	ldr	sl, [fp, #4]
30005a04:	e35a0001 	cmp	sl, #1	; 0x1
30005a08:	e1a07000 	mov	r7, r0
30005a0c:	e1a09001 	mov	r9, r1
30005a10:	159b5008 	ldrne	r5, [fp, #8]
30005a14:	13a06001 	movne	r6, #1	; 0x1
30005a18:	13a04000 	movne	r4, #0	; 0x0
30005a1c:	1a00004a 	bne	30005b4c <_do_help+0x158>
30005a20:	e1a03101 	lsl	r3, r1, #2
30005a24:	e283300e 	add	r3, r3, #14	; 0xe
30005a28:	e3c33007 	bic	r3, r3, #7	; 0x7
30005a2c:	e50bd020 	str	sp, [fp, #-32]
30005a30:	e04dd003 	sub	sp, sp, r3
30005a34:	e1a0a00d 	mov	sl, sp
30005a38:	e3a03000 	mov	r3, #0	; 0x0
30005a3c:	ea000002 	b	30005a4c <_do_help+0x58>
30005a40:	e78a0103 	str	r0, [sl, r3, lsl #2]
30005a44:	e2800018 	add	r0, r0, #24	; 0x18
30005a48:	e2833001 	add	r3, r3, #1	; 0x1
30005a4c:	e1530009 	cmp	r3, r9
30005a50:	bafffffa 	blt	30005a40 <_do_help+0x4c>
30005a54:	e2497001 	sub	r7, r9, #1	; 0x1
30005a58:	ea000014 	b	30005ab0 <_do_help+0xbc>
30005a5c:	e5943000 	ldr	r3, [r4]
30005a60:	e5942004 	ldr	r2, [r4, #4]
30005a64:	e5930000 	ldr	r0, [r3]
30005a68:	e5921000 	ldr	r1, [r2]
30005a6c:	eb001e4f 	bl	3000d3b0 <strcmp>
30005a70:	e3500000 	cmp	r0, #0	; 0x0
30005a74:	c5942000 	ldrgt	r2, [r4]
30005a78:	c5943004 	ldrgt	r3, [r4, #4]
30005a7c:	e2855001 	add	r5, r5, #1	; 0x1
30005a80:	c5843000 	strgt	r3, [r4]
30005a84:	c5842004 	strgt	r2, [r4, #4]
30005a88:	c2866001 	addgt	r6, r6, #1	; 0x1
30005a8c:	e1550007 	cmp	r5, r7
30005a90:	e2844004 	add	r4, r4, #4	; 0x4
30005a94:	bafffff0 	blt	30005a5c <_do_help+0x68>
30005a98:	e3560000 	cmp	r6, #0	; 0x0
30005a9c:	1a000002 	bne	30005aac <_do_help+0xb8>
30005aa0:	e3a05000 	mov	r5, #0	; 0x0
30005aa4:	e1a04005 	mov	r4, r5
30005aa8:	ea000014 	b	30005b00 <_do_help+0x10c>
30005aac:	e2477001 	sub	r7, r7, #1	; 0x1
30005ab0:	e3570000 	cmp	r7, #0	; 0x0
30005ab4:	dafffff9 	ble	30005aa0 <_do_help+0xac>
30005ab8:	e3a05000 	mov	r5, #0	; 0x0
30005abc:	e1a0400a 	mov	r4, sl
30005ac0:	e1a06005 	mov	r6, r5
30005ac4:	eaffffe4 	b	30005a5c <_do_help+0x68>
30005ac8:	e79a3004 	ldr	r3, [sl, r4]
30005acc:	e5936010 	ldr	r6, [r3, #16]
30005ad0:	eb0002a5 	bl	3000656c <ctrlc>
30005ad4:	e3500000 	cmp	r0, #0	; 0x0
30005ad8:	e1a03006 	mov	r3, r6
30005adc:	e3a01008 	mov	r1, #8	; 0x8
30005ae0:	e59f0080 	ldr	r0, [pc, #128]	; 30005b68 <_do_help+0x174>
30005ae4:	13a04001 	movne	r4, #1	; 0x1
30005ae8:	1a000008 	bne	30005b10 <_do_help+0x11c>
30005aec:	e3560000 	cmp	r6, #0	; 0x0
30005af0:	179a2004 	ldrne	r2, [sl, r4]
30005af4:	15922000 	ldrne	r2, [r2]
30005af8:	1b000201 	blne	30006304 <printf>
30005afc:	e2844004 	add	r4, r4, #4	; 0x4
30005b00:	e1550009 	cmp	r5, r9
30005b04:	e2855001 	add	r5, r5, #1	; 0x1
30005b08:	baffffee 	blt	30005ac8 <_do_help+0xd4>
30005b0c:	e3a04000 	mov	r4, #0	; 0x0
30005b10:	e51bd020 	ldr	sp, [fp, #-32]
30005b14:	ea000010 	b	30005b5c <_do_help+0x168>
30005b18:	e5950004 	ldr	r0, [r5, #4]
30005b1c:	ebffff84 	bl	30005934 <find_cmd_tbl>
30005b20:	e3500000 	cmp	r0, #0	; 0x0
30005b24:	0a000002 	beq	30005b34 <_do_help+0x140>
30005b28:	ebffff4a 	bl	30005858 <cmd_usage>
30005b2c:	e1844000 	orr	r4, r4, r0
30005b30:	ea000003 	b	30005b44 <_do_help+0x150>
30005b34:	e5951004 	ldr	r1, [r5, #4]
30005b38:	e59f002c 	ldr	r0, [pc, #44]	; 30005b6c <_do_help+0x178>
30005b3c:	eb0001f0 	bl	30006304 <printf>
30005b40:	e3a04001 	mov	r4, #1	; 0x1
30005b44:	e2866001 	add	r6, r6, #1	; 0x1
30005b48:	e2855004 	add	r5, r5, #4	; 0x4
30005b4c:	e156000a 	cmp	r6, sl
30005b50:	e1a01007 	mov	r1, r7
30005b54:	e1a02009 	mov	r2, r9
30005b58:	baffffee 	blt	30005b18 <_do_help+0x124>
30005b5c:	e1a00004 	mov	r0, r4
30005b60:	e24bd01c 	sub	sp, fp, #28	; 0x1c
30005b64:	e8bd8ef0 	pop	{r4, r5, r6, r7, r9, sl, fp, pc}
30005b68:	30019b97 	.word	0x30019b97
30005b6c:	30019ba1 	.word	0x30019ba1

30005b70 <do_help>:
30005b70:	e92d4037 	push	{r0, r1, r2, r4, r5, lr}
30005b74:	e59fc034 	ldr	ip, [pc, #52]	; 30005bb0 <do_help+0x40>
30005b78:	e59fe034 	ldr	lr, [pc, #52]	; 30005bb4 <do_help+0x44>
30005b7c:	e58d3004 	str	r3, [sp, #4]
30005b80:	e06ec00c 	rsb	ip, lr, ip
30005b84:	e59f302c 	ldr	r3, [pc, #44]	; 30005bb8 <do_help+0x48>
30005b88:	e1a04000 	mov	r4, r0
30005b8c:	e1a05001 	mov	r5, r1
30005b90:	e1a0c1cc 	asr	ip, ip, #3
30005b94:	e58d2000 	str	r2, [sp]
30005b98:	e0010c93 	mul	r1, r3, ip
30005b9c:	e1a0000e 	mov	r0, lr
30005ba0:	e1a02004 	mov	r2, r4
30005ba4:	e1a03005 	mov	r3, r5
30005ba8:	ebffff91 	bl	300059f4 <_do_help>
30005bac:	e8bd803e 	pop	{r1, r2, r3, r4, r5, pc}
30005bb0:	3001c280 	.word	0x3001c280
30005bb4:	3001bd88 	.word	0x3001bd88
30005bb8:	aaaaaaab 	.word	0xaaaaaaab

30005bbc <do_exit>:
30005bbc:	e3520001 	cmp	r2, #1	; 0x1
30005bc0:	e92d4010 	push	{r4, lr}
30005bc4:	d3a03000 	movle	r3, #0	; 0x0
30005bc8:	da000004 	ble	30005be0 <do_exit+0x24>
30005bcc:	e5930004 	ldr	r0, [r3, #4]
30005bd0:	e3a01000 	mov	r1, #0	; 0x0
30005bd4:	e3a0200a 	mov	r2, #10	; 0xa
30005bd8:	eb001f59 	bl	3000d944 <simple_strtoul>
30005bdc:	e1a03000 	mov	r3, r0
30005be0:	e3e00001 	mvn	r0, #1	; 0x1
30005be4:	e0630000 	rsb	r0, r3, r0
30005be8:	e8bd8010 	pop	{r4, pc}

30005bec <do_test>:
30005bec:	e3520002 	cmp	r2, #2	; 0x2
30005bf0:	e92d4ef0 	push	{r4, r5, r6, r7, r9, sl, fp, lr}
30005bf4:	d3a00001 	movle	r0, #1	; 0x1
30005bf8:	d8bd8ef0 	pople	{r4, r5, r6, r7, r9, sl, fp, pc}
30005bfc:	e5930004 	ldr	r0, [r3, #4]
30005c00:	e59f1424 	ldr	r1, [pc, #1060]	; 3000602c <do_test+0x440>
30005c04:	e242a001 	sub	sl, r2, #1	; 0x1
30005c08:	e2835004 	add	r5, r3, #4	; 0x4
30005c0c:	eb001de7 	bl	3000d3b0 <strcmp>
30005c10:	e3e04000 	mvn	r4, #0	; 0x0
30005c14:	e3500000 	cmp	r0, #0	; 0x0
30005c18:	13a0b000 	movne	fp, #0	; 0x0
30005c1c:	02855004 	addeq	r5, r5, #4	; 0x4
30005c20:	024aa001 	subeq	sl, sl, #1	; 0x1
30005c24:	03a0b001 	moveq	fp, #1	; 0x1
30005c28:	e1a09004 	mov	r9, r4
30005c2c:	e1a07004 	mov	r7, r4
30005c30:	e5950000 	ldr	r0, [r5]
30005c34:	e59f13f4 	ldr	r1, [pc, #1012]	; 30006030 <do_test+0x444>
30005c38:	eb001ddc 	bl	3000d3b0 <strcmp>
30005c3c:	e3500000 	cmp	r0, #0	; 0x0
30005c40:	0a0000ee 	beq	30006000 <do_test+0x414>
30005c44:	e5950000 	ldr	r0, [r5]
30005c48:	e59f13e4 	ldr	r1, [pc, #996]	; 30006034 <do_test+0x448>
30005c4c:	eb001dd7 	bl	3000d3b0 <strcmp>
30005c50:	e3500000 	cmp	r0, #0	; 0x0
30005c54:	0a0000e9 	beq	30006000 <do_test+0x414>
30005c58:	e5950000 	ldr	r0, [r5]
30005c5c:	e59f13d4 	ldr	r1, [pc, #980]	; 30006038 <do_test+0x44c>
30005c60:	eb001dd2 	bl	3000d3b0 <strcmp>
30005c64:	e3500000 	cmp	r0, #0	; 0x0
30005c68:	0a000005 	beq	30005c84 <do_test+0x98>
30005c6c:	e5950000 	ldr	r0, [r5]
30005c70:	e59f13c4 	ldr	r1, [pc, #964]	; 3000603c <do_test+0x450>
30005c74:	eb001dcd 	bl	3000d3b0 <strcmp>
30005c78:	e3500000 	cmp	r0, #0	; 0x0
30005c7c:	13a06003 	movne	r6, #3	; 0x3
30005c80:	1a000000 	bne	30005c88 <do_test+0x9c>
30005c84:	e3a06002 	mov	r6, #2	; 0x2
30005c88:	e15a0006 	cmp	sl, r6
30005c8c:	aa000007 	bge	30005cb0 <do_test+0xc4>
30005c90:	ea0000d2 	b	30005fe0 <do_test+0x3f4>
30005c94:	e5950000 	ldr	r0, [r5]
30005c98:	e59f1394 	ldr	r1, [pc, #916]	; 30006034 <do_test+0x448>
30005c9c:	eb001dc3 	bl	3000d3b0 <strcmp>
30005ca0:	e3500000 	cmp	r0, #0	; 0x0
30005ca4:	1a0000cd 	bne	30005fe0 <do_test+0x3f4>
30005ca8:	e3a07001 	mov	r7, #1	; 0x1
30005cac:	ea0000d9 	b	30006018 <do_test+0x42c>
30005cb0:	e3560002 	cmp	r6, #2	; 0x2
30005cb4:	1a00001f 	bne	30005d38 <do_test+0x14c>
30005cb8:	e5950000 	ldr	r0, [r5]
30005cbc:	e59f1374 	ldr	r1, [pc, #884]	; 30006038 <do_test+0x44c>
30005cc0:	eb001dba 	bl	3000d3b0 <strcmp>
30005cc4:	e3500000 	cmp	r0, #0	; 0x0
30005cc8:	1a000004 	bne	30005ce0 <do_test+0xf4>
30005ccc:	e5950004 	ldr	r0, [r5, #4]
30005cd0:	eb001de3 	bl	3000d464 <strlen>
30005cd4:	e2704001 	rsbs	r4, r0, #1	; 0x1
30005cd8:	33a04000 	movcc	r4, #0	; 0x0
30005cdc:	ea000008 	b	30005d04 <do_test+0x118>
30005ce0:	e5950000 	ldr	r0, [r5]
30005ce4:	e59f1350 	ldr	r1, [pc, #848]	; 3000603c <do_test+0x450>
30005ce8:	eb001db0 	bl	3000d3b0 <strcmp>
30005cec:	e3500000 	cmp	r0, #0	; 0x0
30005cf0:	1a0000ba 	bne	30005fe0 <do_test+0x3f4>
30005cf4:	e5950004 	ldr	r0, [r5, #4]
30005cf8:	eb001dd9 	bl	3000d464 <strlen>
30005cfc:	e2504000 	subs	r4, r0, #0	; 0x0
30005d00:	13a04001 	movne	r4, #1	; 0x1
30005d04:	e3570000 	cmp	r7, #0	; 0x0
30005d08:	1a000003 	bne	30005d1c <do_test+0x130>
30005d0c:	e1944009 	orrs	r4, r4, r9
30005d10:	03a04000 	moveq	r4, #0	; 0x0
30005d14:	13a04001 	movne	r4, #1	; 0x1
30005d18:	ea0000c1 	b	30006024 <do_test+0x438>
30005d1c:	e3570001 	cmp	r7, #1	; 0x1
30005d20:	1a0000bf 	bne	30006024 <do_test+0x438>
30005d24:	e3540000 	cmp	r4, #0	; 0x0
30005d28:	13590000 	cmpne	r9, #0	; 0x0
30005d2c:	03a04000 	moveq	r4, #0	; 0x0
30005d30:	13a04001 	movne	r4, #1	; 0x1
30005d34:	ea0000ba 	b	30006024 <do_test+0x438>
30005d38:	e5950004 	ldr	r0, [r5, #4]
30005d3c:	e59f12fc 	ldr	r1, [pc, #764]	; 30006040 <do_test+0x454>
30005d40:	eb001d9a 	bl	3000d3b0 <strcmp>
30005d44:	e3500000 	cmp	r0, #0	; 0x0
30005d48:	e2854004 	add	r4, r5, #4	; 0x4
30005d4c:	1a000005 	bne	30005d68 <do_test+0x17c>
30005d50:	e5950000 	ldr	r0, [r5]
30005d54:	e5951008 	ldr	r1, [r5, #8]
30005d58:	eb001d94 	bl	3000d3b0 <strcmp>
30005d5c:	e2704001 	rsbs	r4, r0, #1	; 0x1
30005d60:	33a04000 	movcc	r4, #0	; 0x0
30005d64:	ea00008a 	b	30005f94 <do_test+0x3a8>
30005d68:	e5950004 	ldr	r0, [r5, #4]
30005d6c:	e59f12d0 	ldr	r1, [pc, #720]	; 30006044 <do_test+0x458>
30005d70:	eb001d8e 	bl	3000d3b0 <strcmp>
30005d74:	e3500000 	cmp	r0, #0	; 0x0
30005d78:	1a000005 	bne	30005d94 <do_test+0x1a8>
30005d7c:	e5950000 	ldr	r0, [r5]
30005d80:	e5951008 	ldr	r1, [r5, #8]
30005d84:	eb001d89 	bl	3000d3b0 <strcmp>
30005d88:	e2504000 	subs	r4, r0, #0	; 0x0
30005d8c:	13a04001 	movne	r4, #1	; 0x1
30005d90:	ea00007f 	b	30005f94 <do_test+0x3a8>
30005d94:	e5940000 	ldr	r0, [r4]
30005d98:	e59f12a8 	ldr	r1, [pc, #680]	; 30006048 <do_test+0x45c>
30005d9c:	eb001d83 	bl	3000d3b0 <strcmp>
30005da0:	e3500000 	cmp	r0, #0	; 0x0
30005da4:	1a000006 	bne	30005dc4 <do_test+0x1d8>
30005da8:	e5950000 	ldr	r0, [r5]
30005dac:	e5951008 	ldr	r1, [r5, #8]
30005db0:	eb001d7e 	bl	3000d3b0 <strcmp>
30005db4:	e3500000 	cmp	r0, #0	; 0x0
30005db8:	d3a04000 	movle	r4, #0	; 0x0
30005dbc:	c3a04001 	movgt	r4, #1	; 0x1
30005dc0:	ea000073 	b	30005f94 <do_test+0x3a8>
30005dc4:	e5940000 	ldr	r0, [r4]
30005dc8:	e59f127c 	ldr	r1, [pc, #636]	; 3000604c <do_test+0x460>
30005dcc:	eb001d77 	bl	3000d3b0 <strcmp>
30005dd0:	e3500000 	cmp	r0, #0	; 0x0
30005dd4:	1a000004 	bne	30005dec <do_test+0x200>
30005dd8:	e5950000 	ldr	r0, [r5]
30005ddc:	e5951008 	ldr	r1, [r5, #8]
30005de0:	eb001d72 	bl	3000d3b0 <strcmp>
30005de4:	e1a04fa0 	lsr	r4, r0, #31
30005de8:	ea000069 	b	30005f94 <do_test+0x3a8>
30005dec:	e5940000 	ldr	r0, [r4]
30005df0:	e59f1258 	ldr	r1, [pc, #600]	; 30006050 <do_test+0x464>
30005df4:	eb001d6d 	bl	3000d3b0 <strcmp>
30005df8:	e2506000 	subs	r6, r0, #0	; 0x0
30005dfc:	1a00000c 	bne	30005e34 <do_test+0x248>
30005e00:	e1a01006 	mov	r1, r6
30005e04:	e3a0200a 	mov	r2, #10	; 0xa
30005e08:	e5950000 	ldr	r0, [r5]
30005e0c:	eb001efa 	bl	3000d9fc <simple_strtol>
30005e10:	e1a01006 	mov	r1, r6
30005e14:	e1a04000 	mov	r4, r0
30005e18:	e3a0200a 	mov	r2, #10	; 0xa
30005e1c:	e5950008 	ldr	r0, [r5, #8]
30005e20:	eb001ef5 	bl	3000d9fc <simple_strtol>
30005e24:	e1540000 	cmp	r4, r0
30005e28:	13a04000 	movne	r4, #0	; 0x0
30005e2c:	03a04001 	moveq	r4, #1	; 0x1
30005e30:	ea000057 	b	30005f94 <do_test+0x3a8>
30005e34:	e5940000 	ldr	r0, [r4]
30005e38:	e59f1214 	ldr	r1, [pc, #532]	; 30006054 <do_test+0x468>
30005e3c:	eb001d5b 	bl	3000d3b0 <strcmp>
30005e40:	e2506000 	subs	r6, r0, #0	; 0x0
30005e44:	1a00000b 	bne	30005e78 <do_test+0x28c>
30005e48:	e1a01006 	mov	r1, r6
30005e4c:	e3a0200a 	mov	r2, #10	; 0xa
30005e50:	e5950000 	ldr	r0, [r5]
30005e54:	eb001ee8 	bl	3000d9fc <simple_strtol>
30005e58:	e1a01006 	mov	r1, r6
30005e5c:	e1a04000 	mov	r4, r0
30005e60:	e3a0200a 	mov	r2, #10	; 0xa
30005e64:	e5950008 	ldr	r0, [r5, #8]
30005e68:	eb001ee3 	bl	3000d9fc <simple_strtol>
30005e6c:	e0544000 	subs	r4, r4, r0
30005e70:	13a04001 	movne	r4, #1	; 0x1
30005e74:	ea000046 	b	30005f94 <do_test+0x3a8>
30005e78:	e5940000 	ldr	r0, [r4]
30005e7c:	e59f11d4 	ldr	r1, [pc, #468]	; 30006058 <do_test+0x46c>
30005e80:	eb001d4a 	bl	3000d3b0 <strcmp>
30005e84:	e2506000 	subs	r6, r0, #0	; 0x0
30005e88:	1a00000c 	bne	30005ec0 <do_test+0x2d4>
30005e8c:	e1a01006 	mov	r1, r6
30005e90:	e3a0200a 	mov	r2, #10	; 0xa
30005e94:	e5950000 	ldr	r0, [r5]
30005e98:	eb001ed7 	bl	3000d9fc <simple_strtol>
30005e9c:	e1a01006 	mov	r1, r6
30005ea0:	e1a04000 	mov	r4, r0
30005ea4:	e3a0200a 	mov	r2, #10	; 0xa
30005ea8:	e5950008 	ldr	r0, [r5, #8]
30005eac:	eb001ed2 	bl	3000d9fc <simple_strtol>
30005eb0:	e1540000 	cmp	r4, r0
30005eb4:	a3a04000 	movge	r4, #0	; 0x0
30005eb8:	b3a04001 	movlt	r4, #1	; 0x1
30005ebc:	ea000034 	b	30005f94 <do_test+0x3a8>
30005ec0:	e5940000 	ldr	r0, [r4]
30005ec4:	e59f1190 	ldr	r1, [pc, #400]	; 3000605c <do_test+0x470>
30005ec8:	eb001d38 	bl	3000d3b0 <strcmp>
30005ecc:	e3500000 	cmp	r0, #0	; 0x0
30005ed0:	1a00000c 	bne	30005f08 <do_test+0x31c>
30005ed4:	e3a01000 	mov	r1, #0	; 0x0
30005ed8:	e3a0200a 	mov	r2, #10	; 0xa
30005edc:	e5950000 	ldr	r0, [r5]
30005ee0:	eb001ec5 	bl	3000d9fc <simple_strtol>
30005ee4:	e3a01000 	mov	r1, #0	; 0x0
30005ee8:	e1a04000 	mov	r4, r0
30005eec:	e3a0200a 	mov	r2, #10	; 0xa
30005ef0:	e5950008 	ldr	r0, [r5, #8]
30005ef4:	eb001ec0 	bl	3000d9fc <simple_strtol>
30005ef8:	e1540000 	cmp	r4, r0
30005efc:	c3a04000 	movgt	r4, #0	; 0x0
30005f00:	d3a04001 	movle	r4, #1	; 0x1
30005f04:	ea000022 	b	30005f94 <do_test+0x3a8>
30005f08:	e5940000 	ldr	r0, [r4]
30005f0c:	e59f114c 	ldr	r1, [pc, #332]	; 30006060 <do_test+0x474>
30005f10:	eb001d26 	bl	3000d3b0 <strcmp>
30005f14:	e2506000 	subs	r6, r0, #0	; 0x0
30005f18:	1a00000c 	bne	30005f50 <do_test+0x364>
30005f1c:	e1a01006 	mov	r1, r6
30005f20:	e3a0200a 	mov	r2, #10	; 0xa
30005f24:	e5950000 	ldr	r0, [r5]
30005f28:	eb001eb3 	bl	3000d9fc <simple_strtol>
30005f2c:	e1a01006 	mov	r1, r6
30005f30:	e1a04000 	mov	r4, r0
30005f34:	e3a0200a 	mov	r2, #10	; 0xa
30005f38:	e5950008 	ldr	r0, [r5, #8]
30005f3c:	eb001eae 	bl	3000d9fc <simple_strtol>
30005f40:	e1540000 	cmp	r4, r0
30005f44:	d3a04000 	movle	r4, #0	; 0x0
30005f48:	c3a04001 	movgt	r4, #1	; 0x1
30005f4c:	ea000010 	b	30005f94 <do_test+0x3a8>
30005f50:	e5940000 	ldr	r0, [r4]
30005f54:	e59f1108 	ldr	r1, [pc, #264]	; 30006064 <do_test+0x478>
30005f58:	eb001d14 	bl	3000d3b0 <strcmp>
30005f5c:	e2506000 	subs	r6, r0, #0	; 0x0
30005f60:	1a00001e 	bne	30005fe0 <do_test+0x3f4>
30005f64:	e1a01006 	mov	r1, r6
30005f68:	e3a0200a 	mov	r2, #10	; 0xa
30005f6c:	e5950000 	ldr	r0, [r5]
30005f70:	eb001ea1 	bl	3000d9fc <simple_strtol>
30005f74:	e1a01006 	mov	r1, r6
30005f78:	e1a04000 	mov	r4, r0
30005f7c:	e3a0200a 	mov	r2, #10	; 0xa
30005f80:	e5950008 	ldr	r0, [r5, #8]
30005f84:	eb001e9c 	bl	3000d9fc <simple_strtol>
30005f88:	e1540000 	cmp	r4, r0
30005f8c:	b3a04000 	movlt	r4, #0	; 0x0
30005f90:	a3a04001 	movge	r4, #1	; 0x1
30005f94:	e3570000 	cmp	r7, #0	; 0x0
30005f98:	1a000003 	bne	30005fac <do_test+0x3c0>
30005f9c:	e1944009 	orrs	r4, r4, r9
30005fa0:	03a04000 	moveq	r4, #0	; 0x0
30005fa4:	13a04001 	movne	r4, #1	; 0x1
30005fa8:	ea000005 	b	30005fc4 <do_test+0x3d8>
30005fac:	e3570001 	cmp	r7, #1	; 0x1
30005fb0:	1a000003 	bne	30005fc4 <do_test+0x3d8>
30005fb4:	e3540000 	cmp	r4, #0	; 0x0
30005fb8:	13590000 	cmpne	r9, #0	; 0x0
30005fbc:	03a04000 	moveq	r4, #0	; 0x0
30005fc0:	13a04001 	movne	r4, #1	; 0x1
30005fc4:	e3e07000 	mvn	r7, #0	; 0x0
30005fc8:	e3a06003 	mov	r6, #3	; 0x3
30005fcc:	e066a00a 	rsb	sl, r6, sl
30005fd0:	e35a0000 	cmp	sl, #0	; 0x0
30005fd4:	da000002 	ble	30005fe4 <do_test+0x3f8>
30005fd8:	e0855106 	add	r5, r5, r6, lsl #2
30005fdc:	eaffff13 	b	30005c30 <do_test+0x44>
30005fe0:	e3a04001 	mov	r4, #1	; 0x1
30005fe4:	e35b0000 	cmp	fp, #0	; 0x0
30005fe8:	0a000001 	beq	30005ff4 <do_test+0x408>
30005fec:	e2744001 	rsbs	r4, r4, #1	; 0x1
30005ff0:	33a04000 	movcc	r4, #0	; 0x0
30005ff4:	e2740001 	rsbs	r0, r4, #1	; 0x1
30005ff8:	33a00000 	movcc	r0, #0	; 0x0
30005ffc:	e8bd8ef0 	pop	{r4, r5, r6, r7, r9, sl, fp, pc}
30006000:	e5950000 	ldr	r0, [r5]
30006004:	e59f1024 	ldr	r1, [pc, #36]	; 30006030 <do_test+0x444>
30006008:	eb001ce8 	bl	3000d3b0 <strcmp>
3000600c:	e3500000 	cmp	r0, #0	; 0x0
30006010:	1affff1f 	bne	30005c94 <do_test+0xa8>
30006014:	e1a07000 	mov	r7, r0
30006018:	e1a09004 	mov	r9, r4
3000601c:	e3a06001 	mov	r6, #1	; 0x1
30006020:	eaffffe9 	b	30005fcc <do_test+0x3e0>
30006024:	e3e07000 	mvn	r7, #0	; 0x0
30006028:	eaffffe7 	b	30005fcc <do_test+0x3e0>
3000602c:	30019bf6 	.word	0x30019bf6
30006030:	30019bf8 	.word	0x30019bf8
30006034:	30019bfb 	.word	0x30019bfb
30006038:	30019bfe 	.word	0x30019bfe
3000603c:	30019c01 	.word	0x30019c01
30006040:	300189dd 	.word	0x300189dd
30006044:	300189dc 	.word	0x300189dc
30006048:	300189e0 	.word	0x300189e0
3000604c:	300189cb 	.word	0x300189cb
30006050:	300189d1 	.word	0x300189d1
30006054:	300189d8 	.word	0x300189d8
30006058:	300189c7 	.word	0x300189c7
3000605c:	300189e9 	.word	0x300189e9
30006060:	300189cd 	.word	0x300189cd
30006064:	300189e2 	.word	0x300189e2

30006068 <console_setfile>:
30006068:	e92d4070 	push	{r4, r5, r6, lr}
3000606c:	e2515000 	subs	r5, r1, #0	; 0x0
30006070:	e1a04000 	mov	r4, r0
30006074:	0a000021 	beq	30006100 <console_setfile+0x98>
30006078:	e3500002 	cmp	r0, #2	; 0x2
3000607c:	8a00001f 	bhi	30006100 <console_setfile+0x98>
30006080:	e5950018 	ldr	r0, [r5, #24]
30006084:	e3500000 	cmp	r0, #0	; 0x0
30006088:	01a06000 	moveq	r6, r0
3000608c:	0a000003 	beq	300060a0 <console_setfile+0x38>
30006090:	e1a0e00f 	mov	lr, pc
30006094:	e1a0f000 	mov	pc, r0
30006098:	e2506000 	subs	r6, r0, #0	; 0x0
3000609c:	ba000018 	blt	30006104 <console_setfile+0x9c>
300060a0:	e59f3064 	ldr	r3, [pc, #100]	; 3000610c <console_setfile+0xa4>
300060a4:	e3540000 	cmp	r4, #0	; 0x0
300060a8:	e7835104 	str	r5, [r3, r4, lsl #2]
300060ac:	0a000002 	beq	300060bc <console_setfile+0x54>
300060b0:	e3540001 	cmp	r4, #1	; 0x1
300060b4:	1a000012 	bne	30006104 <console_setfile+0x9c>
300060b8:	ea000006 	b	300060d8 <console_setfile+0x70>
300060bc:	e598201c 	ldr	r2, [r8, #28]
300060c0:	e5950028 	ldr	r0, [r5, #40]
300060c4:	e598101c 	ldr	r1, [r8, #28]
300060c8:	e595302c 	ldr	r3, [r5, #44]
300060cc:	e5823004 	str	r3, [r2, #4]
300060d0:	e5810008 	str	r0, [r1, #8]
300060d4:	ea00000a 	b	30006104 <console_setfile+0x9c>
300060d8:	e598001c 	ldr	r0, [r8, #28]
300060dc:	e5954024 	ldr	r4, [r5, #36]
300060e0:	e598101c 	ldr	r1, [r8, #28]
300060e4:	e5952020 	ldr	r2, [r5, #32]
300060e8:	e598c01c 	ldr	ip, [r8, #28]
300060ec:	e59f301c 	ldr	r3, [pc, #28]	; 30006110 <console_setfile+0xa8>
300060f0:	e580200c 	str	r2, [r0, #12]
300060f4:	e5814010 	str	r4, [r1, #16]
300060f8:	e58c3014 	str	r3, [ip, #20]
300060fc:	ea000000 	b	30006104 <console_setfile+0x9c>
30006100:	e3e06000 	mvn	r6, #0	; 0x0
30006104:	e1a00006 	mov	r0, r6
30006108:	e8bd8070 	pop	{r4, r5, r6, pc}
3000610c:	3001dc64 	.word	0x3001dc64
30006110:	30006304 	.word	0x30006304

30006114 <fgetc>:
30006114:	e3500002 	cmp	r0, #2	; 0x2
30006118:	e92d4010 	push	{r4, lr}
3000611c:	c3e00000 	mvngt	r0, #0	; 0x0
30006120:	c8bd8010 	popgt	{r4, pc}
30006124:	e59f300c 	ldr	r3, [pc, #12]	; 30006138 <fgetc+0x24>
30006128:	e7933100 	ldr	r3, [r3, r0, lsl #2]
3000612c:	e1a0e00f 	mov	lr, pc
30006130:	e593f02c 	ldr	pc, [r3, #44]
30006134:	e8bd8010 	pop	{r4, pc}
30006138:	3001dc64 	.word	0x3001dc64

3000613c <ftstc>:
3000613c:	e3500002 	cmp	r0, #2	; 0x2
30006140:	e92d4010 	push	{r4, lr}
30006144:	c3e00000 	mvngt	r0, #0	; 0x0
30006148:	c8bd8010 	popgt	{r4, pc}
3000614c:	e59f300c 	ldr	r3, [pc, #12]	; 30006160 <ftstc+0x24>
30006150:	e7933100 	ldr	r3, [r3, r0, lsl #2]
30006154:	e1a0e00f 	mov	lr, pc
30006158:	e593f028 	ldr	pc, [r3, #40]
3000615c:	e8bd8010 	pop	{r4, pc}
30006160:	3001dc64 	.word	0x3001dc64

30006164 <fputc>:
30006164:	e3500002 	cmp	r0, #2	; 0x2
30006168:	e92d4010 	push	{r4, lr}
3000616c:	c8bd8010 	popgt	{r4, pc}
30006170:	e59f3010 	ldr	r3, [pc, #16]	; 30006188 <fputc+0x24>
30006174:	e7933100 	ldr	r3, [r3, r0, lsl #2]
30006178:	e1a00001 	mov	r0, r1
3000617c:	e1a0e00f 	mov	lr, pc
30006180:	e593f020 	ldr	pc, [r3, #32]
30006184:	e8bd8010 	pop	{r4, pc}
30006188:	3001dc64 	.word	0x3001dc64

3000618c <fputs>:
3000618c:	e3500002 	cmp	r0, #2	; 0x2
30006190:	e92d4010 	push	{r4, lr}
30006194:	c8bd8010 	popgt	{r4, pc}
30006198:	e59f3010 	ldr	r3, [pc, #16]	; 300061b0 <fputs+0x24>
3000619c:	e7933100 	ldr	r3, [r3, r0, lsl #2]
300061a0:	e1a00001 	mov	r0, r1
300061a4:	e1a0e00f 	mov	lr, pc
300061a8:	e593f024 	ldr	pc, [r3, #36]
300061ac:	e8bd8010 	pop	{r4, pc}
300061b0:	3001dc64 	.word	0x3001dc64

300061b4 <disable_ctrlc>:
300061b4:	e59f300c 	ldr	r3, [pc, #12]	; 300061c8 <disable_ctrlc+0x14>
300061b8:	e5932000 	ldr	r2, [r3]
300061bc:	e5830000 	str	r0, [r3]
300061c0:	e1a00002 	mov	r0, r2
300061c4:	e1a0f00e 	mov	pc, lr
300061c8:	3001c424 	.word	0x3001c424

300061cc <had_ctrlc>:
300061cc:	e59f3004 	ldr	r3, [pc, #4]	; 300061d8 <had_ctrlc+0xc>
300061d0:	e5930004 	ldr	r0, [r3, #4]
300061d4:	e1a0f00e 	mov	pc, lr
300061d8:	3001c424 	.word	0x3001c424

300061dc <clear_ctrlc>:
300061dc:	e59f3008 	ldr	r3, [pc, #8]	; 300061ec <clear_ctrlc+0x10>
300061e0:	e3a02000 	mov	r2, #0	; 0x0
300061e4:	e5832004 	str	r2, [r3, #4]
300061e8:	e1a0f00e 	mov	pc, lr
300061ec:	3001c424 	.word	0x3001c424

300061f0 <dbg>:
300061f0:	e92d000f 	push	{r0, r1, r2, r3}
300061f4:	e28dd010 	add	sp, sp, #16	; 0x10
300061f8:	e1a0f00e 	mov	pc, lr

300061fc <console_init_f>:
300061fc:	e3a03001 	mov	r3, #1	; 0x1
30006200:	e588300c 	str	r3, [r8, #12]
30006204:	e3a00000 	mov	r0, #0	; 0x0
30006208:	e1a0f00e 	mov	pc, lr

3000620c <search_device>:
3000620c:	e92d4010 	push	{r4, lr}
30006210:	e1a04000 	mov	r4, r0
30006214:	e1a00001 	mov	r0, r1
30006218:	eb001505 	bl	3000b634 <stdio_get_by_name>
3000621c:	e3500000 	cmp	r0, #0	; 0x0
30006220:	08bd8010 	popeq	{r4, pc}
30006224:	e5903000 	ldr	r3, [r0]
30006228:	e0143003 	ands	r3, r4, r3
3000622c:	01a00003 	moveq	r0, r3
30006230:	e8bd8010 	pop	{r4, pc}

30006234 <console_assign>:
30006234:	e92d4010 	push	{r4, lr}
30006238:	e2504000 	subs	r4, r0, #0	; 0x0
3000623c:	03a00001 	moveq	r0, #1	; 0x1
30006240:	0a000003 	beq	30006254 <console_assign+0x20>
30006244:	ba000008 	blt	3000626c <console_assign+0x38>
30006248:	e3540002 	cmp	r4, #2	; 0x2
3000624c:	d3a00002 	movle	r0, #2	; 0x2
30006250:	ca000005 	bgt	3000626c <console_assign+0x38>
30006254:	ebffffec 	bl	3000620c <search_device>
30006258:	e2501000 	subs	r1, r0, #0	; 0x0
3000625c:	0a000002 	beq	3000626c <console_assign+0x38>
30006260:	e1a00004 	mov	r0, r4
30006264:	e8bd4010 	pop	{r4, lr}
30006268:	eaffff7e 	b	30006068 <console_setfile>
3000626c:	e3e00000 	mvn	r0, #0	; 0x0
30006270:	e8bd8010 	pop	{r4, pc}

30006274 <fprintf>:
30006274:	e92d000e 	push	{r1, r2, r3}
30006278:	e92d4030 	push	{r4, r5, lr}
3000627c:	e24ddf4a 	sub	sp, sp, #296	; 0x128
30006280:	e28d3f4e 	add	r3, sp, #312	; 0x138
30006284:	e28d4004 	add	r4, sp, #4	; 0x4
30006288:	e1a05000 	mov	r5, r0
3000628c:	e59d1134 	ldr	r1, [sp, #308]
30006290:	e1a02003 	mov	r2, r3
30006294:	e1a00004 	mov	r0, r4
30006298:	e58d3124 	str	r3, [sp, #292]
3000629c:	eb001f4a 	bl	3000dfcc <vsprintf>
300062a0:	e1a00005 	mov	r0, r5
300062a4:	e1a01004 	mov	r1, r4
300062a8:	ebffffb7 	bl	3000618c <fputs>
300062ac:	e28ddf4a 	add	sp, sp, #296	; 0x128
300062b0:	e8bd4030 	pop	{r4, r5, lr}
300062b4:	e28dd00c 	add	sp, sp, #12	; 0xc
300062b8:	e1a0f00e 	mov	pc, lr

300062bc <puts>:
300062bc:	e5983004 	ldr	r3, [r8, #4]
300062c0:	e3130002 	tst	r3, #2	; 0x2
300062c4:	e1a01000 	mov	r1, r0
300062c8:	0a000001 	beq	300062d4 <puts+0x18>
300062cc:	e3a00001 	mov	r0, #1	; 0x1
300062d0:	eaffffad 	b	3000618c <fputs>
300062d4:	eaffe946 	b	300007f4 <serial_puts>

300062d8 <vprintf>:
300062d8:	e92d4010 	push	{r4, lr}
300062dc:	e24dde12 	sub	sp, sp, #288	; 0x120
300062e0:	e1a02001 	mov	r2, r1
300062e4:	e1a01000 	mov	r1, r0
300062e8:	e1a0000d 	mov	r0, sp
300062ec:	eb001f36 	bl	3000dfcc <vsprintf>
300062f0:	e1a0000d 	mov	r0, sp
300062f4:	e1a0400d 	mov	r4, sp
300062f8:	ebffffef 	bl	300062bc <puts>
300062fc:	e28dde12 	add	sp, sp, #288	; 0x120
30006300:	e8bd8010 	pop	{r4, pc}

30006304 <printf>:
30006304:	e92d000f 	push	{r0, r1, r2, r3}
30006308:	e92d4010 	push	{r4, lr}
3000630c:	e24ddf4a 	sub	sp, sp, #296	; 0x128
30006310:	e28d3f4d 	add	r3, sp, #308	; 0x134
30006314:	e28d4004 	add	r4, sp, #4	; 0x4
30006318:	e1a02003 	mov	r2, r3
3000631c:	e1a00004 	mov	r0, r4
30006320:	e59d1130 	ldr	r1, [sp, #304]
30006324:	e58d3124 	str	r3, [sp, #292]
30006328:	eb001f27 	bl	3000dfcc <vsprintf>
3000632c:	e1a00004 	mov	r0, r4
30006330:	ebffffe1 	bl	300062bc <puts>
30006334:	e28ddf4a 	add	sp, sp, #296	; 0x128
30006338:	e8bd4010 	pop	{r4, lr}
3000633c:	e28dd010 	add	sp, sp, #16	; 0x10
30006340:	e1a0f00e 	mov	pc, lr

30006344 <stdio_print_current_devices>:
30006344:	e92d4010 	push	{r4, lr}
30006348:	e59f008c 	ldr	r0, [pc, #140]	; 300063dc <stdio_print_current_devices+0x98>
3000634c:	ebffffda 	bl	300062bc <puts>
30006350:	e59f3088 	ldr	r3, [pc, #136]	; 300063e0 <stdio_print_current_devices+0x9c>
30006354:	e5931000 	ldr	r1, [r3]
30006358:	e3510000 	cmp	r1, #0	; 0x0
3000635c:	1a000002 	bne	3000636c <stdio_print_current_devices+0x28>
30006360:	e59f007c 	ldr	r0, [pc, #124]	; 300063e4 <stdio_print_current_devices+0xa0>
30006364:	ebffffd4 	bl	300062bc <puts>
30006368:	ea000002 	b	30006378 <stdio_print_current_devices+0x34>
3000636c:	e2811008 	add	r1, r1, #8	; 0x8
30006370:	e59f0070 	ldr	r0, [pc, #112]	; 300063e8 <stdio_print_current_devices+0xa4>
30006374:	ebffffe2 	bl	30006304 <printf>
30006378:	e59f006c 	ldr	r0, [pc, #108]	; 300063ec <stdio_print_current_devices+0xa8>
3000637c:	ebffffce 	bl	300062bc <puts>
30006380:	e59f3058 	ldr	r3, [pc, #88]	; 300063e0 <stdio_print_current_devices+0x9c>
30006384:	e5931004 	ldr	r1, [r3, #4]
30006388:	e3510000 	cmp	r1, #0	; 0x0
3000638c:	1a000002 	bne	3000639c <stdio_print_current_devices+0x58>
30006390:	e59f0058 	ldr	r0, [pc, #88]	; 300063f0 <stdio_print_current_devices+0xac>
30006394:	ebffffc8 	bl	300062bc <puts>
30006398:	ea000002 	b	300063a8 <stdio_print_current_devices+0x64>
3000639c:	e2811008 	add	r1, r1, #8	; 0x8
300063a0:	e59f0040 	ldr	r0, [pc, #64]	; 300063e8 <stdio_print_current_devices+0xa4>
300063a4:	ebffffd6 	bl	30006304 <printf>
300063a8:	e59f0044 	ldr	r0, [pc, #68]	; 300063f4 <stdio_print_current_devices+0xb0>
300063ac:	ebffffc2 	bl	300062bc <puts>
300063b0:	e59f3028 	ldr	r3, [pc, #40]	; 300063e0 <stdio_print_current_devices+0x9c>
300063b4:	e5931008 	ldr	r1, [r3, #8]
300063b8:	e3510000 	cmp	r1, #0	; 0x0
300063bc:	1a000002 	bne	300063cc <stdio_print_current_devices+0x88>
300063c0:	e59f0030 	ldr	r0, [pc, #48]	; 300063f8 <stdio_print_current_devices+0xb4>
300063c4:	e8bd4010 	pop	{r4, lr}
300063c8:	eaffffbb 	b	300062bc <puts>
300063cc:	e59f0014 	ldr	r0, [pc, #20]	; 300063e8 <stdio_print_current_devices+0xa4>
300063d0:	e2811008 	add	r1, r1, #8	; 0x8
300063d4:	e8bd4010 	pop	{r4, lr}
300063d8:	eaffffc9 	b	30006304 <printf>
300063dc:	30019df0 	.word	0x30019df0
300063e0:	3001dc64 	.word	0x3001dc64
300063e4:	30019df8 	.word	0x30019df8
300063e8:	30019b5d 	.word	0x30019b5d
300063ec:	30019e15 	.word	0x30019e15
300063f0:	30019e1d 	.word	0x30019e1d
300063f4:	30019e3b 	.word	0x30019e3b
300063f8:	30019e43 	.word	0x30019e43

300063fc <console_init_r>:
300063fc:	e92d4070 	push	{r4, r5, r6, lr}
30006400:	eb001443 	bl	3000b514 <stdio_get_list>
30006404:	e3a05000 	mov	r5, #0	; 0x0
30006408:	e590c000 	ldr	ip, [r0]
3000640c:	e1a04005 	mov	r4, r5
30006410:	ea00000d 	b	3000644c <console_init_r+0x50>
30006414:	e51c3034 	ldr	r3, [ip, #-52]
30006418:	e3550000 	cmp	r5, #0	; 0x0
3000641c:	13a02000 	movne	r2, #0	; 0x0
30006420:	02032001 	andeq	r2, r3, #1	; 0x1
30006424:	e2741001 	rsbs	r1, r4, #1	; 0x1
30006428:	33a01000 	movcc	r1, #0	; 0x0
3000642c:	e3520000 	cmp	r2, #0	; 0x0
30006430:	11a0500e 	movne	r5, lr
30006434:	e01110a3 	ands	r1, r1, r3, lsr #1
30006438:	11a0400e 	movne	r4, lr
3000643c:	e3550000 	cmp	r5, #0	; 0x0
30006440:	13540000 	cmpne	r4, #0	; 0x0
30006444:	1a000003 	bne	30006458 <console_init_r+0x5c>
30006448:	e59cc000 	ldr	ip, [ip]
3000644c:	e15c0000 	cmp	ip, r0
30006450:	e24ce034 	sub	lr, ip, #52	; 0x34
30006454:	1affffee 	bne	30006414 <console_init_r+0x18>
30006458:	e3540000 	cmp	r4, #0	; 0x0
3000645c:	0a000005 	beq	30006478 <console_init_r+0x7c>
30006460:	e1a01004 	mov	r1, r4
30006464:	e3a00001 	mov	r0, #1	; 0x1
30006468:	ebfffefe 	bl	30006068 <console_setfile>
3000646c:	e1a01004 	mov	r1, r4
30006470:	e3a00002 	mov	r0, #2	; 0x2
30006474:	ebfffefb 	bl	30006068 <console_setfile>
30006478:	e3550000 	cmp	r5, #0	; 0x0
3000647c:	11a01005 	movne	r1, r5
30006480:	13a00000 	movne	r0, #0	; 0x0
30006484:	1bfffef7 	blne	30006068 <console_setfile>
30006488:	e5983004 	ldr	r3, [r8, #4]
3000648c:	e59f5044 	ldr	r5, [pc, #68]	; 300064d8 <console_init_r+0xdc>
30006490:	e3833002 	orr	r3, r3, #2	; 0x2
30006494:	e5883004 	str	r3, [r8, #4]
30006498:	ebffffa9 	bl	30006344 <stdio_print_current_devices>
3000649c:	e59f4038 	ldr	r4, [pc, #56]	; 300064dc <console_init_r+0xe0>
300064a0:	e5951000 	ldr	r1, [r5]
300064a4:	e5940000 	ldr	r0, [r4]
300064a8:	e2811008 	add	r1, r1, #8	; 0x8
300064ac:	ebfffb43 	bl	300051c0 <setenv>
300064b0:	e5951004 	ldr	r1, [r5, #4]
300064b4:	e5940004 	ldr	r0, [r4, #4]
300064b8:	e2811008 	add	r1, r1, #8	; 0x8
300064bc:	ebfffb3f 	bl	300051c0 <setenv>
300064c0:	e5951008 	ldr	r1, [r5, #8]
300064c4:	e5940008 	ldr	r0, [r4, #8]
300064c8:	e2811008 	add	r1, r1, #8	; 0x8
300064cc:	ebfffb3b 	bl	300051c0 <setenv>
300064d0:	e3a00000 	mov	r0, #0	; 0x0
300064d4:	e8bd8070 	pop	{r4, r5, r6, pc}
300064d8:	3001dc64 	.word	0x3001dc64
300064dc:	3001bc24 	.word	0x3001bc24

300064e0 <serial_printf>:
300064e0:	e92d000f 	push	{r0, r1, r2, r3}
300064e4:	e92d4010 	push	{r4, lr}
300064e8:	e24ddf4a 	sub	sp, sp, #296	; 0x128
300064ec:	e28d3f4d 	add	r3, sp, #308	; 0x134
300064f0:	e28d4004 	add	r4, sp, #4	; 0x4
300064f4:	e1a02003 	mov	r2, r3
300064f8:	e1a00004 	mov	r0, r4
300064fc:	e59d1130 	ldr	r1, [sp, #304]
30006500:	e58d3124 	str	r3, [sp, #292]
30006504:	eb001eb0 	bl	3000dfcc <vsprintf>
30006508:	e1a00004 	mov	r0, r4
3000650c:	ebffe8b8 	bl	300007f4 <serial_puts>
30006510:	e28ddf4a 	add	sp, sp, #296	; 0x128
30006514:	e8bd4010 	pop	{r4, lr}
30006518:	e28dd010 	add	sp, sp, #16	; 0x10
3000651c:	e1a0f00e 	mov	pc, lr

30006520 <putc>:
30006520:	e5983004 	ldr	r3, [r8, #4]
30006524:	e3130002 	tst	r3, #2	; 0x2
30006528:	e1a01000 	mov	r1, r0
3000652c:	0a000001 	beq	30006538 <putc+0x18>
30006530:	e3a00001 	mov	r0, #1	; 0x1
30006534:	eaffff0a 	b	30006164 <fputc>
30006538:	eaffe88b 	b	3000076c <serial_putc>

3000653c <tstc>:
3000653c:	e5983004 	ldr	r3, [r8, #4]
30006540:	e3130002 	tst	r3, #2	; 0x2
30006544:	0a000001 	beq	30006550 <tstc+0x14>
30006548:	e3a00000 	mov	r0, #0	; 0x0
3000654c:	eafffefa 	b	3000613c <ftstc>
30006550:	eaffe899 	b	300007bc <serial_tstc>

30006554 <getc>:
30006554:	e5983004 	ldr	r3, [r8, #4]
30006558:	e3130002 	tst	r3, #2	; 0x2
3000655c:	0a000001 	beq	30006568 <getc+0x14>
30006560:	e3a00000 	mov	r0, #0	; 0x0
30006564:	eafffeea 	b	30006114 <fgetc>
30006568:	eaffe87d 	b	30000764 <serial_getc>

3000656c <ctrlc>:
3000656c:	e92d4010 	push	{r4, lr}
30006570:	e59f4040 	ldr	r4, [pc, #64]	; 300065b8 <ctrlc+0x4c>
30006574:	e5943000 	ldr	r3, [r4]
30006578:	e3530000 	cmp	r3, #0	; 0x0
3000657c:	1a00000b 	bne	300065b0 <ctrlc+0x44>
30006580:	e598300c 	ldr	r3, [r8, #12]
30006584:	e3530000 	cmp	r3, #0	; 0x0
30006588:	0a000008 	beq	300065b0 <ctrlc+0x44>
3000658c:	ebffffea 	bl	3000653c <tstc>
30006590:	e3500000 	cmp	r0, #0	; 0x0
30006594:	0a000005 	beq	300065b0 <ctrlc+0x44>
30006598:	ebffffed 	bl	30006554 <getc>
3000659c:	e3500003 	cmp	r0, #3	; 0x3
300065a0:	03a03001 	moveq	r3, #1	; 0x1
300065a4:	05843004 	streq	r3, [r4, #4]
300065a8:	01a00003 	moveq	r0, r3
300065ac:	08bd8010 	popeq	{r4, pc}
300065b0:	e3a00000 	mov	r0, #0	; 0x0
300065b4:	e8bd8010 	pop	{r4, pc}
300065b8:	3001c424 	.word	0x3001c424

300065bc <sbrk>:
300065bc:	e59f2028 	ldr	r2, [pc, #40]	; 300065ec <sbrk+0x30>
300065c0:	e892000a 	ldm	r2, {r1, r3}
300065c4:	e0800001 	add	r0, r0, r1
300065c8:	e1500003 	cmp	r0, r3
300065cc:	3a000004 	bcc	300065e4 <sbrk+0x28>
300065d0:	e5923008 	ldr	r3, [r2, #8]
300065d4:	e1500003 	cmp	r0, r3
300065d8:	95820000 	strls	r0, [r2]
300065dc:	91a00001 	movls	r0, r1
300065e0:	91a0f00e 	movls	pc, lr
300065e4:	e3a00000 	mov	r0, #0	; 0x0
300065e8:	e1a0f00e 	mov	pc, lr
300065ec:	3001c42c 	.word	0x3001c42c

300065f0 <malloc_trim>:
300065f0:	e92d4070 	push	{r4, r5, r6, lr}
300065f4:	e59f60b8 	ldr	r6, [pc, #184]	; 300066b4 <malloc_trim+0xc4>
300065f8:	e5963008 	ldr	r3, [r6, #8]
300065fc:	e5933004 	ldr	r3, [r3, #4]
30006600:	e3c35003 	bic	r5, r3, #3	; 0x3
30006604:	e0600005 	rsb	r0, r0, r5
30006608:	e2800efe 	add	r0, r0, #4064	; 0xfe0
3000660c:	e280000f 	add	r0, r0, #15	; 0xf
30006610:	e3c00eff 	bic	r0, r0, #4080	; 0xff0
30006614:	e3c0000f 	bic	r0, r0, #15	; 0xf
30006618:	e2404a01 	sub	r4, r0, #4096	; 0x1000
3000661c:	e3540a01 	cmp	r4, #4096	; 0x1000
30006620:	ba000021 	blt	300066ac <malloc_trim+0xbc>
30006624:	e3a00000 	mov	r0, #0	; 0x0
30006628:	ebffffe3 	bl	300065bc <sbrk>
3000662c:	e5963008 	ldr	r3, [r6, #8]
30006630:	e0833005 	add	r3, r3, r5
30006634:	e1500003 	cmp	r0, r3
30006638:	1a00001b 	bne	300066ac <malloc_trim+0xbc>
3000663c:	e2640000 	rsb	r0, r4, #0	; 0x0
30006640:	ebffffdd 	bl	300065bc <sbrk>
30006644:	e3700001 	cmn	r0, #1	; 0x1
30006648:	1a00000d 	bne	30006684 <malloc_trim+0x94>
3000664c:	e2800001 	add	r0, r0, #1	; 0x1
30006650:	ebffffd9 	bl	300065bc <sbrk>
30006654:	e596c008 	ldr	ip, [r6, #8]
30006658:	e06c1000 	rsb	r1, ip, r0
3000665c:	e351000f 	cmp	r1, #15	; 0xf
30006660:	da000011 	ble	300066ac <malloc_trim+0xbc>
30006664:	e5963408 	ldr	r3, [r6, #1032]
30006668:	e59f2048 	ldr	r2, [pc, #72]	; 300066b8 <malloc_trim+0xc8>
3000666c:	e0633000 	rsb	r3, r3, r0
30006670:	e3811001 	orr	r1, r1, #1	; 0x1
30006674:	e582300c 	str	r3, [r2, #12]
30006678:	e3a00000 	mov	r0, #0	; 0x0
3000667c:	e58c1004 	str	r1, [ip, #4]
30006680:	e8bd8070 	pop	{r4, r5, r6, pc}
30006684:	e5962008 	ldr	r2, [r6, #8]
30006688:	e0643005 	rsb	r3, r4, r5
3000668c:	e3833001 	orr	r3, r3, #1	; 0x1
30006690:	e5823004 	str	r3, [r2, #4]
30006694:	e59f201c 	ldr	r2, [pc, #28]	; 300066b8 <malloc_trim+0xc8>
30006698:	e592300c 	ldr	r3, [r2, #12]
3000669c:	e0643003 	rsb	r3, r4, r3
300066a0:	e582300c 	str	r3, [r2, #12]
300066a4:	e3a00001 	mov	r0, #1	; 0x1
300066a8:	e8bd8070 	pop	{r4, r5, r6, pc}
300066ac:	e3a00000 	mov	r0, #0	; 0x0
300066b0:	e8bd8070 	pop	{r4, r5, r6, pc}
300066b4:	3001b40c 	.word	0x3001b40c
300066b8:	3001c42c 	.word	0x3001c42c

300066bc <free>:
300066bc:	e92d44f0 	push	{r4, r5, r6, r7, sl, lr}
300066c0:	e2505000 	subs	r5, r0, #0	; 0x0
300066c4:	08bd84f0 	popeq	{r4, r5, r6, r7, sl, pc}
300066c8:	e5153004 	ldr	r3, [r5, #-4]
300066cc:	e59fa214 	ldr	sl, [pc, #532]	; 300068e8 <free+0x22c>
300066d0:	e2454008 	sub	r4, r5, #8	; 0x8
300066d4:	e3c3c001 	bic	ip, r3, #1	; 0x1
300066d8:	e084000c 	add	r0, r4, ip
300066dc:	e59a2008 	ldr	r2, [sl, #8]
300066e0:	e5901004 	ldr	r1, [r0, #4]
300066e4:	e1500002 	cmp	r0, r2
300066e8:	e3c17003 	bic	r7, r1, #3	; 0x3
300066ec:	e2036001 	and	r6, r3, #1	; 0x1
300066f0:	1a000014 	bne	30006748 <free+0x8c>
300066f4:	e3560000 	cmp	r6, #0	; 0x0
300066f8:	e087c00c 	add	ip, r7, ip
300066fc:	1a000006 	bne	3000671c <free+0x60>
30006700:	e5151008 	ldr	r1, [r5, #-8]
30006704:	e0614004 	rsb	r4, r1, r4
30006708:	e594200c 	ldr	r2, [r4, #12]
3000670c:	e5943008 	ldr	r3, [r4, #8]
30006710:	e5823008 	str	r3, [r2, #8]
30006714:	e583200c 	str	r2, [r3, #12]
30006718:	e08cc001 	add	ip, ip, r1
3000671c:	e59f31c4 	ldr	r3, [pc, #452]	; 300068e8 <free+0x22c>
30006720:	e593240c 	ldr	r2, [r3, #1036]
30006724:	e15c0002 	cmp	ip, r2
30006728:	e38c2001 	orr	r2, ip, #1	; 0x1
3000672c:	e5842004 	str	r2, [r4, #4]
30006730:	e5834008 	str	r4, [r3, #8]
30006734:	38bd84f0 	popcc	{r4, r5, r6, r7, sl, pc}
30006738:	e59f31ac 	ldr	r3, [pc, #428]	; 300068ec <free+0x230>
3000673c:	e5930034 	ldr	r0, [r3, #52]
30006740:	e8bd44f0 	pop	{r4, r5, r6, r7, sl, lr}
30006744:	eaffffa9 	b	300065f0 <malloc_trim>
30006748:	e3560000 	cmp	r6, #0	; 0x0
3000674c:	e5807004 	str	r7, [r0, #4]
30006750:	13a05000 	movne	r5, #0	; 0x0
30006754:	1a00000a 	bne	30006784 <free+0xc8>
30006758:	e5152008 	ldr	r2, [r5, #-8]
3000675c:	e0624004 	rsb	r4, r2, r4
30006760:	e5941008 	ldr	r1, [r4, #8]
30006764:	e28a3008 	add	r3, sl, #8	; 0x8
30006768:	e1510003 	cmp	r1, r3
3000676c:	1594300c 	ldrne	r3, [r4, #12]
30006770:	15831008 	strne	r1, [r3, #8]
30006774:	1581300c 	strne	r3, [r1, #12]
30006778:	e08cc002 	add	ip, ip, r2
3000677c:	03a05001 	moveq	r5, #1	; 0x1
30006780:	11a05006 	movne	r5, r6
30006784:	e0803007 	add	r3, r0, r7
30006788:	e5933004 	ldr	r3, [r3, #4]
3000678c:	e3130001 	tst	r3, #1	; 0x1
30006790:	1a000010 	bne	300067d8 <free+0x11c>
30006794:	e3550000 	cmp	r5, #0	; 0x0
30006798:	e08cc007 	add	ip, ip, r7
3000679c:	1a000009 	bne	300067c8 <free+0x10c>
300067a0:	e5902008 	ldr	r2, [r0, #8]
300067a4:	e59f3144 	ldr	r3, [pc, #324]	; 300068f0 <free+0x234>
300067a8:	e1520003 	cmp	r2, r3
300067ac:	1a000005 	bne	300067c8 <free+0x10c>
300067b0:	e582400c 	str	r4, [r2, #12]
300067b4:	e5824008 	str	r4, [r2, #8]
300067b8:	e584200c 	str	r2, [r4, #12]
300067bc:	e5842008 	str	r2, [r4, #8]
300067c0:	e2855001 	add	r5, r5, #1	; 0x1
300067c4:	ea000003 	b	300067d8 <free+0x11c>
300067c8:	e2802008 	add	r2, r0, #8	; 0x8
300067cc:	e892000c 	ldm	r2, {r2, r3}
300067d0:	e5832008 	str	r2, [r3, #8]
300067d4:	e582300c 	str	r3, [r2, #12]
300067d8:	e38c3001 	orr	r3, ip, #1	; 0x1
300067dc:	e3550000 	cmp	r5, #0	; 0x0
300067e0:	e5843004 	str	r3, [r4, #4]
300067e4:	e784c00c 	str	ip, [r4, ip]
300067e8:	18bd84f0 	popne	{r4, r5, r6, r7, sl, pc}
300067ec:	e35c0c02 	cmp	ip, #512	; 0x200
300067f0:	2a00000c 	bcs	30006828 <free+0x16c>
300067f4:	e59f30ec 	ldr	r3, [pc, #236]	; 300068e8 <free+0x22c>
300067f8:	e1a0c1ac 	lsr	ip, ip, #3
300067fc:	e5932004 	ldr	r2, [r3, #4]
30006800:	e1a0014c 	asr	r0, ip, #2
30006804:	e3a01001 	mov	r1, #1	; 0x1
30006808:	e1822011 	orr	r2, r2, r1, lsl r0
3000680c:	e5832004 	str	r2, [r3, #4]
30006810:	e083318c 	add	r3, r3, ip, lsl #3
30006814:	e5932008 	ldr	r2, [r3, #8]
30006818:	e584300c 	str	r3, [r4, #12]
3000681c:	e5842008 	str	r2, [r4, #8]
30006820:	e582400c 	str	r4, [r2, #12]
30006824:	ea00002d 	b	300068e0 <free+0x224>
30006828:	e1a014ac 	lsr	r1, ip, #9
3000682c:	e3510004 	cmp	r1, #4	; 0x4
30006830:	91a0332c 	lsrls	r3, ip, #6
30006834:	92831038 	addls	r1, r3, #56	; 0x38
30006838:	9a00000f 	bls	3000687c <free+0x1c0>
3000683c:	e3510014 	cmp	r1, #20	; 0x14
30006840:	9281105b 	addls	r1, r1, #91	; 0x5b
30006844:	9a00000c 	bls	3000687c <free+0x1c0>
30006848:	e3510054 	cmp	r1, #84	; 0x54
3000684c:	91a0362c 	lsrls	r3, ip, #12
30006850:	9283106e 	addls	r1, r3, #110	; 0x6e
30006854:	9a000008 	bls	3000687c <free+0x1c0>
30006858:	e3510f55 	cmp	r1, #340	; 0x154
3000685c:	91a037ac 	lsrls	r3, ip, #15
30006860:	92831077 	addls	r1, r3, #119	; 0x77
30006864:	9a000004 	bls	3000687c <free+0x1c0>
30006868:	e59f3084 	ldr	r3, [pc, #132]	; 300068f4 <free+0x238>
3000686c:	e1510003 	cmp	r1, r3
30006870:	91a0392c 	lsrls	r3, ip, #18
30006874:	83a0107e 	movhi	r1, #126	; 0x7e
30006878:	9283107c 	addls	r1, r3, #124	; 0x7c
3000687c:	e59f6064 	ldr	r6, [pc, #100]	; 300068e8 <free+0x22c>
30006880:	e0865181 	add	r5, r6, r1, lsl #3
30006884:	e5950008 	ldr	r0, [r5, #8]
30006888:	e1500005 	cmp	r0, r5
3000688c:	11a02000 	movne	r2, r0
30006890:	1a000009 	bne	300068bc <free+0x200>
30006894:	e5963004 	ldr	r3, [r6, #4]
30006898:	e1a01141 	asr	r1, r1, #2
3000689c:	e3a02001 	mov	r2, #1	; 0x1
300068a0:	e1833112 	orr	r3, r3, r2, lsl r1
300068a4:	e5863004 	str	r3, [r6, #4]
300068a8:	e1a03000 	mov	r3, r0
300068ac:	ea000008 	b	300068d4 <free+0x218>
300068b0:	e5922008 	ldr	r2, [r2, #8]
300068b4:	e1520005 	cmp	r2, r5
300068b8:	0a000003 	beq	300068cc <free+0x210>
300068bc:	e5923004 	ldr	r3, [r2, #4]
300068c0:	e3c33003 	bic	r3, r3, #3	; 0x3
300068c4:	e15c0003 	cmp	ip, r3
300068c8:	3afffff8 	bcc	300068b0 <free+0x1f4>
300068cc:	e592300c 	ldr	r3, [r2, #12]
300068d0:	e1a00002 	mov	r0, r2
300068d4:	e584300c 	str	r3, [r4, #12]
300068d8:	e5840008 	str	r0, [r4, #8]
300068dc:	e580400c 	str	r4, [r0, #12]
300068e0:	e5834008 	str	r4, [r3, #8]
300068e4:	e8bd84f0 	pop	{r4, r5, r6, r7, sl, pc}
300068e8:	3001b40c 	.word	0x3001b40c
300068ec:	3001c42c 	.word	0x3001c42c
300068f0:	3001b414 	.word	0x3001b414
300068f4:	00000554 	.word	0x00000554

300068f8 <cfree>:
300068f8:	eaffff6f 	b	300066bc <free>

300068fc <malloc>:
300068fc:	e3500000 	cmp	r0, #0	; 0x0
30006900:	e92d47f0 	push	{r4, r5, r6, r7, r8, r9, sl, lr}
30006904:	ba000174 	blt	30006edc <malloc+0x5e0>
30006908:	e280000b 	add	r0, r0, #11	; 0xb
3000690c:	e3500016 	cmp	r0, #22	; 0x16
30006910:	d3a0a010 	movle	sl, #16	; 0x10
30006914:	da000002 	ble	30006924 <malloc+0x28>
30006918:	e3c0a007 	bic	sl, r0, #7	; 0x7
3000691c:	e35a0f7e 	cmp	sl, #504	; 0x1f8
30006920:	2a000015 	bcs	3000697c <malloc+0x80>
30006924:	e59f35bc 	ldr	r3, [pc, #1468]	; 30006ee8 <malloc+0x5ec>
30006928:	e1a021aa 	lsr	r2, sl, #3
3000692c:	e0833182 	add	r3, r3, r2, lsl #3
30006930:	e593c00c 	ldr	ip, [r3, #12]
30006934:	e15c0003 	cmp	ip, r3
30006938:	1a000004 	bne	30006950 <malloc+0x54>
3000693c:	e28c3008 	add	r3, ip, #8	; 0x8
30006940:	e593c00c 	ldr	ip, [r3, #12]
30006944:	e15c0003 	cmp	ip, r3
30006948:	02827002 	addeq	r7, r2, #2	; 0x2
3000694c:	0a00003b 	beq	30006a40 <malloc+0x144>
30006950:	e59c3004 	ldr	r3, [ip, #4]
30006954:	e3c33003 	bic	r3, r3, #3	; 0x3
30006958:	e08c3003 	add	r3, ip, r3
3000695c:	e5932004 	ldr	r2, [r3, #4]
30006960:	e59c000c 	ldr	r0, [ip, #12]
30006964:	e59c1008 	ldr	r1, [ip, #8]
30006968:	e3822001 	orr	r2, r2, #1	; 0x1
3000696c:	e5801008 	str	r1, [r0, #8]
30006970:	e5832004 	str	r2, [r3, #4]
30006974:	e581000c 	str	r0, [r1, #12]
30006978:	ea00004c 	b	30006ab0 <malloc+0x1b4>
3000697c:	e1b024aa 	lsrs	r2, sl, #9
30006980:	01a021aa 	lsreq	r2, sl, #3
30006984:	0a000013 	beq	300069d8 <malloc+0xdc>
30006988:	e3520004 	cmp	r2, #4	; 0x4
3000698c:	91a0332a 	lsrls	r3, sl, #6
30006990:	92832038 	addls	r2, r3, #56	; 0x38
30006994:	9a00000f 	bls	300069d8 <malloc+0xdc>
30006998:	e3520014 	cmp	r2, #20	; 0x14
3000699c:	9282205b 	addls	r2, r2, #91	; 0x5b
300069a0:	9a00000c 	bls	300069d8 <malloc+0xdc>
300069a4:	e3520054 	cmp	r2, #84	; 0x54
300069a8:	91a0362a 	lsrls	r3, sl, #12
300069ac:	9283206e 	addls	r2, r3, #110	; 0x6e
300069b0:	9a000008 	bls	300069d8 <malloc+0xdc>
300069b4:	e3520f55 	cmp	r2, #340	; 0x154
300069b8:	91a037aa 	lsrls	r3, sl, #15
300069bc:	92832077 	addls	r2, r3, #119	; 0x77
300069c0:	9a000004 	bls	300069d8 <malloc+0xdc>
300069c4:	e59f3520 	ldr	r3, [pc, #1312]	; 30006eec <malloc+0x5f0>
300069c8:	e1520003 	cmp	r2, r3
300069cc:	91a0392a 	lsrls	r3, sl, #18
300069d0:	83a0207e 	movhi	r2, #126	; 0x7e
300069d4:	9283207c 	addls	r2, r3, #124	; 0x7c
300069d8:	e59f3508 	ldr	r3, [pc, #1288]	; 30006ee8 <malloc+0x5ec>
300069dc:	e0834182 	add	r4, r3, r2, lsl #3
300069e0:	e594000c 	ldr	r0, [r4, #12]
300069e4:	ea000012 	b	30006a34 <malloc+0x138>
300069e8:	e5903004 	ldr	r3, [r0, #4]
300069ec:	e3c33003 	bic	r3, r3, #3	; 0x3
300069f0:	e06a1003 	rsb	r1, sl, r3
300069f4:	e351000f 	cmp	r1, #15	; 0xf
300069f8:	c2422001 	subgt	r2, r2, #1	; 0x1
300069fc:	ca00000e 	bgt	30006a3c <malloc+0x140>
30006a00:	e3510000 	cmp	r1, #0	; 0x0
30006a04:	e590c00c 	ldr	ip, [r0, #12]
30006a08:	ba000008 	blt	30006a30 <malloc+0x134>
30006a0c:	e0803003 	add	r3, r0, r3
30006a10:	e5932004 	ldr	r2, [r3, #4]
30006a14:	e5901008 	ldr	r1, [r0, #8]
30006a18:	e3822001 	orr	r2, r2, #1	; 0x1
30006a1c:	e58c1008 	str	r1, [ip, #8]
30006a20:	e5832004 	str	r2, [r3, #4]
30006a24:	e581c00c 	str	ip, [r1, #12]
30006a28:	e2805008 	add	r5, r0, #8	; 0x8
30006a2c:	ea00012b 	b	30006ee0 <malloc+0x5e4>
30006a30:	e1a0000c 	mov	r0, ip
30006a34:	e1500004 	cmp	r0, r4
30006a38:	1affffea 	bne	300069e8 <malloc+0xec>
30006a3c:	e2827001 	add	r7, r2, #1	; 0x1
30006a40:	e59f54a0 	ldr	r5, [pc, #1184]	; 30006ee8 <malloc+0x5ec>
30006a44:	e2859008 	add	r9, r5, #8	; 0x8
30006a48:	e599c008 	ldr	ip, [r9, #8]
30006a4c:	e15c0009 	cmp	ip, r9
30006a50:	0a000054 	beq	30006ba8 <malloc+0x2ac>
30006a54:	e59c3004 	ldr	r3, [ip, #4]
30006a58:	e3c34003 	bic	r4, r3, #3	; 0x3
30006a5c:	e06a0004 	rsb	r0, sl, r4
30006a60:	e350000f 	cmp	r0, #15	; 0xf
30006a64:	da000009 	ble	30006a90 <malloc+0x194>
30006a68:	e08c200a 	add	r2, ip, sl
30006a6c:	e38a3001 	orr	r3, sl, #1	; 0x1
30006a70:	e3801001 	orr	r1, r0, #1	; 0x1
30006a74:	e58c3004 	str	r3, [ip, #4]
30006a78:	e589200c 	str	r2, [r9, #12]
30006a7c:	e5892008 	str	r2, [r9, #8]
30006a80:	e7820000 	str	r0, [r2, r0]
30006a84:	e9820202 	stmib	r2, {r1, r9}
30006a88:	e582900c 	str	r9, [r2, #12]
30006a8c:	ea000007 	b	30006ab0 <malloc+0x1b4>
30006a90:	e3500000 	cmp	r0, #0	; 0x0
30006a94:	e589900c 	str	r9, [r9, #12]
30006a98:	e5899008 	str	r9, [r9, #8]
30006a9c:	ba000005 	blt	30006ab8 <malloc+0x1bc>
30006aa0:	e08c2004 	add	r2, ip, r4
30006aa4:	e5923004 	ldr	r3, [r2, #4]
30006aa8:	e3833001 	orr	r3, r3, #1	; 0x1
30006aac:	e5823004 	str	r3, [r2, #4]
30006ab0:	e28c5008 	add	r5, ip, #8	; 0x8
30006ab4:	ea000109 	b	30006ee0 <malloc+0x5e4>
30006ab8:	e3540c02 	cmp	r4, #512	; 0x200
30006abc:	2a00000c 	bcs	30006af4 <malloc+0x1f8>
30006ac0:	e5953004 	ldr	r3, [r5, #4]
30006ac4:	e1a011a4 	lsr	r1, r4, #3
30006ac8:	e1a00141 	asr	r0, r1, #2
30006acc:	e3a02001 	mov	r2, #1	; 0x1
30006ad0:	e1833012 	orr	r3, r3, r2, lsl r0
30006ad4:	e5853004 	str	r3, [r5, #4]
30006ad8:	e0851181 	add	r1, r5, r1, lsl #3
30006adc:	e5913008 	ldr	r3, [r1, #8]
30006ae0:	e58c100c 	str	r1, [ip, #12]
30006ae4:	e58c3008 	str	r3, [ip, #8]
30006ae8:	e583c00c 	str	ip, [r3, #12]
30006aec:	e581c008 	str	ip, [r1, #8]
30006af0:	ea00002c 	b	30006ba8 <malloc+0x2ac>
30006af4:	e1a014a4 	lsr	r1, r4, #9
30006af8:	e3510004 	cmp	r1, #4	; 0x4
30006afc:	91a03324 	lsrls	r3, r4, #6
30006b00:	92831038 	addls	r1, r3, #56	; 0x38
30006b04:	9a00000f 	bls	30006b48 <malloc+0x24c>
30006b08:	e3510014 	cmp	r1, #20	; 0x14
30006b0c:	9281105b 	addls	r1, r1, #91	; 0x5b
30006b10:	9a00000c 	bls	30006b48 <malloc+0x24c>
30006b14:	e3510054 	cmp	r1, #84	; 0x54
30006b18:	91a03624 	lsrls	r3, r4, #12
30006b1c:	9283106e 	addls	r1, r3, #110	; 0x6e
30006b20:	9a000008 	bls	30006b48 <malloc+0x24c>
30006b24:	e3510f55 	cmp	r1, #340	; 0x154
30006b28:	91a037a4 	lsrls	r3, r4, #15
30006b2c:	92831077 	addls	r1, r3, #119	; 0x77
30006b30:	9a000004 	bls	30006b48 <malloc+0x24c>
30006b34:	e59f33b0 	ldr	r3, [pc, #944]	; 30006eec <malloc+0x5f0>
30006b38:	e1510003 	cmp	r1, r3
30006b3c:	91a03924 	lsrls	r3, r4, #18
30006b40:	83a0107e 	movhi	r1, #126	; 0x7e
30006b44:	9283107c 	addls	r1, r3, #124	; 0x7c
30006b48:	e59f5398 	ldr	r5, [pc, #920]	; 30006ee8 <malloc+0x5ec>
30006b4c:	e0852181 	add	r2, r5, r1, lsl #3
30006b50:	e5920008 	ldr	r0, [r2, #8]
30006b54:	e1500002 	cmp	r0, r2
30006b58:	1a000009 	bne	30006b84 <malloc+0x288>
30006b5c:	e5953004 	ldr	r3, [r5, #4]
30006b60:	e1a01141 	asr	r1, r1, #2
30006b64:	e3a02001 	mov	r2, #1	; 0x1
30006b68:	e1833112 	orr	r3, r3, r2, lsl r1
30006b6c:	e5853004 	str	r3, [r5, #4]
30006b70:	e1a03000 	mov	r3, r0
30006b74:	ea000007 	b	30006b98 <malloc+0x29c>
30006b78:	e5900008 	ldr	r0, [r0, #8]
30006b7c:	e1500002 	cmp	r0, r2
30006b80:	0a000003 	beq	30006b94 <malloc+0x298>
30006b84:	e5903004 	ldr	r3, [r0, #4]
30006b88:	e3c33003 	bic	r3, r3, #3	; 0x3
30006b8c:	e1540003 	cmp	r4, r3
30006b90:	3afffff8 	bcc	30006b78 <malloc+0x27c>
30006b94:	e590300c 	ldr	r3, [r0, #12]
30006b98:	e58c300c 	str	r3, [ip, #12]
30006b9c:	e58c0008 	str	r0, [ip, #8]
30006ba0:	e580c00c 	str	ip, [r0, #12]
30006ba4:	e583c008 	str	ip, [r3, #8]
30006ba8:	e1a03147 	asr	r3, r7, #2
30006bac:	e3a02001 	mov	r2, #1	; 0x1
30006bb0:	e1a00312 	lsl	r0, r2, r3
30006bb4:	e59f332c 	ldr	r3, [pc, #812]	; 30006ee8 <malloc+0x5ec>
30006bb8:	e5932004 	ldr	r2, [r3, #4]
30006bbc:	e1500002 	cmp	r0, r2
30006bc0:	8a00004f 	bhi	30006d04 <malloc+0x408>
30006bc4:	e1100002 	tst	r0, r2
30006bc8:	03c73003 	biceq	r3, r7, #3	; 0x3
30006bcc:	02837004 	addeq	r7, r3, #4	; 0x4
30006bd0:	0a000001 	beq	30006bdc <malloc+0x2e0>
30006bd4:	ea000003 	b	30006be8 <malloc+0x2ec>
30006bd8:	e2877004 	add	r7, r7, #4	; 0x4
30006bdc:	e1a00080 	lsl	r0, r0, #1
30006be0:	e1100002 	tst	r0, r2
30006be4:	0afffffb 	beq	30006bd8 <malloc+0x2dc>
30006be8:	e59f32f8 	ldr	r3, [pc, #760]	; 30006ee8 <malloc+0x5ec>
30006bec:	e0831187 	add	r1, r3, r7, lsl #3
30006bf0:	e1a05007 	mov	r5, r7
30006bf4:	e1a02001 	mov	r2, r1
30006bf8:	e592400c 	ldr	r4, [r2, #12]
30006bfc:	ea000020 	b	30006c84 <malloc+0x388>
30006c00:	e5943004 	ldr	r3, [r4, #4]
30006c04:	e3c33003 	bic	r3, r3, #3	; 0x3
30006c08:	e06a6003 	rsb	r6, sl, r3
30006c0c:	e356000f 	cmp	r6, #15	; 0xf
30006c10:	da00000e 	ble	30006c50 <malloc+0x354>
30006c14:	e1a05004 	mov	r5, r4
30006c18:	e594c00c 	ldr	ip, [r4, #12]
30006c1c:	e5b50008 	ldr	r0, [r5, #8]!
30006c20:	e084300a 	add	r3, r4, sl
30006c24:	e38a1001 	orr	r1, sl, #1	; 0x1
30006c28:	e3862001 	orr	r2, r6, #1	; 0x1
30006c2c:	e58c0008 	str	r0, [ip, #8]
30006c30:	e580c00c 	str	ip, [r0, #12]
30006c34:	e5841004 	str	r1, [r4, #4]
30006c38:	e5893008 	str	r3, [r9, #8]
30006c3c:	e589300c 	str	r3, [r9, #12]
30006c40:	e7836006 	str	r6, [r3, r6]
30006c44:	e9830204 	stmib	r3, {r2, r9}
30006c48:	e583900c 	str	r9, [r3, #12]
30006c4c:	ea0000a3 	b	30006ee0 <malloc+0x5e4>
30006c50:	e3560000 	cmp	r6, #0	; 0x0
30006c54:	e594c00c 	ldr	ip, [r4, #12]
30006c58:	ba000008 	blt	30006c80 <malloc+0x384>
30006c5c:	e0843003 	add	r3, r4, r3
30006c60:	e5932004 	ldr	r2, [r3, #4]
30006c64:	e1a05004 	mov	r5, r4
30006c68:	e5b51008 	ldr	r1, [r5, #8]!
30006c6c:	e3822001 	orr	r2, r2, #1	; 0x1
30006c70:	e5832004 	str	r2, [r3, #4]
30006c74:	e58c1008 	str	r1, [ip, #8]
30006c78:	e581c00c 	str	ip, [r1, #12]
30006c7c:	ea000097 	b	30006ee0 <malloc+0x5e4>
30006c80:	e1a0400c 	mov	r4, ip
30006c84:	e1540002 	cmp	r4, r2
30006c88:	1affffdc 	bne	30006c00 <malloc+0x304>
30006c8c:	e2855001 	add	r5, r5, #1	; 0x1
30006c90:	e3150003 	tst	r5, #3	; 0x3
30006c94:	12822008 	addne	r2, r2, #8	; 0x8
30006c98:	1affffd6 	bne	30006bf8 <malloc+0x2fc>
30006c9c:	e1a03007 	mov	r3, r7
30006ca0:	e3130003 	tst	r3, #3	; 0x3
30006ca4:	e1a02001 	mov	r2, r1
30006ca8:	e2433001 	sub	r3, r3, #1	; 0x1
30006cac:	059f2234 	ldreq	r2, [pc, #564]	; 30006ee8 <malloc+0x5ec>
30006cb0:	05923004 	ldreq	r3, [r2, #4]
30006cb4:	01c33000 	biceq	r3, r3, r0
30006cb8:	05823004 	streq	r3, [r2, #4]
30006cbc:	0a000002 	beq	30006ccc <malloc+0x3d0>
30006cc0:	e4121008 	ldr	r1, [r2], #-8
30006cc4:	e1510002 	cmp	r1, r2
30006cc8:	0afffff4 	beq	30006ca0 <malloc+0x3a4>
30006ccc:	e59f3214 	ldr	r3, [pc, #532]	; 30006ee8 <malloc+0x5ec>
30006cd0:	e5933004 	ldr	r3, [r3, #4]
30006cd4:	e1a00080 	lsl	r0, r0, #1
30006cd8:	e1500003 	cmp	r0, r3
30006cdc:	8a000008 	bhi	30006d04 <malloc+0x408>
30006ce0:	e3500000 	cmp	r0, #0	; 0x0
30006ce4:	0a000006 	beq	30006d04 <malloc+0x408>
30006ce8:	e1a07005 	mov	r7, r5
30006cec:	ea000001 	b	30006cf8 <malloc+0x3fc>
30006cf0:	e2877004 	add	r7, r7, #4	; 0x4
30006cf4:	e1a00080 	lsl	r0, r0, #1
30006cf8:	e1100003 	tst	r0, r3
30006cfc:	1affffb9 	bne	30006be8 <malloc+0x2ec>
30006d00:	eafffffa 	b	30006cf0 <malloc+0x3f4>
30006d04:	e59f21dc 	ldr	r2, [pc, #476]	; 30006ee8 <malloc+0x5ec>
30006d08:	e5926008 	ldr	r6, [r2, #8]
30006d0c:	e5963004 	ldr	r3, [r6, #4]
30006d10:	e3c37003 	bic	r7, r3, #3	; 0x3
30006d14:	e06a0007 	rsb	r0, sl, r7
30006d18:	e350000f 	cmp	r0, #15	; 0xf
30006d1c:	ca000064 	bgt	30006eb4 <malloc+0x5b8>
30006d20:	e59f31c8 	ldr	r3, [pc, #456]	; 30006ef0 <malloc+0x5f4>
30006d24:	e5933034 	ldr	r3, [r3, #52]
30006d28:	e5929408 	ldr	r9, [r2, #1032]
30006d2c:	e2833010 	add	r3, r3, #16	; 0x10
30006d30:	e3790001 	cmn	r9, #1	; 0x1
30006d34:	e083500a 	add	r5, r3, sl
30006d38:	12853eff 	addne	r3, r5, #4080	; 0xff0
30006d3c:	1283300f 	addne	r3, r3, #15	; 0xf
30006d40:	13c35eff 	bicne	r5, r3, #4080	; 0xff0
30006d44:	13c5500f 	bicne	r5, r5, #15	; 0xf
30006d48:	e1a00005 	mov	r0, r5
30006d4c:	ebfffe1a 	bl	300065bc <sbrk>
30006d50:	e3700001 	cmn	r0, #1	; 0x1
30006d54:	e1a04000 	mov	r4, r0
30006d58:	0a00004e 	beq	30006e98 <malloc+0x59c>
30006d5c:	e0862007 	add	r2, r6, r7
30006d60:	e1500002 	cmp	r0, r2
30006d64:	2a000002 	bcs	30006d74 <malloc+0x478>
30006d68:	e59f3178 	ldr	r3, [pc, #376]	; 30006ee8 <malloc+0x5ec>
30006d6c:	e1560003 	cmp	r6, r3
30006d70:	1a000048 	bne	30006e98 <malloc+0x59c>
30006d74:	e59f1174 	ldr	r1, [pc, #372]	; 30006ef0 <malloc+0x5f4>
30006d78:	e591300c 	ldr	r3, [r1, #12]
30006d7c:	e1540002 	cmp	r4, r2
30006d80:	e0853003 	add	r3, r5, r3
30006d84:	e581300c 	str	r3, [r1, #12]
30006d88:	1a000005 	bne	30006da4 <malloc+0x4a8>
30006d8c:	e59f2154 	ldr	r2, [pc, #340]	; 30006ee8 <malloc+0x5ec>
30006d90:	e0853007 	add	r3, r5, r7
30006d94:	e5922008 	ldr	r2, [r2, #8]
30006d98:	e3833001 	orr	r3, r3, #1	; 0x1
30006d9c:	e5823004 	str	r3, [r2, #4]
30006da0:	ea000033 	b	30006e74 <malloc+0x578>
30006da4:	e3790001 	cmn	r9, #1	; 0x1
30006da8:	10843003 	addne	r3, r4, r3
30006dac:	059f3134 	ldreq	r3, [pc, #308]	; 30006ee8 <malloc+0x5ec>
30006db0:	10623003 	rsbne	r3, r2, r3
30006db4:	05834408 	streq	r4, [r3, #1032]
30006db8:	1581300c 	strne	r3, [r1, #12]
30006dbc:	e2143007 	ands	r3, r4, #7	; 0x7
30006dc0:	12630008 	rsbne	r0, r3, #8	; 0x8
30006dc4:	01a00003 	moveq	r0, r3
30006dc8:	e2853eff 	add	r3, r5, #4080	; 0xff0
30006dcc:	10844000 	addne	r4, r4, r0
30006dd0:	e283300f 	add	r3, r3, #15	; 0xf
30006dd4:	e0843003 	add	r3, r4, r3
30006dd8:	e3c33eff 	bic	r3, r3, #4080	; 0xff0
30006ddc:	e0842005 	add	r2, r4, r5
30006de0:	e3c3300f 	bic	r3, r3, #15	; 0xf
30006de4:	e0623003 	rsb	r3, r2, r3
30006de8:	e0835000 	add	r5, r3, r0
30006dec:	e1a00005 	mov	r0, r5
30006df0:	ebfffdf1 	bl	300065bc <sbrk>
30006df4:	e3700001 	cmn	r0, #1	; 0x1
30006df8:	e1a03000 	mov	r3, r0
30006dfc:	0a000025 	beq	30006e98 <malloc+0x59c>
30006e00:	e59f00e8 	ldr	r0, [pc, #232]	; 30006ef0 <malloc+0x5f4>
30006e04:	e59f10dc 	ldr	r1, [pc, #220]	; 30006ee8 <malloc+0x5ec>
30006e08:	e590200c 	ldr	r2, [r0, #12]
30006e0c:	e0643003 	rsb	r3, r4, r3
30006e10:	e0853003 	add	r3, r5, r3
30006e14:	e0852002 	add	r2, r5, r2
30006e18:	e3833001 	orr	r3, r3, #1	; 0x1
30006e1c:	e1560001 	cmp	r6, r1
30006e20:	e580200c 	str	r2, [r0, #12]
30006e24:	e5814008 	str	r4, [r1, #8]
30006e28:	e5843004 	str	r3, [r4, #4]
30006e2c:	0a000010 	beq	30006e74 <malloc+0x578>
30006e30:	e357000f 	cmp	r7, #15	; 0xf
30006e34:	93a03001 	movls	r3, #1	; 0x1
30006e38:	95843004 	strls	r3, [r4, #4]
30006e3c:	9a000015 	bls	30006e98 <malloc+0x59c>
30006e40:	e5963004 	ldr	r3, [r6, #4]
30006e44:	e247200c 	sub	r2, r7, #12	; 0xc
30006e48:	e3c22007 	bic	r2, r2, #7	; 0x7
30006e4c:	e2033001 	and	r3, r3, #1	; 0x1
30006e50:	e1823003 	orr	r3, r2, r3
30006e54:	e3a01005 	mov	r1, #5	; 0x5
30006e58:	e352000f 	cmp	r2, #15	; 0xf
30006e5c:	e0862002 	add	r2, r6, r2
30006e60:	e5863004 	str	r3, [r6, #4]
30006e64:	e5821008 	str	r1, [r2, #8]
30006e68:	e5821004 	str	r1, [r2, #4]
30006e6c:	82860008 	addhi	r0, r6, #8	; 0x8
30006e70:	8bfffe11 	blhi	300066bc <free>
30006e74:	e59f1074 	ldr	r1, [pc, #116]	; 30006ef0 <malloc+0x5f4>
30006e78:	e591200c 	ldr	r2, [r1, #12]
30006e7c:	e5913038 	ldr	r3, [r1, #56]
30006e80:	e1520003 	cmp	r2, r3
30006e84:	85812038 	strhi	r2, [r1, #56]
30006e88:	e59f1060 	ldr	r1, [pc, #96]	; 30006ef0 <malloc+0x5f4>
30006e8c:	e591303c 	ldr	r3, [r1, #60]
30006e90:	e1520003 	cmp	r2, r3
30006e94:	8581203c 	strhi	r2, [r1, #60]
30006e98:	e59f3048 	ldr	r3, [pc, #72]	; 30006ee8 <malloc+0x5ec>
30006e9c:	e5933008 	ldr	r3, [r3, #8]
30006ea0:	e5933004 	ldr	r3, [r3, #4]
30006ea4:	e3c33003 	bic	r3, r3, #3	; 0x3
30006ea8:	e06a0003 	rsb	r0, sl, r3
30006eac:	e350000f 	cmp	r0, #15	; 0xf
30006eb0:	da000009 	ble	30006edc <malloc+0x5e0>
30006eb4:	e59fc02c 	ldr	ip, [pc, #44]	; 30006ee8 <malloc+0x5ec>
30006eb8:	e59c2008 	ldr	r2, [ip, #8]
30006ebc:	e3800001 	orr	r0, r0, #1	; 0x1
30006ec0:	e082100a 	add	r1, r2, sl
30006ec4:	e38a3001 	orr	r3, sl, #1	; 0x1
30006ec8:	e5823004 	str	r3, [r2, #4]
30006ecc:	e58c1008 	str	r1, [ip, #8]
30006ed0:	e5810004 	str	r0, [r1, #4]
30006ed4:	e2825008 	add	r5, r2, #8	; 0x8
30006ed8:	ea000000 	b	30006ee0 <malloc+0x5e4>
30006edc:	e3a05000 	mov	r5, #0	; 0x0
30006ee0:	e1a00005 	mov	r0, r5
30006ee4:	e8bd87f0 	pop	{r4, r5, r6, r7, r8, r9, sl, pc}
30006ee8:	3001b40c 	.word	0x3001b40c
30006eec:	00000554 	.word	0x00000554
30006ef0:	3001c42c 	.word	0x3001c42c

30006ef4 <memalign>:
30006ef4:	e3510000 	cmp	r1, #0	; 0x0
30006ef8:	e92d44f0 	push	{r4, r5, r6, r7, sl, lr}
30006efc:	e1a05000 	mov	r5, r0
30006f00:	ba00003d 	blt	30006ffc <memalign+0x108>
30006f04:	e3500008 	cmp	r0, #8	; 0x8
30006f08:	8a000002 	bhi	30006f18 <memalign+0x24>
30006f0c:	e1a00001 	mov	r0, r1
30006f10:	e8bd44f0 	pop	{r4, r5, r6, r7, sl, lr}
30006f14:	eafffe78 	b	300068fc <malloc>
30006f18:	e281000b 	add	r0, r1, #11	; 0xb
30006f1c:	e355000f 	cmp	r5, #15	; 0xf
30006f20:	93a05010 	movls	r5, #16	; 0x10
30006f24:	e3500016 	cmp	r0, #22	; 0x16
30006f28:	c3c0a007 	bicgt	sl, r0, #7	; 0x7
30006f2c:	d3a0a010 	movle	sl, #16	; 0x10
30006f30:	e2850010 	add	r0, r5, #16	; 0x10
30006f34:	e080000a 	add	r0, r0, sl
30006f38:	ebfffe6f 	bl	300068fc <malloc>
30006f3c:	e2507000 	subs	r7, r0, #0	; 0x0
30006f40:	0a00002d 	beq	30006ffc <memalign+0x108>
30006f44:	e1a01005 	mov	r1, r5
30006f48:	eb003b5c 	bl	30015cc0 <__aeabi_uidivmod>
30006f4c:	e3510000 	cmp	r1, #0	; 0x0
30006f50:	e2476008 	sub	r6, r7, #8	; 0x8
30006f54:	0a000018 	beq	30006fbc <memalign+0xc8>
30006f58:	e2453001 	sub	r3, r5, #1	; 0x1
30006f5c:	e2652000 	rsb	r2, r5, #0	; 0x0
30006f60:	e0873003 	add	r3, r7, r3
30006f64:	e0033002 	and	r3, r3, r2
30006f68:	e2434008 	sub	r4, r3, #8	; 0x8
30006f6c:	e0663004 	rsb	r3, r6, r4
30006f70:	e5172004 	ldr	r2, [r7, #-4]
30006f74:	e353000f 	cmp	r3, #15	; 0xf
30006f78:	90844005 	addls	r4, r4, r5
30006f7c:	e0661004 	rsb	r1, r6, r4
30006f80:	e3c22003 	bic	r2, r2, #3	; 0x3
30006f84:	e0612002 	rsb	r2, r1, r2
30006f88:	e3823001 	orr	r3, r2, #1	; 0x1
30006f8c:	e5843004 	str	r3, [r4, #4]
30006f90:	e0842002 	add	r2, r4, r2
30006f94:	e5923004 	ldr	r3, [r2, #4]
30006f98:	e3833001 	orr	r3, r3, #1	; 0x1
30006f9c:	e5823004 	str	r3, [r2, #4]
30006fa0:	e5173004 	ldr	r3, [r7, #-4]
30006fa4:	e2033001 	and	r3, r3, #1	; 0x1
30006fa8:	e1811003 	orr	r1, r1, r3
30006fac:	e2860008 	add	r0, r6, #8	; 0x8
30006fb0:	e5071004 	str	r1, [r7, #-4]
30006fb4:	ebfffdc0 	bl	300066bc <free>
30006fb8:	e1a06004 	mov	r6, r4
30006fbc:	e5963004 	ldr	r3, [r6, #4]
30006fc0:	e3c33003 	bic	r3, r3, #3	; 0x3
30006fc4:	e06a3003 	rsb	r3, sl, r3
30006fc8:	e353000f 	cmp	r3, #15	; 0xf
30006fcc:	da000008 	ble	30006ff4 <memalign+0x100>
30006fd0:	e3833001 	orr	r3, r3, #1	; 0x1
30006fd4:	e086000a 	add	r0, r6, sl
30006fd8:	e5803004 	str	r3, [r0, #4]
30006fdc:	e5963004 	ldr	r3, [r6, #4]
30006fe0:	e2033001 	and	r3, r3, #1	; 0x1
30006fe4:	e18a3003 	orr	r3, sl, r3
30006fe8:	e5863004 	str	r3, [r6, #4]
30006fec:	e2800008 	add	r0, r0, #8	; 0x8
30006ff0:	ebfffdb1 	bl	300066bc <free>
30006ff4:	e2860008 	add	r0, r6, #8	; 0x8
30006ff8:	e8bd84f0 	pop	{r4, r5, r6, r7, sl, pc}
30006ffc:	e3a00000 	mov	r0, #0	; 0x0
30007000:	e8bd84f0 	pop	{r4, r5, r6, r7, sl, pc}

30007004 <pvalloc>:
30007004:	e2801eff 	add	r1, r0, #4080	; 0xff0
30007008:	e281100f 	add	r1, r1, #15	; 0xf
3000700c:	e3c11eff 	bic	r1, r1, #4080	; 0xff0
30007010:	e3c1100f 	bic	r1, r1, #15	; 0xf
30007014:	e3a00a01 	mov	r0, #4096	; 0x1000
30007018:	eaffffb5 	b	30006ef4 <memalign>

3000701c <valloc>:
3000701c:	e1a01000 	mov	r1, r0
30007020:	e3a00a01 	mov	r0, #4096	; 0x1000
30007024:	eaffffb2 	b	30006ef4 <memalign>

30007028 <malloc_usable_size>:
30007028:	e3500000 	cmp	r0, #0	; 0x0
3000702c:	0a00000c 	beq	30007064 <malloc_usable_size+0x3c>
30007030:	e5102004 	ldr	r2, [r0, #-4]
30007034:	e3120002 	tst	r2, #2	; 0x2
30007038:	13c23003 	bicne	r3, r2, #3	; 0x3
3000703c:	e2400008 	sub	r0, r0, #8	; 0x8
30007040:	12430008 	subne	r0, r3, #8	; 0x8
30007044:	11a0f00e 	movne	pc, lr
30007048:	e3c23001 	bic	r3, r2, #1	; 0x1
3000704c:	e0803003 	add	r3, r0, r3
30007050:	e5933004 	ldr	r3, [r3, #4]
30007054:	e3130001 	tst	r3, #1	; 0x1
30007058:	13c23003 	bicne	r3, r2, #3	; 0x3
3000705c:	12430004 	subne	r0, r3, #4	; 0x4
30007060:	11a0f00e 	movne	pc, lr
30007064:	e3a00000 	mov	r0, #0	; 0x0
30007068:	e1a0f00e 	mov	pc, lr

3000706c <mallopt>:
3000706c:	e2800004 	add	r0, r0, #4	; 0x4
30007070:	e3500003 	cmp	r0, #3	; 0x3
30007074:	979ff100 	ldrls	pc, [pc, r0, lsl #2]
30007078:	ea000012 	b	300070c8 <mallopt+0x5c>
3000707c:	300070b0 	.word	0x300070b0
30007080:	300070a4 	.word	0x300070a4
30007084:	30007098 	.word	0x30007098
30007088:	3000708c 	.word	0x3000708c
3000708c:	e59f303c 	ldr	r3, [pc, #60]	; 300070d0 <mallopt+0x64>
30007090:	e583140c 	str	r1, [r3, #1036]
30007094:	ea000009 	b	300070c0 <mallopt+0x54>
30007098:	e59f3034 	ldr	r3, [pc, #52]	; 300070d4 <mallopt+0x68>
3000709c:	e5831034 	str	r1, [r3, #52]
300070a0:	ea000006 	b	300070c0 <mallopt+0x54>
300070a4:	e59f3024 	ldr	r3, [pc, #36]	; 300070d0 <mallopt+0x64>
300070a8:	e5831410 	str	r1, [r3, #1040]
300070ac:	ea000003 	b	300070c0 <mallopt+0x54>
300070b0:	e3510000 	cmp	r1, #0	; 0x0
300070b4:	1a000003 	bne	300070c8 <mallopt+0x5c>
300070b8:	e59f3014 	ldr	r3, [pc, #20]	; 300070d4 <mallopt+0x68>
300070bc:	e5831040 	str	r1, [r3, #64]
300070c0:	e3a00001 	mov	r0, #1	; 0x1
300070c4:	e1a0f00e 	mov	pc, lr
300070c8:	e3a00000 	mov	r0, #0	; 0x0
300070cc:	e1a0f00e 	mov	pc, lr
300070d0:	3001b40c 	.word	0x3001b40c
300070d4:	3001c42c 	.word	0x3001c42c

300070d8 <calloc>:
300070d8:	e59f30d4 	ldr	r3, [pc, #212]	; 300071b4 <calloc+0xdc>
300070dc:	e92d41f0 	push	{r4, r5, r6, r7, r8, lr}
300070e0:	e1a04000 	mov	r4, r0
300070e4:	e5937008 	ldr	r7, [r3, #8]
300070e8:	e0000194 	mul	r0, r4, r1
300070ec:	e5976004 	ldr	r6, [r7, #4]
300070f0:	ebfffe01 	bl	300068fc <malloc>
300070f4:	e3540000 	cmp	r4, #0	; 0x0
300070f8:	e1a05000 	mov	r5, r0
300070fc:	b3a05000 	movlt	r5, #0	; 0x0
30007100:	ba000029 	blt	300071ac <calloc+0xd4>
30007104:	e3550000 	cmp	r5, #0	; 0x0
30007108:	0a000027 	beq	300071ac <calloc+0xd4>
3000710c:	e5153004 	ldr	r3, [r5, #-4]
30007110:	e3c61003 	bic	r1, r6, #3	; 0x3
30007114:	e3c33003 	bic	r3, r3, #3	; 0x3
30007118:	e2452008 	sub	r2, r5, #8	; 0x8
3000711c:	e1520007 	cmp	r2, r7
30007120:	13a02000 	movne	r2, #0	; 0x0
30007124:	03a02001 	moveq	r2, #1	; 0x1
30007128:	e1530001 	cmp	r3, r1
3000712c:	93a02000 	movls	r2, #0	; 0x0
30007130:	e3520000 	cmp	r2, #0	; 0x0
30007134:	11a03001 	movne	r3, r1
30007138:	e2432004 	sub	r2, r3, #4	; 0x4
3000713c:	e3520024 	cmp	r2, #36	; 0x24
30007140:	8a000017 	bhi	300071a4 <calloc+0xcc>
30007144:	e3520013 	cmp	r2, #19	; 0x13
30007148:	e1a01005 	mov	r1, r5
3000714c:	9a00000e 	bls	3000718c <calloc+0xb4>
30007150:	e3a0c000 	mov	ip, #0	; 0x0
30007154:	e1a00005 	mov	r0, r5
30007158:	e480c004 	str	ip, [r0], #4
3000715c:	e352001b 	cmp	r2, #27	; 0x1b
30007160:	e585c004 	str	ip, [r5, #4]
30007164:	e2801004 	add	r1, r0, #4	; 0x4
30007168:	9a000007 	bls	3000718c <calloc+0xb4>
3000716c:	e2813004 	add	r3, r1, #4	; 0x4
30007170:	e3520024 	cmp	r2, #36	; 0x24
30007174:	e580c004 	str	ip, [r0, #4]
30007178:	e581c004 	str	ip, [r1, #4]
3000717c:	e2831004 	add	r1, r3, #4	; 0x4
30007180:	0583c004 	streq	ip, [r3, #4]
30007184:	0581c004 	streq	ip, [r1, #4]
30007188:	02811008 	addeq	r1, r1, #8	; 0x8
3000718c:	e3a02000 	mov	r2, #0	; 0x0
30007190:	e1a03001 	mov	r3, r1
30007194:	e4832004 	str	r2, [r3], #4
30007198:	e5812004 	str	r2, [r1, #4]
3000719c:	e5832004 	str	r2, [r3, #4]
300071a0:	ea000001 	b	300071ac <calloc+0xd4>
300071a4:	e3a01000 	mov	r1, #0	; 0x0
300071a8:	eb00192e 	bl	3000d668 <memset>
300071ac:	e1a00005 	mov	r0, r5
300071b0:	e8bd81f0 	pop	{r4, r5, r6, r7, r8, pc}
300071b4:	3001b40c 	.word	0x3001b40c

300071b8 <mem_malloc_init>:
300071b8:	e92d4010 	push	{r4, lr}
300071bc:	e59fc01c 	ldr	ip, [pc, #28]	; 300071e0 <mem_malloc_init+0x28>
300071c0:	e0813000 	add	r3, r1, r0
300071c4:	e1a02001 	mov	r2, r1
300071c8:	e1a04000 	mov	r4, r0
300071cc:	e3a01000 	mov	r1, #0	; 0x0
300071d0:	e58c0000 	str	r0, [ip]
300071d4:	e98c0009 	stmib	ip, {r0, r3}
300071d8:	e8bd4010 	pop	{r4, lr}
300071dc:	ea001921 	b	3000d668 <memset>
300071e0:	3001c42c 	.word	0x3001c42c

300071e4 <realloc>:
300071e4:	e3510000 	cmp	r1, #0	; 0x0
300071e8:	e92d4ef0 	push	{r4, r5, r6, r7, r9, sl, fp, lr}
300071ec:	e1a05000 	mov	r5, r0
300071f0:	b3a06000 	movlt	r6, #0	; 0x0
300071f4:	ba000113 	blt	30007648 <realloc+0x464>
300071f8:	e3500000 	cmp	r0, #0	; 0x0
300071fc:	1a000002 	bne	3000720c <realloc+0x28>
30007200:	e1a00001 	mov	r0, r1
30007204:	e8bd4ef0 	pop	{r4, r5, r6, r7, r9, sl, fp, lr}
30007208:	eafffdbb 	b	300068fc <malloc>
3000720c:	e5104004 	ldr	r4, [r0, #-4]
30007210:	e281300b 	add	r3, r1, #11	; 0xb
30007214:	e3530016 	cmp	r3, #22	; 0x16
30007218:	e3c47003 	bic	r7, r4, #3	; 0x3
3000721c:	d3a09010 	movle	r9, #16	; 0x10
30007220:	c3c39007 	bicgt	r9, r3, #7	; 0x7
30007224:	e1570009 	cmp	r7, r9
30007228:	e240a008 	sub	sl, r0, #8	; 0x8
3000722c:	a1a0400a 	movge	r4, sl
30007230:	a1a0b007 	movge	fp, r7
30007234:	aa0000ea 	bge	300075e4 <realloc+0x400>
30007238:	e59f3410 	ldr	r3, [pc, #1040]	; 30007650 <realloc+0x46c>
3000723c:	e5936008 	ldr	r6, [r3, #8]
30007240:	e08a0007 	add	r0, sl, r7
30007244:	e1500006 	cmp	r0, r6
30007248:	0a000007 	beq	3000726c <realloc+0x88>
3000724c:	e5903004 	ldr	r3, [r0, #4]
30007250:	e3c33001 	bic	r3, r3, #1	; 0x1
30007254:	e0803003 	add	r3, r0, r3
30007258:	e5933004 	ldr	r3, [r3, #4]
3000725c:	e3130001 	tst	r3, #1	; 0x1
30007260:	13a00000 	movne	r0, #0	; 0x0
30007264:	11a0c000 	movne	ip, r0
30007268:	1a00001a 	bne	300072d8 <realloc+0xf4>
3000726c:	e5903004 	ldr	r3, [r0, #4]
30007270:	e1500006 	cmp	r0, r6
30007274:	e3c3c003 	bic	ip, r3, #3	; 0x3
30007278:	e08c2007 	add	r2, ip, r7
3000727c:	1a00000e 	bne	300072bc <realloc+0xd8>
30007280:	e2893010 	add	r3, r9, #16	; 0x10
30007284:	e1520003 	cmp	r2, r3
30007288:	ba000012 	blt	300072d8 <realloc+0xf4>
3000728c:	e0693002 	rsb	r3, r9, r2
30007290:	e3833001 	orr	r3, r3, #1	; 0x1
30007294:	e08a2009 	add	r2, sl, r9
30007298:	e5823004 	str	r3, [r2, #4]
3000729c:	e5153004 	ldr	r3, [r5, #-4]
300072a0:	e2033001 	and	r3, r3, #1	; 0x1
300072a4:	e1893003 	orr	r3, r9, r3
300072a8:	e5053004 	str	r3, [r5, #-4]
300072ac:	e59f339c 	ldr	r3, [pc, #924]	; 30007650 <realloc+0x46c>
300072b0:	e28a6008 	add	r6, sl, #8	; 0x8
300072b4:	e5832008 	str	r2, [r3, #8]
300072b8:	ea0000e2 	b	30007648 <realloc+0x464>
300072bc:	e1520009 	cmp	r2, r9
300072c0:	e1a0b002 	mov	fp, r2
300072c4:	a2802008 	addge	r2, r0, #8	; 0x8
300072c8:	a892000c 	ldmge	r2, {r2, r3}
300072cc:	a5832008 	strge	r2, [r3, #8]
300072d0:	a582300c 	strge	r3, [r2, #12]
300072d4:	aa000091 	bge	30007520 <realloc+0x33c>
300072d8:	e3140001 	tst	r4, #1	; 0x1
300072dc:	1a000082 	bne	300074ec <realloc+0x308>
300072e0:	e5153008 	ldr	r3, [r5, #-8]
300072e4:	e063400a 	rsb	r4, r3, sl
300072e8:	e5943004 	ldr	r3, [r4, #4]
300072ec:	e3500000 	cmp	r0, #0	; 0x0
300072f0:	e3c32003 	bic	r2, r3, #3	; 0x3
300072f4:	0a000049 	beq	30007420 <realloc+0x23c>
300072f8:	e1500006 	cmp	r0, r6
300072fc:	e0823007 	add	r3, r2, r7
30007300:	1a00003f 	bne	30007404 <realloc+0x220>
30007304:	e083b00c 	add	fp, r3, ip
30007308:	e2893010 	add	r3, r9, #16	; 0x10
3000730c:	e15b0003 	cmp	fp, r3
30007310:	ba000042 	blt	30007420 <realloc+0x23c>
30007314:	e1a06004 	mov	r6, r4
30007318:	e594200c 	ldr	r2, [r4, #12]
3000731c:	e5b63008 	ldr	r3, [r6, #8]!
30007320:	e2477004 	sub	r7, r7, #4	; 0x4
30007324:	e3570024 	cmp	r7, #36	; 0x24
30007328:	e5823008 	str	r3, [r2, #8]
3000732c:	e583200c 	str	r2, [r3, #12]
30007330:	8a000024 	bhi	300073c8 <realloc+0x1e4>
30007334:	e3570013 	cmp	r7, #19	; 0x13
30007338:	e1a0c005 	mov	ip, r5
3000733c:	e1a00006 	mov	r0, r6
30007340:	9a000017 	bls	300073a4 <realloc+0x1c0>
30007344:	e5953000 	ldr	r3, [r5]
30007348:	e5843008 	str	r3, [r4, #8]
3000734c:	e5953004 	ldr	r3, [r5, #4]
30007350:	e2852004 	add	r2, r5, #4	; 0x4
30007354:	e357001b 	cmp	r7, #27	; 0x1b
30007358:	e584300c 	str	r3, [r4, #12]
3000735c:	e2840010 	add	r0, r4, #16	; 0x10
30007360:	e282c004 	add	ip, r2, #4	; 0x4
30007364:	9a00000e 	bls	300073a4 <realloc+0x1c0>
30007368:	e5923004 	ldr	r3, [r2, #4]
3000736c:	e5843010 	str	r3, [r4, #16]
30007370:	e59c3004 	ldr	r3, [ip, #4]
30007374:	e28c2004 	add	r2, ip, #4	; 0x4
30007378:	e3570024 	cmp	r7, #36	; 0x24
3000737c:	e5843014 	str	r3, [r4, #20]
30007380:	e2840018 	add	r0, r4, #24	; 0x18
30007384:	e282c004 	add	ip, r2, #4	; 0x4
30007388:	1a000005 	bne	300073a4 <realloc+0x1c0>
3000738c:	e5923004 	ldr	r3, [r2, #4]
30007390:	e5843018 	str	r3, [r4, #24]
30007394:	e59c3004 	ldr	r3, [ip, #4]
30007398:	e584301c 	str	r3, [r4, #28]
3000739c:	e28cc008 	add	ip, ip, #8	; 0x8
300073a0:	e2840020 	add	r0, r4, #32	; 0x20
300073a4:	e1a0100c 	mov	r1, ip
300073a8:	e4913004 	ldr	r3, [r1], #4
300073ac:	e1a02000 	mov	r2, r0
300073b0:	e4823004 	str	r3, [r2], #4
300073b4:	e59c3004 	ldr	r3, [ip, #4]
300073b8:	e5803004 	str	r3, [r0, #4]
300073bc:	e5913004 	ldr	r3, [r1, #4]
300073c0:	e5823004 	str	r3, [r2, #4]
300073c4:	ea000003 	b	300073d8 <realloc+0x1f4>
300073c8:	e1a01005 	mov	r1, r5
300073cc:	e1a02007 	mov	r2, r7
300073d0:	e1a00006 	mov	r0, r6
300073d4:	eb0018cd 	bl	3000d710 <memcpy>
300073d8:	e069300b 	rsb	r3, r9, fp
300073dc:	e3833001 	orr	r3, r3, #1	; 0x1
300073e0:	e0842009 	add	r2, r4, r9
300073e4:	e5823004 	str	r3, [r2, #4]
300073e8:	e5943004 	ldr	r3, [r4, #4]
300073ec:	e2033001 	and	r3, r3, #1	; 0x1
300073f0:	e1893003 	orr	r3, r9, r3
300073f4:	e5843004 	str	r3, [r4, #4]
300073f8:	e59f3250 	ldr	r3, [pc, #592]	; 30007650 <realloc+0x46c>
300073fc:	e5832008 	str	r2, [r3, #8]
30007400:	ea000090 	b	30007648 <realloc+0x464>
30007404:	e083b00c 	add	fp, r3, ip
30007408:	e15b0009 	cmp	fp, r9
3000740c:	a2802008 	addge	r2, r0, #8	; 0x8
30007410:	a892000c 	ldmge	r2, {r2, r3}
30007414:	a5832008 	strge	r2, [r3, #8]
30007418:	a582300c 	strge	r3, [r2, #12]
3000741c:	aa000002 	bge	3000742c <realloc+0x248>
30007420:	e082b007 	add	fp, r2, r7
30007424:	e15b0009 	cmp	fp, r9
30007428:	ba00002f 	blt	300074ec <realloc+0x308>
3000742c:	e1a00004 	mov	r0, r4
30007430:	e594200c 	ldr	r2, [r4, #12]
30007434:	e5b03008 	ldr	r3, [r0, #8]!
30007438:	e2476004 	sub	r6, r7, #4	; 0x4
3000743c:	e3560024 	cmp	r6, #36	; 0x24
30007440:	e5823008 	str	r3, [r2, #8]
30007444:	e583200c 	str	r2, [r3, #12]
30007448:	8a000023 	bhi	300074dc <realloc+0x2f8>
3000744c:	e3560013 	cmp	r6, #19	; 0x13
30007450:	e1a0c005 	mov	ip, r5
30007454:	9a000017 	bls	300074b8 <realloc+0x2d4>
30007458:	e5953000 	ldr	r3, [r5]
3000745c:	e5843008 	str	r3, [r4, #8]
30007460:	e5953004 	ldr	r3, [r5, #4]
30007464:	e2852004 	add	r2, r5, #4	; 0x4
30007468:	e356001b 	cmp	r6, #27	; 0x1b
3000746c:	e584300c 	str	r3, [r4, #12]
30007470:	e2840010 	add	r0, r4, #16	; 0x10
30007474:	e282c004 	add	ip, r2, #4	; 0x4
30007478:	9a00000e 	bls	300074b8 <realloc+0x2d4>
3000747c:	e5923004 	ldr	r3, [r2, #4]
30007480:	e5843010 	str	r3, [r4, #16]
30007484:	e59c3004 	ldr	r3, [ip, #4]
30007488:	e28c2004 	add	r2, ip, #4	; 0x4
3000748c:	e3560024 	cmp	r6, #36	; 0x24
30007490:	e5843014 	str	r3, [r4, #20]
30007494:	e2840018 	add	r0, r4, #24	; 0x18
30007498:	e282c004 	add	ip, r2, #4	; 0x4
3000749c:	1a000005 	bne	300074b8 <realloc+0x2d4>
300074a0:	e5923004 	ldr	r3, [r2, #4]
300074a4:	e5843018 	str	r3, [r4, #24]
300074a8:	e59c3004 	ldr	r3, [ip, #4]
300074ac:	e584301c 	str	r3, [r4, #28]
300074b0:	e28cc008 	add	ip, ip, #8	; 0x8
300074b4:	e2840020 	add	r0, r4, #32	; 0x20
300074b8:	e1a0100c 	mov	r1, ip
300074bc:	e4913004 	ldr	r3, [r1], #4
300074c0:	e1a02000 	mov	r2, r0
300074c4:	e4823004 	str	r3, [r2], #4
300074c8:	e59c3004 	ldr	r3, [ip, #4]
300074cc:	e5803004 	str	r3, [r0, #4]
300074d0:	e5913004 	ldr	r3, [r1, #4]
300074d4:	e5823004 	str	r3, [r2, #4]
300074d8:	ea000041 	b	300075e4 <realloc+0x400>
300074dc:	e1a01005 	mov	r1, r5
300074e0:	e1a02006 	mov	r2, r6
300074e4:	eb001889 	bl	3000d710 <memcpy>
300074e8:	ea00003d 	b	300075e4 <realloc+0x400>
300074ec:	e1a00001 	mov	r0, r1
300074f0:	ebfffd01 	bl	300068fc <malloc>
300074f4:	e2506000 	subs	r6, r0, #0	; 0x0
300074f8:	0a000052 	beq	30007648 <realloc+0x464>
300074fc:	e5153004 	ldr	r3, [r5, #-4]
30007500:	e3c33001 	bic	r3, r3, #1	; 0x1
30007504:	e08a3003 	add	r3, sl, r3
30007508:	e2462008 	sub	r2, r6, #8	; 0x8
3000750c:	e1520003 	cmp	r2, r3
30007510:	1a000004 	bne	30007528 <realloc+0x344>
30007514:	e5163004 	ldr	r3, [r6, #-4]
30007518:	e3c33003 	bic	r3, r3, #3	; 0x3
3000751c:	e083b007 	add	fp, r3, r7
30007520:	e1a0400a 	mov	r4, sl
30007524:	ea00002e 	b	300075e4 <realloc+0x400>
30007528:	e2472004 	sub	r2, r7, #4	; 0x4
3000752c:	e3520024 	cmp	r2, #36	; 0x24
30007530:	8a000026 	bhi	300075d0 <realloc+0x3ec>
30007534:	e3520013 	cmp	r2, #19	; 0x13
30007538:	e1a00005 	mov	r0, r5
3000753c:	e1a0c006 	mov	ip, r6
30007540:	9a000019 	bls	300075ac <realloc+0x3c8>
30007544:	e1a0e005 	mov	lr, r5
30007548:	e49e3004 	ldr	r3, [lr], #4
3000754c:	e1a01006 	mov	r1, r6
30007550:	e4813004 	str	r3, [r1], #4
30007554:	e5953004 	ldr	r3, [r5, #4]
30007558:	e352001b 	cmp	r2, #27	; 0x1b
3000755c:	e5863004 	str	r3, [r6, #4]
30007560:	e281c004 	add	ip, r1, #4	; 0x4
30007564:	e28e0004 	add	r0, lr, #4	; 0x4
30007568:	9a00000f 	bls	300075ac <realloc+0x3c8>
3000756c:	e59e3004 	ldr	r3, [lr, #4]
30007570:	e5813004 	str	r3, [r1, #4]
30007574:	e5903004 	ldr	r3, [r0, #4]
30007578:	e3520024 	cmp	r2, #36	; 0x24
3000757c:	e28c1004 	add	r1, ip, #4	; 0x4
30007580:	e2802004 	add	r2, r0, #4	; 0x4
30007584:	e58c3004 	str	r3, [ip, #4]
30007588:	e2820004 	add	r0, r2, #4	; 0x4
3000758c:	e281c004 	add	ip, r1, #4	; 0x4
30007590:	1a000005 	bne	300075ac <realloc+0x3c8>
30007594:	e5923004 	ldr	r3, [r2, #4]
30007598:	e5813004 	str	r3, [r1, #4]
3000759c:	e5903004 	ldr	r3, [r0, #4]
300075a0:	e2800008 	add	r0, r0, #8	; 0x8
300075a4:	e58c3004 	str	r3, [ip, #4]
300075a8:	e28cc008 	add	ip, ip, #8	; 0x8
300075ac:	e1a01000 	mov	r1, r0
300075b0:	e4913004 	ldr	r3, [r1], #4
300075b4:	e1a0200c 	mov	r2, ip
300075b8:	e4823004 	str	r3, [r2], #4
300075bc:	e5903004 	ldr	r3, [r0, #4]
300075c0:	e58c3004 	str	r3, [ip, #4]
300075c4:	e5913004 	ldr	r3, [r1, #4]
300075c8:	e5823004 	str	r3, [r2, #4]
300075cc:	ea000001 	b	300075d8 <realloc+0x3f4>
300075d0:	e1a01005 	mov	r1, r5
300075d4:	eb00184d 	bl	3000d710 <memcpy>
300075d8:	e1a00005 	mov	r0, r5
300075dc:	ebfffc36 	bl	300066bc <free>
300075e0:	ea000018 	b	30007648 <realloc+0x464>
300075e4:	e069100b 	rsb	r1, r9, fp
300075e8:	e351000f 	cmp	r1, #15	; 0xf
300075ec:	e5943004 	ldr	r3, [r4, #4]
300075f0:	9a00000c 	bls	30007628 <realloc+0x444>
300075f4:	e2033001 	and	r3, r3, #1	; 0x1
300075f8:	e0840009 	add	r0, r4, r9
300075fc:	e1893003 	orr	r3, r9, r3
30007600:	e3812001 	orr	r2, r1, #1	; 0x1
30007604:	e5843004 	str	r3, [r4, #4]
30007608:	e5802004 	str	r2, [r0, #4]
3000760c:	e0802001 	add	r2, r0, r1
30007610:	e5923004 	ldr	r3, [r2, #4]
30007614:	e3833001 	orr	r3, r3, #1	; 0x1
30007618:	e5823004 	str	r3, [r2, #4]
3000761c:	e2800008 	add	r0, r0, #8	; 0x8
30007620:	ebfffc25 	bl	300066bc <free>
30007624:	ea000006 	b	30007644 <realloc+0x460>
30007628:	e2033001 	and	r3, r3, #1	; 0x1
3000762c:	e18b3003 	orr	r3, fp, r3
30007630:	e5843004 	str	r3, [r4, #4]
30007634:	e084200b 	add	r2, r4, fp
30007638:	e5923004 	ldr	r3, [r2, #4]
3000763c:	e3833001 	orr	r3, r3, #1	; 0x1
30007640:	e5823004 	str	r3, [r2, #4]
30007644:	e2846008 	add	r6, r4, #8	; 0x8
30007648:	e1a00006 	mov	r0, r6
3000764c:	e8bd8ef0 	pop	{r4, r5, r6, r7, r9, sl, fp, pc}
30007650:	3001b40c 	.word	0x3001b40c

30007654 <env_get_char_memory>:
30007654:	e5983014 	ldr	r3, [r8, #20]
30007658:	e3530000 	cmp	r3, #0	; 0x0
3000765c:	15983010 	ldrne	r3, [r8, #16]
30007660:	059f3008 	ldreq	r3, [pc, #8]	; 30007670 <env_get_char_memory+0x1c>
30007664:	17d00003 	ldrbne	r0, [r0, r3]
30007668:	07d30000 	ldrbeq	r0, [r3, r0]
3000766c:	e1a0f00e 	mov	pc, lr
30007670:	3001b820 	.word	0x3001b820

30007674 <env_get_addr>:
30007674:	e5983014 	ldr	r3, [r8, #20]
30007678:	e3530000 	cmp	r3, #0	; 0x0
3000767c:	15983010 	ldrne	r3, [r8, #16]
30007680:	059f3008 	ldreq	r3, [pc, #8]	; 30007690 <env_get_addr+0x1c>
30007684:	10800003 	addne	r0, r0, r3
30007688:	00830000 	addeq	r0, r3, r0
3000768c:	e1a0f00e 	mov	pc, lr
30007690:	3001b820 	.word	0x3001b820

30007694 <env_get_char>:
30007694:	e5983004 	ldr	r3, [r8, #4]
30007698:	e3130001 	tst	r3, #1	; 0x1
3000769c:	0a000000 	beq	300076a4 <env_get_char+0x10>
300076a0:	eaffffeb 	b	30007654 <env_get_char_memory>
300076a4:	e5983014 	ldr	r3, [r8, #20]
300076a8:	e3530000 	cmp	r3, #0	; 0x0
300076ac:	0a000000 	beq	300076b4 <env_get_char+0x20>
300076b0:	ea000036 	b	30007790 <env_get_char_spec>
300076b4:	e59f3004 	ldr	r3, [pc, #4]	; 300076c0 <env_get_char+0x2c>
300076b8:	e7d30000 	ldrb	r0, [r3, r0]
300076bc:	e1a0f00e 	mov	pc, lr
300076c0:	3001b820 	.word	0x3001b820

300076c4 <env_crc_update>:
300076c4:	e59f301c 	ldr	r3, [pc, #28]	; 300076e8 <env_crc_update+0x24>
300076c8:	e92d4010 	push	{r4, lr}
300076cc:	e5934000 	ldr	r4, [r3]
300076d0:	e3a00000 	mov	r0, #0	; 0x0
300076d4:	e2841004 	add	r1, r4, #4	; 0x4
300076d8:	e59f200c 	ldr	r2, [pc, #12]	; 300076ec <env_crc_update+0x28>
300076dc:	eb001453 	bl	3000c830 <crc32>
300076e0:	e5840000 	str	r0, [r4]
300076e4:	e8bd8010 	pop	{r4, pc}
300076e8:	3001b94c 	.word	0x3001b94c
300076ec:	0000fffc 	.word	0x0000fffc

300076f0 <set_default_env>:
300076f0:	e92d4010 	push	{r4, lr}
300076f4:	e59f4030 	ldr	r4, [pc, #48]	; 3000772c <set_default_env+0x3c>
300076f8:	e3a01000 	mov	r1, #0	; 0x0
300076fc:	e3a02801 	mov	r2, #65536	; 0x10000
30007700:	e5940000 	ldr	r0, [r4]
30007704:	eb0017d7 	bl	3000d668 <memset>
30007708:	e5940000 	ldr	r0, [r4]
3000770c:	e59f101c 	ldr	r1, [pc, #28]	; 30007730 <set_default_env+0x40>
30007710:	e59f201c 	ldr	r2, [pc, #28]	; 30007734 <set_default_env+0x44>
30007714:	e2800004 	add	r0, r0, #4	; 0x4
30007718:	eb0017fc 	bl	3000d710 <memcpy>
3000771c:	ebffffe8 	bl	300076c4 <env_crc_update>
30007720:	e3a03001 	mov	r3, #1	; 0x1
30007724:	e5883014 	str	r3, [r8, #20]
30007728:	e8bd8010 	pop	{r4, pc}
3000772c:	3001b94c 	.word	0x3001b94c
30007730:	3001b820 	.word	0x3001b820
30007734:	00000129 	.word	0x00000129

30007738 <env_relocate>:
30007738:	e92d4010 	push	{r4, lr}
3000773c:	e3a00801 	mov	r0, #65536	; 0x10000
30007740:	ebfffc6d 	bl	300068fc <malloc>
30007744:	e5983014 	ldr	r3, [r8, #20]
30007748:	e3530000 	cmp	r3, #0	; 0x0
3000774c:	e59f3034 	ldr	r3, [pc, #52]	; 30007788 <env_relocate+0x50>
30007750:	e5830000 	str	r0, [r3]
30007754:	1a000005 	bne	30007770 <env_relocate+0x38>
30007758:	e59f002c 	ldr	r0, [pc, #44]	; 3000778c <env_relocate+0x54>
3000775c:	ebfffad6 	bl	300062bc <puts>
30007760:	e3e0003b 	mvn	r0, #59	; 0x3b
30007764:	eb000a8e 	bl	3000a1a4 <__show_boot_progress>
30007768:	ebffffe0 	bl	300076f0 <set_default_env>
3000776c:	ea000000 	b	30007774 <env_relocate+0x3c>
30007770:	eb000009 	bl	3000779c <env_relocate_spec>
30007774:	e59f300c 	ldr	r3, [pc, #12]	; 30007788 <env_relocate+0x50>
30007778:	e5933000 	ldr	r3, [r3]
3000777c:	e2833004 	add	r3, r3, #4	; 0x4
30007780:	e5883010 	str	r3, [r8, #16]
30007784:	e8bd8010 	pop	{r4, pc}
30007788:	3001b94c 	.word	0x3001b94c
3000778c:	30019e60 	.word	0x30019e60

30007790 <env_get_char_spec>:
30007790:	e5983010 	ldr	r3, [r8, #16]
30007794:	e7d00003 	ldrb	r0, [r0, r3]
30007798:	e1a0f00e 	mov	pc, lr

3000779c <env_relocate_spec>:
3000779c:	e59f300c 	ldr	r3, [pc, #12]	; 300077b0 <env_relocate_spec+0x14>
300077a0:	e5930000 	ldr	r0, [r3]
300077a4:	e3a0180f 	mov	r1, #983040	; 0xf0000
300077a8:	e3a02801 	mov	r2, #65536	; 0x10000
300077ac:	ea0017d7 	b	3000d710 <memcpy>
300077b0:	3001b94c 	.word	0x3001b94c

300077b4 <saveenv>:
300077b4:	e59f308c 	ldr	r3, [pc, #140]	; 30007848 <saveenv+0x94>
300077b8:	e92d4010 	push	{r4, lr}
300077bc:	e3a00000 	mov	r0, #0	; 0x0
300077c0:	e3a0180f 	mov	r1, #983040	; 0xf0000
300077c4:	e59f2080 	ldr	r2, [pc, #128]	; 3000784c <saveenv+0x98>
300077c8:	e5934000 	ldr	r4, [r3]
300077cc:	ebffeb12 	bl	3000241c <flash_sect_protect>
300077d0:	e3500000 	cmp	r0, #0	; 0x0
300077d4:	1a000018 	bne	3000783c <saveenv+0x88>
300077d8:	e59f0070 	ldr	r0, [pc, #112]	; 30007850 <saveenv+0x9c>
300077dc:	ebfffab6 	bl	300062bc <puts>
300077e0:	e3a0080f 	mov	r0, #983040	; 0xf0000
300077e4:	e59f1060 	ldr	r1, [pc, #96]	; 3000784c <saveenv+0x98>
300077e8:	ebffec78 	bl	300029d0 <flash_sect_erase>
300077ec:	e3500000 	cmp	r0, #0	; 0x0
300077f0:	1a000011 	bne	3000783c <saveenv+0x88>
300077f4:	e59f0058 	ldr	r0, [pc, #88]	; 30007854 <saveenv+0xa0>
300077f8:	ebfffaaf 	bl	300062bc <puts>
300077fc:	e1a00004 	mov	r0, r4
30007800:	e3a0180f 	mov	r1, #983040	; 0xf0000
30007804:	e3a02801 	mov	r2, #65536	; 0x10000
30007808:	eb0000b4 	bl	30007ae0 <flash_write>
3000780c:	e2504000 	subs	r4, r0, #0	; 0x0
30007810:	0a000002 	beq	30007820 <saveenv+0x6c>
30007814:	eb000079 	bl	30007a00 <flash_perror>
30007818:	e3a04001 	mov	r4, #1	; 0x1
3000781c:	ea000001 	b	30007828 <saveenv+0x74>
30007820:	e59f0030 	ldr	r0, [pc, #48]	; 30007858 <saveenv+0xa4>
30007824:	ebfffaa4 	bl	300062bc <puts>
30007828:	e3a0180f 	mov	r1, #983040	; 0xf0000
3000782c:	e59f2018 	ldr	r2, [pc, #24]	; 3000784c <saveenv+0x98>
30007830:	e3a00001 	mov	r0, #1	; 0x1
30007834:	ebffeaf8 	bl	3000241c <flash_sect_protect>
30007838:	ea000000 	b	30007840 <saveenv+0x8c>
3000783c:	e3a04001 	mov	r4, #1	; 0x1
30007840:	e1a00004 	mov	r0, r4
30007844:	e8bd8010 	pop	{r4, pc}
30007848:	3001b94c 	.word	0x3001b94c
3000784c:	000fffff 	.word	0x000fffff
30007850:	30019e93 	.word	0x30019e93
30007854:	30019ea4 	.word	0x30019ea4
30007858:	3001af1a 	.word	0x3001af1a

3000785c <env_init>:
3000785c:	e92d4010 	push	{r4, lr}
30007860:	e59f404c 	ldr	r4, [pc, #76]	; 300078b4 <env_init+0x58>
30007864:	e5941000 	ldr	r1, [r4]
30007868:	e59f2048 	ldr	r2, [pc, #72]	; 300078b8 <env_init+0x5c>
3000786c:	e2811004 	add	r1, r1, #4	; 0x4
30007870:	e3a00000 	mov	r0, #0	; 0x0
30007874:	eb0013ed 	bl	3000c830 <crc32>
30007878:	e5944000 	ldr	r4, [r4]
3000787c:	e5943000 	ldr	r3, [r4]
30007880:	e1500003 	cmp	r0, r3
30007884:	159f2030 	ldrne	r2, [pc, #48]	; 300078bc <env_init+0x60>
30007888:	02843004 	addeq	r3, r4, #4	; 0x4
3000788c:	01a02008 	moveq	r2, r8
30007890:	11a03008 	movne	r3, r8
30007894:	05823010 	streq	r3, [r2, #16]
30007898:	15832010 	strne	r2, [r3, #16]
3000789c:	03a03001 	moveq	r3, #1	; 0x1
300078a0:	13a02000 	movne	r2, #0	; 0x0
300078a4:	05823014 	streq	r3, [r2, #20]
300078a8:	15832014 	strne	r2, [r3, #20]
300078ac:	e3a00000 	mov	r0, #0	; 0x0
300078b0:	e8bd8010 	pop	{r4, pc}
300078b4:	3001b94c 	.word	0x3001b94c
300078b8:	0000fffc 	.word	0x0000fffc
300078bc:	3001b820 	.word	0x3001b820

300078c0 <flash_protect>:
300078c0:	e92d44f0 	push	{r4, r5, r6, r7, sl, lr}
300078c4:	e1a04003 	mov	r4, r3
300078c8:	e1d330b4 	ldrh	r3, [r3, #4]
300078cc:	e243c001 	sub	ip, r3, #1	; 0x1
300078d0:	e1a0c80c 	lsl	ip, ip, #16
300078d4:	e3530000 	cmp	r3, #0	; 0x0
300078d8:	e1a07000 	mov	r7, r0
300078dc:	e1a06001 	mov	r6, r1
300078e0:	e1a05002 	mov	r5, r2
300078e4:	e1a0a82c 	lsr	sl, ip, #16
300078e8:	e594000c 	ldr	r0, [r4, #12]
300078ec:	e5941000 	ldr	r1, [r4]
300078f0:	08bd84f0 	popeq	{r4, r5, r6, r7, sl, pc}
300078f4:	e1520006 	cmp	r2, r6
300078f8:	23a03000 	movcs	r3, #0	; 0x0
300078fc:	33a03001 	movcc	r3, #1	; 0x1
30007900:	e3510000 	cmp	r1, #0	; 0x0
30007904:	03833001 	orreq	r3, r3, #1	; 0x1
30007908:	e3530000 	cmp	r3, #0	; 0x0
3000790c:	18bd84f0 	popne	{r4, r5, r6, r7, sl, pc}
30007910:	e5942008 	ldr	r2, [r4, #8]
30007914:	e59f3098 	ldr	r3, [pc, #152]	; 300079b4 <flash_protect+0xf4>
30007918:	e1520003 	cmp	r2, r3
3000791c:	08bd84f0 	popeq	{r4, r5, r6, r7, sl, pc}
30007920:	e0803001 	add	r3, r0, r1
30007924:	e243c001 	sub	ip, r3, #1	; 0x1
30007928:	e156000c 	cmp	r6, ip
3000792c:	93a03000 	movls	r3, #0	; 0x0
30007930:	83a03001 	movhi	r3, #1	; 0x1
30007934:	e1550000 	cmp	r5, r0
30007938:	33833001 	orrcc	r3, r3, #1	; 0x1
3000793c:	e3530000 	cmp	r3, #0	; 0x0
30007940:	01a00003 	moveq	r0, r3
30007944:	01a01004 	moveq	r1, r4
30007948:	01a02004 	moveq	r2, r4
3000794c:	0a000014 	beq	300079a4 <flash_protect+0xe4>
30007950:	e8bd84f0 	pop	{r4, r5, r6, r7, sl, pc}
30007954:	e1a0380a 	lsl	r3, sl, #16
30007958:	e1500843 	cmp	r0, r3, asr #16
3000795c:	15923010 	ldrne	r3, [r2, #16]
30007960:	01a0300c 	moveq	r3, ip
30007964:	12433001 	subne	r3, r3, #1	; 0x1
30007968:	e1560003 	cmp	r6, r3
3000796c:	8a000009 	bhi	30007998 <flash_protect+0xd8>
30007970:	e592300c 	ldr	r3, [r2, #12]
30007974:	e1550003 	cmp	r5, r3
30007978:	3a000006 	bcc	30007998 <flash_protect+0xd8>
3000797c:	e3170002 	tst	r7, #2	; 0x2
30007980:	13a03000 	movne	r3, #0	; 0x0
30007984:	1a000002 	bne	30007994 <flash_protect+0xd4>
30007988:	e3170001 	tst	r7, #1	; 0x1
3000798c:	0a000001 	beq	30007998 <flash_protect+0xd8>
30007990:	e3a03001 	mov	r3, #1	; 0x1
30007994:	e5c13058 	strb	r3, [r1, #88]
30007998:	e2800001 	add	r0, r0, #1	; 0x1
3000799c:	e2822004 	add	r2, r2, #4	; 0x4
300079a0:	e2811001 	add	r1, r1, #1	; 0x1
300079a4:	e1d430b4 	ldrh	r3, [r4, #4]
300079a8:	e1500003 	cmp	r0, r3
300079ac:	baffffe8 	blt	30007954 <flash_protect+0x94>
300079b0:	e8bd84f0 	pop	{r4, r5, r6, r7, sl, pc}
300079b4:	0000ffff 	.word	0x0000ffff

300079b8 <addr2info>:
300079b8:	e59f1038 	ldr	r1, [pc, #56]	; 300079f8 <addr2info+0x40>
300079bc:	e59f3038 	ldr	r3, [pc, #56]	; 300079fc <addr2info+0x44>
300079c0:	e5912008 	ldr	r2, [r1, #8]
300079c4:	e1520003 	cmp	r2, r3
300079c8:	0a000008 	beq	300079f0 <addr2info+0x38>
300079cc:	e591200c 	ldr	r2, [r1, #12]
300079d0:	e1500002 	cmp	r0, r2
300079d4:	3a000005 	bcc	300079f0 <addr2info+0x38>
300079d8:	e5913000 	ldr	r3, [r1]
300079dc:	e0823003 	add	r3, r2, r3
300079e0:	e2433001 	sub	r3, r3, #1	; 0x1
300079e4:	e1500003 	cmp	r0, r3
300079e8:	91a00001 	movls	r0, r1
300079ec:	91a0f00e 	movls	pc, lr
300079f0:	e3a00000 	mov	r0, #0	; 0x0
300079f4:	e1a0f00e 	mov	pc, lr
300079f8:	3001e0ac 	.word	0x3001e0ac
300079fc:	0000ffff 	.word	0x0000ffff

30007a00 <flash_perror>:
30007a00:	e3500008 	cmp	r0, #8	; 0x8
30007a04:	0a00001c 	beq	30007a7c <flash_perror+0x7c>
30007a08:	ca00000a 	bgt	30007a38 <flash_perror+0x38>
30007a0c:	e3500001 	cmp	r0, #1	; 0x1
30007a10:	0a000013 	beq	30007a64 <flash_perror+0x64>
30007a14:	ca000002 	bgt	30007a24 <flash_perror+0x24>
30007a18:	e3500000 	cmp	r0, #0	; 0x0
30007a1c:	01a0f00e 	moveq	pc, lr
30007a20:	ea00001f 	b	30007aa4 <flash_perror+0xa4>
30007a24:	e3500002 	cmp	r0, #2	; 0x2
30007a28:	0a00000f 	beq	30007a6c <flash_perror+0x6c>
30007a2c:	e3500004 	cmp	r0, #4	; 0x4
30007a30:	1a00001b 	bne	30007aa4 <flash_perror+0xa4>
30007a34:	ea00000e 	b	30007a74 <flash_perror+0x74>
30007a38:	e3500020 	cmp	r0, #32	; 0x20
30007a3c:	0a000012 	beq	30007a8c <flash_perror+0x8c>
30007a40:	ca000002 	bgt	30007a50 <flash_perror+0x50>
30007a44:	e3500010 	cmp	r0, #16	; 0x10
30007a48:	1a000015 	bne	30007aa4 <flash_perror+0xa4>
30007a4c:	ea00000c 	b	30007a84 <flash_perror+0x84>
30007a50:	e3500040 	cmp	r0, #64	; 0x40
30007a54:	0a00000e 	beq	30007a94 <flash_perror+0x94>
30007a58:	e3500080 	cmp	r0, #128	; 0x80
30007a5c:	1a000010 	bne	30007aa4 <flash_perror+0xa4>
30007a60:	ea00000d 	b	30007a9c <flash_perror+0x9c>
30007a64:	e59f004c 	ldr	r0, [pc, #76]	; 30007ab8 <flash_perror+0xb8>
30007a68:	ea000000 	b	30007a70 <flash_perror+0x70>
30007a6c:	e59f0048 	ldr	r0, [pc, #72]	; 30007abc <flash_perror+0xbc>
30007a70:	eafffa11 	b	300062bc <puts>
30007a74:	e59f0044 	ldr	r0, [pc, #68]	; 30007ac0 <flash_perror+0xc0>
30007a78:	eafffffc 	b	30007a70 <flash_perror+0x70>
30007a7c:	e59f0040 	ldr	r0, [pc, #64]	; 30007ac4 <flash_perror+0xc4>
30007a80:	eafffffa 	b	30007a70 <flash_perror+0x70>
30007a84:	e59f003c 	ldr	r0, [pc, #60]	; 30007ac8 <flash_perror+0xc8>
30007a88:	eafffff8 	b	30007a70 <flash_perror+0x70>
30007a8c:	e59f0038 	ldr	r0, [pc, #56]	; 30007acc <flash_perror+0xcc>
30007a90:	eafffff6 	b	30007a70 <flash_perror+0x70>
30007a94:	e59f0034 	ldr	r0, [pc, #52]	; 30007ad0 <flash_perror+0xd0>
30007a98:	eafffff4 	b	30007a70 <flash_perror+0x70>
30007a9c:	e59f0030 	ldr	r0, [pc, #48]	; 30007ad4 <flash_perror+0xd4>
30007aa0:	eafffff2 	b	30007a70 <flash_perror+0x70>
30007aa4:	e1a03000 	mov	r3, r0
30007aa8:	e59f1028 	ldr	r1, [pc, #40]	; 30007ad8 <flash_perror+0xd8>
30007aac:	e59f0028 	ldr	r0, [pc, #40]	; 30007adc <flash_perror+0xdc>
30007ab0:	e3a020dd 	mov	r2, #221	; 0xdd
30007ab4:	eafffa12 	b	30006304 <printf>
30007ab8:	30019ebf 	.word	0x30019ebf
30007abc:	30019ed9 	.word	0x30019ed9
30007ac0:	30019eeb 	.word	0x30019eeb
30007ac4:	30019f13 	.word	0x30019f13
30007ac8:	30019f2c 	.word	0x30019f2c
30007acc:	30019f5d 	.word	0x30019f5d
30007ad0:	30019f76 	.word	0x30019f76
30007ad4:	30019f8d 	.word	0x30019f8d
30007ad8:	30019fc3 	.word	0x30019fc3
30007adc:	30019fae 	.word	0x30019fae

30007ae0 <flash_write>:
30007ae0:	e92d4eff 	push	{r0, r1, r2, r3, r4, r5, r6, r7, r9, sl, fp, lr}
30007ae4:	e2413001 	sub	r3, r1, #1	; 0x1
30007ae8:	e0833002 	add	r3, r3, r2
30007aec:	e1a09000 	mov	r9, r0
30007af0:	e1a00001 	mov	r0, r1
30007af4:	e1a07002 	mov	r7, r2
30007af8:	e1a06001 	mov	r6, r1
30007afc:	e58d3008 	str	r3, [sp, #8]
30007b00:	ebffffac 	bl	300079b8 <addr2info>
30007b04:	e1a05000 	mov	r5, r0
30007b08:	e59d0008 	ldr	r0, [sp, #8]
30007b0c:	ebffffa9 	bl	300079b8 <addr2info>
30007b10:	e3570000 	cmp	r7, #0	; 0x0
30007b14:	e1a0a000 	mov	sl, r0
30007b18:	0a000046 	beq	30007c38 <flash_write+0x158>
30007b1c:	e3500000 	cmp	r0, #0	; 0x0
30007b20:	13550000 	cmpne	r5, #0	; 0x0
30007b24:	03a00008 	moveq	r0, #8	; 0x8
30007b28:	11a00005 	movne	r0, r5
30007b2c:	1a000025 	bne	30007bc8 <flash_write+0xe8>
30007b30:	ea000041 	b	30007c3c <flash_write+0x15c>
30007b34:	e1d0b0b4 	ldrh	fp, [r0, #4]
30007b38:	e5901000 	ldr	r1, [r0]
30007b3c:	e590200c 	ldr	r2, [r0, #12]
30007b40:	e24b3001 	sub	r3, fp, #1	; 0x1
30007b44:	e1a03803 	lsl	r3, r3, #16
30007b48:	e0812002 	add	r2, r1, r2
30007b4c:	e1a03823 	lsr	r3, r3, #16
30007b50:	e58d200c 	str	r2, [sp, #12]
30007b54:	e58d3004 	str	r3, [sp, #4]
30007b58:	e1a04000 	mov	r4, r0
30007b5c:	e1a0e000 	mov	lr, r0
30007b60:	e3a0c000 	mov	ip, #0	; 0x0
30007b64:	ea000012 	b	30007bb4 <flash_write+0xd4>
30007b68:	e15c0843 	cmp	ip, r3, asr #16
30007b6c:	159e2010 	ldrne	r2, [lr, #16]
30007b70:	059d200c 	ldreq	r2, [sp, #12]
30007b74:	e59e300c 	ldr	r3, [lr, #12]
30007b78:	e59d1008 	ldr	r1, [sp, #8]
30007b7c:	e1510003 	cmp	r1, r3
30007b80:	33a03000 	movcc	r3, #0	; 0x0
30007b84:	23a03001 	movcs	r3, #1	; 0x1
30007b88:	e1560002 	cmp	r6, r2
30007b8c:	23a03000 	movcs	r3, #0	; 0x0
30007b90:	e3530000 	cmp	r3, #0	; 0x0
30007b94:	e28cc001 	add	ip, ip, #1	; 0x1
30007b98:	e28ee004 	add	lr, lr, #4	; 0x4
30007b9c:	0a000003 	beq	30007bb0 <flash_write+0xd0>
30007ba0:	e5d43058 	ldrb	r3, [r4, #88]
30007ba4:	e3530000 	cmp	r3, #0	; 0x0
30007ba8:	13a00004 	movne	r0, #4	; 0x4
30007bac:	1a000022 	bne	30007c3c <flash_write+0x15c>
30007bb0:	e2844001 	add	r4, r4, #1	; 0x1
30007bb4:	e59d2004 	ldr	r2, [sp, #4]
30007bb8:	e15c000b 	cmp	ip, fp
30007bbc:	e1a03802 	lsl	r3, r2, #16
30007bc0:	baffffe8 	blt	30007b68 <flash_write+0x88>
30007bc4:	e280006c 	add	r0, r0, #108	; 0x6c
30007bc8:	e150000a 	cmp	r0, sl
30007bcc:	9affffd8 	bls	30007b34 <flash_write+0x54>
30007bd0:	ea00000e 	b	30007c10 <flash_write+0x130>
30007bd4:	e5953000 	ldr	r3, [r5]
30007bd8:	e595c00c 	ldr	ip, [r5, #12]
30007bdc:	e083300c 	add	r3, r3, ip
30007be0:	e0663003 	rsb	r3, r6, r3
30007be4:	e1530007 	cmp	r3, r7
30007be8:	31a04003 	movcc	r4, r3
30007bec:	21a04007 	movcs	r4, r7
30007bf0:	e1a03004 	mov	r3, r4
30007bf4:	eb0011a5 	bl	3000c290 <write_buff>
30007bf8:	e3500000 	cmp	r0, #0	; 0x0
30007bfc:	1a00000e 	bne	30007c3c <flash_write+0x15c>
30007c00:	e0899004 	add	r9, r9, r4
30007c04:	e0647007 	rsb	r7, r4, r7
30007c08:	e0866004 	add	r6, r6, r4
30007c0c:	e285506c 	add	r5, r5, #108	; 0x6c
30007c10:	e155000a 	cmp	r5, sl
30007c14:	83a03000 	movhi	r3, #0	; 0x0
30007c18:	93a03001 	movls	r3, #1	; 0x1
30007c1c:	e3570000 	cmp	r7, #0	; 0x0
30007c20:	03a03000 	moveq	r3, #0	; 0x0
30007c24:	e3530000 	cmp	r3, #0	; 0x0
30007c28:	e1a00005 	mov	r0, r5
30007c2c:	e1a01009 	mov	r1, r9
30007c30:	e1a02006 	mov	r2, r6
30007c34:	1affffe6 	bne	30007bd4 <flash_write+0xf4>
30007c38:	e3a00000 	mov	r0, #0	; 0x0
30007c3c:	e28dd010 	add	sp, sp, #16	; 0x10
30007c40:	e8bd8ef0 	pop	{r4, r5, r6, r7, r9, sl, fp, pc}

30007c44 <b_reset>:
30007c44:	e5902000 	ldr	r2, [r0]
30007c48:	e3a03000 	mov	r3, #0	; 0x0
30007c4c:	e3520000 	cmp	r2, #0	; 0x0
30007c50:	e5803004 	str	r3, [r0, #4]
30007c54:	e5803010 	str	r3, [r0, #16]
30007c58:	15c23000 	strbne	r3, [r2]
30007c5c:	e1a0f00e 	mov	pc, lr

30007c60 <simple_itoa>:
30007c60:	e59f2048 	ldr	r2, [pc, #72]	; 30007cb0 <simple_itoa+0x50>
30007c64:	e3a03000 	mov	r3, #0	; 0x0
30007c68:	e92d4070 	push	{r4, r5, r6, lr}
30007c6c:	e5c23015 	strb	r3, [r2, #21]
30007c70:	e1a05000 	mov	r5, r0
30007c74:	e2826014 	add	r6, r2, #20	; 0x14
30007c78:	e1a00005 	mov	r0, r5
30007c7c:	e3a0100a 	mov	r1, #10	; 0xa
30007c80:	eb00380e 	bl	30015cc0 <__aeabi_uidivmod>
30007c84:	e1a04006 	mov	r4, r6
30007c88:	e2811030 	add	r1, r1, #48	; 0x30
30007c8c:	e4441001 	strb	r1, [r4], #-1
30007c90:	e1a00005 	mov	r0, r5
30007c94:	e3a0100a 	mov	r1, #10	; 0xa
30007c98:	eb00378d 	bl	30015ad4 <__aeabi_uidiv>
30007c9c:	e2505000 	subs	r5, r0, #0	; 0x0
30007ca0:	e1a00006 	mov	r0, r6
30007ca4:	e1a06004 	mov	r6, r4
30007ca8:	1afffff2 	bne	30007c78 <simple_itoa+0x18>
30007cac:	e8bd8070 	pop	{r4, r5, r6, pc}
30007cb0:	3001c470 	.word	0x3001c470

30007cb4 <static_get>:
30007cb4:	e5903000 	ldr	r3, [r0]
30007cb8:	e4d32001 	ldrb	r2, [r3], #1
30007cbc:	e3520000 	cmp	r2, #0	; 0x0
30007cc0:	e5803000 	str	r3, [r0]
30007cc4:	11a00002 	movne	r0, r2
30007cc8:	03e00000 	mvneq	r0, #0	; 0x0
30007ccc:	e1a0f00e 	mov	pc, lr

30007cd0 <static_peek>:
30007cd0:	e5903000 	ldr	r3, [r0]
30007cd4:	e5d30000 	ldrb	r0, [r3]
30007cd8:	e1a0f00e 	mov	pc, lr

30007cdc <file_peek>:
30007cdc:	e5903000 	ldr	r3, [r0]
30007ce0:	e5d30000 	ldrb	r0, [r3]
30007ce4:	e1a0f00e 	mov	pc, lr

30007ce8 <setup_string_in_str>:
30007ce8:	e59f301c 	ldr	r3, [pc, #28]	; 30007d0c <setup_string_in_str+0x24>
30007cec:	e5803010 	str	r3, [r0, #16]
30007cf0:	e59f3018 	ldr	r3, [pc, #24]	; 30007d10 <setup_string_in_str+0x28>
30007cf4:	e3a02001 	mov	r2, #1	; 0x1
30007cf8:	e5801000 	str	r1, [r0]
30007cfc:	e580300c 	str	r3, [r0, #12]
30007d00:	e5802008 	str	r2, [r0, #8]
30007d04:	e5802004 	str	r2, [r0, #4]
30007d08:	e1a0f00e 	mov	pc, lr
30007d0c:	30007cd0 	.word	0x30007cd0
30007d10:	30007cb4 	.word	0x30007cb4

30007d14 <indenter>:
30007d14:	e59f3004 	ldr	r3, [pc, #4]	; 30007d20 <indenter+0xc>
30007d18:	e0600003 	rsb	r0, r0, r3
30007d1c:	e1a0f00e 	mov	pc, lr
30007d20:	3001b978 	.word	0x3001b978

30007d24 <is_assignment>:
30007d24:	e3500000 	cmp	r0, #0	; 0x0
30007d28:	0a000011 	beq	30007d74 <is_assignment+0x50>
30007d2c:	e5d03000 	ldrb	r3, [r0]
30007d30:	e59f2044 	ldr	r2, [pc, #68]	; 30007d7c <is_assignment+0x58>
30007d34:	e7d23003 	ldrb	r3, [r2, r3]
30007d38:	e3130003 	tst	r3, #3	; 0x3
30007d3c:	0a00000c 	beq	30007d74 <is_assignment+0x50>
30007d40:	e1a02000 	mov	r2, r0
30007d44:	e5d20001 	ldrb	r0, [r2, #1]
30007d48:	e59f302c 	ldr	r3, [pc, #44]	; 30007d7c <is_assignment+0x58>
30007d4c:	e7d33000 	ldrb	r3, [r3, r0]
30007d50:	e3130007 	tst	r3, #7	; 0x7
30007d54:	e2822001 	add	r2, r2, #1	; 0x1
30007d58:	1afffff9 	bne	30007d44 <is_assignment+0x20>
30007d5c:	e350005f 	cmp	r0, #95	; 0x5f
30007d60:	0afffff7 	beq	30007d44 <is_assignment+0x20>
30007d64:	e350003d 	cmp	r0, #61	; 0x3d
30007d68:	13a00000 	movne	r0, #0	; 0x0
30007d6c:	03a00001 	moveq	r0, #1	; 0x1
30007d70:	e1a0f00e 	mov	pc, lr
30007d74:	e3a00000 	mov	r0, #0	; 0x0
30007d78:	e1a0f00e 	mov	pc, lr
30007d7c:	3001bc30 	.word	0x3001bc30

30007d80 <mapset>:
30007d80:	e3a0c000 	mov	ip, #0	; 0x0
30007d84:	ea000000 	b	30007d8c <mapset+0xc>
30007d88:	e5c31016 	strb	r1, [r3, #22]
30007d8c:	e7d0200c 	ldrb	r2, [r0, ip]
30007d90:	e59f3010 	ldr	r3, [pc, #16]	; 30007da8 <mapset+0x28>
30007d94:	e3520000 	cmp	r2, #0	; 0x0
30007d98:	e0833002 	add	r3, r3, r2
30007d9c:	e28cc001 	add	ip, ip, #1	; 0x1
30007da0:	1afffff8 	bne	30007d88 <mapset+0x8>
30007da4:	e1a0f00e 	mov	pc, lr
30007da8:	3001c470 	.word	0x3001c470

30007dac <syntax_err>:
30007dac:	e59f0000 	ldr	r0, [pc, #0]	; 30007db4 <syntax_err+0x8>
30007db0:	eafff953 	b	30006304 <printf>
30007db4:	30019fcb 	.word	0x30019fcb

30007db8 <do_showvar>:
30007db8:	e3520001 	cmp	r2, #1	; 0x1
30007dbc:	e92d4ef0 	push	{r4, r5, r6, r7, r9, sl, fp, lr}
30007dc0:	e1a0b003 	mov	fp, r3
30007dc4:	059f30c4 	ldreq	r3, [pc, #196]	; 30007e90 <do_showvar+0xd8>
30007dc8:	e1a09002 	mov	r9, r2
30007dcc:	13a06001 	movne	r6, #1	; 0x1
30007dd0:	13a05000 	movne	r5, #0	; 0x0
30007dd4:	05934118 	ldreq	r4, [r3, #280]
30007dd8:	1a000028 	bne	30007e80 <do_showvar+0xc8>
30007ddc:	ea000005 	b	30007df8 <do_showvar+0x40>
30007de0:	e8940006 	ldm	r4, {r1, r2}
30007de4:	ebfff946 	bl	30006304 <printf>
30007de8:	ebfff9df 	bl	3000656c <ctrlc>
30007dec:	e3500000 	cmp	r0, #0	; 0x0
30007df0:	1a000014 	bne	30007e48 <do_showvar+0x90>
30007df4:	e5944010 	ldr	r4, [r4, #16]
30007df8:	e3540000 	cmp	r4, #0	; 0x0
30007dfc:	e59f0090 	ldr	r0, [pc, #144]	; 30007e94 <do_showvar+0xdc>
30007e00:	1afffff6 	bne	30007de0 <do_showvar+0x28>
30007e04:	e1a05004 	mov	r5, r4
30007e08:	ea00001e 	b	30007e88 <do_showvar+0xd0>
30007e0c:	e59f307c 	ldr	r3, [pc, #124]	; 30007e90 <do_showvar+0xd8>
30007e10:	e79ba106 	ldr	sl, [fp, r6, lsl #2]
30007e14:	e5934118 	ldr	r4, [r3, #280]
30007e18:	e3e07000 	mvn	r7, #0	; 0x0
30007e1c:	ea00000e 	b	30007e5c <do_showvar+0xa4>
30007e20:	e5940000 	ldr	r0, [r4]
30007e24:	eb001561 	bl	3000d3b0 <strcmp>
30007e28:	e3500000 	cmp	r0, #0	; 0x0
30007e2c:	01a07000 	moveq	r7, r0
30007e30:	08940006 	ldmeq	r4, {r1, r2}
30007e34:	059f0058 	ldreq	r0, [pc, #88]	; 30007e94 <do_showvar+0xdc>
30007e38:	0bfff931 	bleq	30006304 <printf>
30007e3c:	ebfff9ca 	bl	3000656c <ctrlc>
30007e40:	e3500000 	cmp	r0, #0	; 0x0
30007e44:	0a000003 	beq	30007e58 <do_showvar+0xa0>
30007e48:	e59f0048 	ldr	r0, [pc, #72]	; 30007e98 <do_showvar+0xe0>
30007e4c:	ebfff91a 	bl	300062bc <puts>
30007e50:	e3a05001 	mov	r5, #1	; 0x1
30007e54:	ea00000b 	b	30007e88 <do_showvar+0xd0>
30007e58:	e5944010 	ldr	r4, [r4, #16]
30007e5c:	e3540000 	cmp	r4, #0	; 0x0
30007e60:	e1a0100a 	mov	r1, sl
30007e64:	1affffed 	bne	30007e20 <do_showvar+0x68>
30007e68:	e3770001 	cmn	r7, #1	; 0x1
30007e6c:	1a000002 	bne	30007e7c <do_showvar+0xc4>
30007e70:	e59f0024 	ldr	r0, [pc, #36]	; 30007e9c <do_showvar+0xe4>
30007e74:	ebfff922 	bl	30006304 <printf>
30007e78:	e2855001 	add	r5, r5, #1	; 0x1
30007e7c:	e2866001 	add	r6, r6, #1	; 0x1
30007e80:	e1560009 	cmp	r6, r9
30007e84:	baffffe0 	blt	30007e0c <do_showvar+0x54>
30007e88:	e1a00005 	mov	r0, r5
30007e8c:	e8bd8ef0 	pop	{r4, r5, r6, r7, r9, sl, fp, pc}
30007e90:	3001c470 	.word	0x3001c470
30007e94:	30019fd9 	.word	0x30019fd9
30007e98:	30019fe0 	.word	0x30019fe0
30007e9c:	30019570 	.word	0x30019570

30007ea0 <u_boot_hush_start>:
30007ea0:	e92d4070 	push	{r4, r5, r6, lr}
30007ea4:	e59f5038 	ldr	r5, [pc, #56]	; 30007ee4 <u_boot_hush_start+0x44>
30007ea8:	e5954118 	ldr	r4, [r5, #280]
30007eac:	e3540000 	cmp	r4, #0	; 0x0
30007eb0:	1a000009 	bne	30007edc <u_boot_hush_start+0x3c>
30007eb4:	e3a00014 	mov	r0, #20	; 0x14
30007eb8:	ebfffa8f 	bl	300068fc <malloc>
30007ebc:	e3a03001 	mov	r3, #1	; 0x1
30007ec0:	e580300c 	str	r3, [r0, #12]
30007ec4:	e59f301c 	ldr	r3, [pc, #28]	; 30007ee8 <u_boot_hush_start+0x48>
30007ec8:	e5803000 	str	r3, [r0]
30007ecc:	e59f3018 	ldr	r3, [pc, #24]	; 30007eec <u_boot_hush_start+0x4c>
30007ed0:	e5850118 	str	r0, [r5, #280]
30007ed4:	e9800018 	stmib	r0, {r3, r4}
30007ed8:	e5804010 	str	r4, [r0, #16]
30007edc:	e3a00000 	mov	r0, #0	; 0x0
30007ee0:	e8bd8070 	pop	{r4, r5, r6, pc}
30007ee4:	3001c470 	.word	0x3001c470
30007ee8:	30019fec 	.word	0x30019fec
30007eec:	30019ff9 	.word	0x30019ff9

30007ef0 <xmalloc>:
30007ef0:	e92d4010 	push	{r4, lr}
30007ef4:	ebfffa80 	bl	300068fc <malloc>
30007ef8:	e3500000 	cmp	r0, #0	; 0x0
30007efc:	18bd8010 	popne	{r4, pc}
30007f00:	e59f0004 	ldr	r0, [pc, #4]	; 30007f0c <xmalloc+0x1c>
30007f04:	ebfff8fe 	bl	30006304 <printf>
30007f08:	eafffffe 	b	30007f08 <xmalloc+0x18>
30007f0c:	30019ffe 	.word	0x30019ffe

30007f10 <new_pipe>:
30007f10:	e92d4010 	push	{r4, lr}
30007f14:	e3a00014 	mov	r0, #20	; 0x14
30007f18:	ebfffff4 	bl	30007ef0 <xmalloc>
30007f1c:	e3a03000 	mov	r3, #0	; 0x0
30007f20:	e5803010 	str	r3, [r0, #16]
30007f24:	e5803000 	str	r3, [r0]
30007f28:	e5803004 	str	r3, [r0, #4]
30007f2c:	e5803008 	str	r3, [r0, #8]
30007f30:	e580300c 	str	r3, [r0, #12]
30007f34:	e8bd8010 	pop	{r4, pc}

30007f38 <file_get>:
30007f38:	e5903000 	ldr	r3, [r0]
30007f3c:	e3530000 	cmp	r3, #0	; 0x0
30007f40:	e92d47f0 	push	{r4, r5, r6, r7, r8, r9, sl, lr}
30007f44:	e1a06000 	mov	r6, r0
30007f48:	0a000056 	beq	300080a8 <file_get+0x170>
30007f4c:	e5d30000 	ldrb	r0, [r3]
30007f50:	e3500000 	cmp	r0, #0	; 0x0
30007f54:	12833001 	addne	r3, r3, #1	; 0x1
30007f58:	0a000052 	beq	300080a8 <file_get+0x170>
30007f5c:	ea000060 	b	300080e4 <file_get+0x1ac>
30007f60:	e5963008 	ldr	r3, [r6, #8]
30007f64:	e3530001 	cmp	r3, #1	; 0x1
30007f68:	e3a03001 	mov	r3, #1	; 0x1
30007f6c:	e5863004 	str	r3, [r6, #4]
30007f70:	059f017c 	ldreq	r0, [pc, #380]	; 300080f4 <file_get+0x1bc>
30007f74:	159f017c 	ldrne	r0, [pc, #380]	; 300080f8 <file_get+0x1c0>
30007f78:	eb000c68 	bl	3000b120 <readline>
30007f7c:	e3700001 	cmn	r0, #1	; 0x1
30007f80:	059f3174 	ldreq	r3, [pc, #372]	; 300080fc <file_get+0x1c4>
30007f84:	e59f4174 	ldr	r4, [pc, #372]	; 30008100 <file_get+0x1c8>
30007f88:	03a02000 	moveq	r2, #0	; 0x0
30007f8c:	0583211c 	streq	r2, [r3, #284]
30007f90:	e1a00004 	mov	r0, r4
30007f94:	05862004 	streq	r2, [r6, #4]
30007f98:	eb001531 	bl	3000d464 <strlen>
30007f9c:	e3a0300a 	mov	r3, #10	; 0xa
30007fa0:	e7e43000 	strb	r3, [r4, r0]!
30007fa4:	e3a05000 	mov	r5, #0	; 0x0
30007fa8:	e5c45001 	strb	r5, [r4, #1]
30007fac:	ebfff886 	bl	300061cc <had_ctrlc>
30007fb0:	e1500005 	cmp	r0, r5
30007fb4:	159f3140 	ldrne	r3, [pc, #320]	; 300080fc <file_get+0x1c4>
30007fb8:	1583511c 	strne	r5, [r3, #284]
30007fbc:	ebfff886 	bl	300061dc <clear_ctrlc>
30007fc0:	e5964008 	ldr	r4, [r6, #8]
30007fc4:	e59f5130 	ldr	r5, [pc, #304]	; 300080fc <file_get+0x1c4>
30007fc8:	e3a09000 	mov	r9, #0	; 0x0
30007fcc:	e3540001 	cmp	r4, #1	; 0x1
30007fd0:	e5859120 	str	r9, [r5, #288]
30007fd4:	e59fa124 	ldr	sl, [pc, #292]	; 30008100 <file_get+0x1c8>
30007fd8:	1a000010 	bne	30008020 <file_get+0xe8>
30007fdc:	e5da3000 	ldrb	r3, [sl]
30007fe0:	e353000a 	cmp	r3, #10	; 0xa
30007fe4:	1a000007 	bne	30008008 <file_get+0xd0>
30007fe8:	e595311c 	ldr	r3, [r5, #284]
30007fec:	e1530009 	cmp	r3, r9
30007ff0:	15854120 	strne	r4, [r5, #288]
30007ff4:	1a000007 	bne	30008018 <file_get+0xe0>
30007ff8:	e2850f49 	add	r0, r5, #292	; 0x124
30007ffc:	e1a0100a 	mov	r1, sl
30008000:	eb0014b3 	bl	3000d2d4 <strcpy>
30008004:	ea000003 	b	30008018 <file_get+0xe0>
30008008:	e1a0100a 	mov	r1, sl
3000800c:	e2850f49 	add	r0, r5, #292	; 0x124
30008010:	eb0014af 	bl	3000d2d4 <strcpy>
30008014:	e585411c 	str	r4, [r5, #284]
30008018:	e59f30e4 	ldr	r3, [pc, #228]	; 30008104 <file_get+0x1cc>
3000801c:	ea000020 	b	300080a4 <file_get+0x16c>
30008020:	e5da3000 	ldrb	r3, [sl]
30008024:	e353000a 	cmp	r3, #10	; 0xa
30008028:	0a000016 	beq	30008088 <file_get+0x150>
3000802c:	e2857f49 	add	r7, r5, #292	; 0x124
30008030:	e1a00007 	mov	r0, r7
30008034:	eb00150a 	bl	3000d464 <strlen>
30008038:	e1a04000 	mov	r4, r0
3000803c:	e1a0000a 	mov	r0, sl
30008040:	eb001507 	bl	3000d464 <strlen>
30008044:	e0800004 	add	r0, r0, r4
30008048:	e35000ff 	cmp	r0, #255	; 0xff
3000804c:	8a000009 	bhi	30008078 <file_get+0x140>
30008050:	e1a00007 	mov	r0, r7
30008054:	eb001502 	bl	3000d464 <strlen>
30008058:	e1a03000 	mov	r3, r0
3000805c:	e0853003 	add	r3, r5, r3
30008060:	e3a02020 	mov	r2, #32	; 0x20
30008064:	e0870000 	add	r0, r7, r0
30008068:	e1a0100a 	mov	r1, sl
3000806c:	e5c32123 	strb	r2, [r3, #291]
30008070:	eb001497 	bl	3000d2d4 <strcpy>
30008074:	ea000003 	b	30008088 <file_get+0x150>
30008078:	e3a0300a 	mov	r3, #10	; 0xa
3000807c:	e585911c 	str	r9, [r5, #284]
30008080:	e5c53124 	strb	r3, [r5, #292]
30008084:	e5c59125 	strb	r9, [r5, #293]
30008088:	e5963004 	ldr	r3, [r6, #4]
3000808c:	e3530000 	cmp	r3, #0	; 0x0
30008090:	059f2064 	ldreq	r2, [pc, #100]	; 300080fc <file_get+0x1c4>
30008094:	05c23125 	strbeq	r3, [r2, #293]
30008098:	0283300a 	addeq	r3, r3, #10	; 0xa
3000809c:	05c23124 	strbeq	r3, [r2, #292]
300080a0:	e59f3058 	ldr	r3, [pc, #88]	; 30008100 <file_get+0x1c8>
300080a4:	e5863000 	str	r3, [r6]
300080a8:	e5960000 	ldr	r0, [r6]
300080ac:	e3500000 	cmp	r0, #0	; 0x0
300080b0:	0affffaa 	beq	30007f60 <file_get+0x28>
300080b4:	eb0014ea 	bl	3000d464 <strlen>
300080b8:	e3500000 	cmp	r0, #0	; 0x0
300080bc:	0affffa7 	beq	30007f60 <file_get+0x28>
300080c0:	e5962000 	ldr	r2, [r6]
300080c4:	e3a03002 	mov	r3, #2	; 0x2
300080c8:	e3520000 	cmp	r2, #0	; 0x0
300080cc:	e5863008 	str	r3, [r6, #8]
300080d0:	0a000005 	beq	300080ec <file_get+0x1b4>
300080d4:	e5d20000 	ldrb	r0, [r2]
300080d8:	e3500000 	cmp	r0, #0	; 0x0
300080dc:	0a000002 	beq	300080ec <file_get+0x1b4>
300080e0:	e2823001 	add	r3, r2, #1	; 0x1
300080e4:	e5863000 	str	r3, [r6]
300080e8:	e8bd87f0 	pop	{r4, r5, r6, r7, r8, r9, sl, pc}
300080ec:	e3a00000 	mov	r0, #0	; 0x0
300080f0:	e8bd87f0 	pop	{r4, r5, r6, r7, r8, r9, sl, pc}
300080f4:	3001a01c 	.word	0x3001a01c
300080f8:	3001a02c 	.word	0x3001a02c
300080fc:	3001c470 	.word	0x3001c470
30008100:	3001db28 	.word	0x3001db28
30008104:	3001c594 	.word	0x3001c594

30008108 <free_pipe_list>:
30008108:	e92d4ef0 	push	{r4, r5, r6, r7, r9, sl, fp, lr}
3000810c:	e1a0b001 	mov	fp, r1
30008110:	e1a06000 	mov	r6, r0
30008114:	e3a0a000 	mov	sl, #0	; 0x0
30008118:	ea00002c 	b	300081d0 <free_pipe_list+0xc8>
3000811c:	e5963004 	ldr	r3, [r6, #4]
30008120:	e7931007 	ldr	r1, [r3, r7]
30008124:	e3510000 	cmp	r1, #0	; 0x0
30008128:	e0835007 	add	r5, r3, r7
3000812c:	0a000013 	beq	30008180 <free_pipe_list+0x78>
30008130:	e3a03000 	mov	r3, #0	; 0x0
30008134:	e7912003 	ldr	r2, [r1, r3]
30008138:	e3520000 	cmp	r2, #0	; 0x0
3000813c:	e2833004 	add	r3, r3, #4	; 0x4
30008140:	1afffffb 	bne	30008134 <free_pipe_list+0x2c>
30008144:	e1a04002 	mov	r4, r2
30008148:	ea000003 	b	3000815c <free_pipe_list+0x54>
3000814c:	e5953000 	ldr	r3, [r5]
30008150:	e7930104 	ldr	r0, [r3, r4, lsl #2]
30008154:	ebfff958 	bl	300066bc <free>
30008158:	e2844001 	add	r4, r4, #1	; 0x1
3000815c:	e5953004 	ldr	r3, [r5, #4]
30008160:	e1540003 	cmp	r4, r3
30008164:	bafffff8 	blt	3000814c <free_pipe_list+0x44>
30008168:	e5950000 	ldr	r0, [r5]
3000816c:	ebfff952 	bl	300066bc <free>
30008170:	e3a03000 	mov	r3, #0	; 0x0
30008174:	e5853000 	str	r3, [r5]
30008178:	e5853004 	str	r3, [r5, #4]
3000817c:	ea000005 	b	30008198 <free_pipe_list+0x90>
30008180:	e5950008 	ldr	r0, [r5, #8]
30008184:	e3500000 	cmp	r0, #0	; 0x0
30008188:	0a000002 	beq	30008198 <free_pipe_list+0x90>
3000818c:	e28b1003 	add	r1, fp, #3	; 0x3
30008190:	ebffffdc 	bl	30008108 <free_pipe_list>
30008194:	e1a0a000 	mov	sl, r0
30008198:	e2899001 	add	r9, r9, #1	; 0x1
3000819c:	e2877014 	add	r7, r7, #20	; 0x14
300081a0:	e5963000 	ldr	r3, [r6]
300081a4:	e1590003 	cmp	r9, r3
300081a8:	baffffdb 	blt	3000811c <free_pipe_list+0x14>
300081ac:	e5960004 	ldr	r0, [r6, #4]
300081b0:	ebfff941 	bl	300066bc <free>
300081b4:	e3a03000 	mov	r3, #0	; 0x0
300081b8:	e5964008 	ldr	r4, [r6, #8]
300081bc:	e5863004 	str	r3, [r6, #4]
300081c0:	e1a00006 	mov	r0, r6
300081c4:	e5863008 	str	r3, [r6, #8]
300081c8:	ebfff93b 	bl	300066bc <free>
300081cc:	e1a06004 	mov	r6, r4
300081d0:	e3560000 	cmp	r6, #0	; 0x0
300081d4:	13a0a000 	movne	sl, #0	; 0x0
300081d8:	11a0900a 	movne	r9, sl
300081dc:	11a0700a 	movne	r7, sl
300081e0:	1affffee 	bne	300081a0 <free_pipe_list+0x98>
300081e4:	e1a0000a 	mov	r0, sl
300081e8:	e8bd8ef0 	pop	{r4, r5, r6, r7, r9, sl, fp, pc}

300081ec <b_free>:
300081ec:	e92d4010 	push	{r4, lr}
300081f0:	e1a04000 	mov	r4, r0
300081f4:	ebfffe92 	bl	30007c44 <b_reset>
300081f8:	e5940000 	ldr	r0, [r4]
300081fc:	ebfff92e 	bl	300066bc <free>
30008200:	e3a03000 	mov	r3, #0	; 0x0
30008204:	e5843008 	str	r3, [r4, #8]
30008208:	e5843000 	str	r3, [r4]
3000820c:	e8bd8010 	pop	{r4, pc}

30008210 <unset_local_var>:
30008210:	e92d4070 	push	{r4, r5, r6, lr}
30008214:	e2506000 	subs	r6, r0, #0	; 0x0
30008218:	159f3084 	ldrne	r3, [pc, #132]	; 300082a4 <unset_local_var+0x94>
3000821c:	15934118 	ldrne	r4, [r3, #280]
30008220:	1a000005 	bne	3000823c <unset_local_var+0x2c>
30008224:	e8bd8070 	pop	{r4, r5, r6, pc}
30008228:	e5940000 	ldr	r0, [r4]
3000822c:	eb00145f 	bl	3000d3b0 <strcmp>
30008230:	e3500000 	cmp	r0, #0	; 0x0
30008234:	0a000004 	beq	3000824c <unset_local_var+0x3c>
30008238:	e5944010 	ldr	r4, [r4, #16]
3000823c:	e3540000 	cmp	r4, #0	; 0x0
30008240:	e1a01006 	mov	r1, r6
30008244:	1afffff7 	bne	30008228 <unset_local_var+0x18>
30008248:	e8bd8070 	pop	{r4, r5, r6, pc}
3000824c:	e594300c 	ldr	r3, [r4, #12]
30008250:	e3530000 	cmp	r3, #0	; 0x0
30008254:	e59f3048 	ldr	r3, [pc, #72]	; 300082a4 <unset_local_var+0x94>
30008258:	e5935118 	ldr	r5, [r3, #280]
3000825c:	0a000003 	beq	30008270 <unset_local_var+0x60>
30008260:	e59f0040 	ldr	r0, [pc, #64]	; 300082a8 <unset_local_var+0x98>
30008264:	e1a01006 	mov	r1, r6
30008268:	e8bd4070 	pop	{r4, r5, r6, lr}
3000826c:	eafff824 	b	30006304 <printf>
30008270:	e5940000 	ldr	r0, [r4]
30008274:	ebfff910 	bl	300066bc <free>
30008278:	e5940004 	ldr	r0, [r4, #4]
3000827c:	ebfff90e 	bl	300066bc <free>
30008280:	e1a02005 	mov	r2, r5
30008284:	e5955010 	ldr	r5, [r5, #16]
30008288:	e1550004 	cmp	r5, r4
3000828c:	1afffffb 	bne	30008280 <unset_local_var+0x70>
30008290:	e5953010 	ldr	r3, [r5, #16]
30008294:	e1a00005 	mov	r0, r5
30008298:	e5823010 	str	r3, [r2, #16]
3000829c:	e8bd4070 	pop	{r4, r5, r6, lr}
300082a0:	eafff905 	b	300066bc <free>
300082a4:	3001c470 	.word	0x3001c470
300082a8:	3001a02f 	.word	0x3001a02f

300082ac <xrealloc>:
300082ac:	e92d4010 	push	{r4, lr}
300082b0:	ebfffbcb 	bl	300071e4 <realloc>
300082b4:	e3500000 	cmp	r0, #0	; 0x0
300082b8:	18bd8010 	popne	{r4, pc}
300082bc:	e59f0004 	ldr	r0, [pc, #4]	; 300082c8 <xrealloc+0x1c>
300082c0:	ebfff80f 	bl	30006304 <printf>
300082c4:	eafffffe 	b	300082c4 <xrealloc+0x18>
300082c8:	30019ffe 	.word	0x30019ffe

300082cc <done_command>:
300082cc:	e5902000 	ldr	r2, [r0]
300082d0:	e3520000 	cmp	r2, #0	; 0x0
300082d4:	e92d4070 	push	{r4, r5, r6, lr}
300082d8:	e1a06000 	mov	r6, r0
300082dc:	e5905008 	ldr	r5, [r0, #8]
300082e0:	0a000008 	beq	30008308 <done_command+0x3c>
300082e4:	e5923008 	ldr	r3, [r2, #8]
300082e8:	e3530000 	cmp	r3, #0	; 0x0
300082ec:	1a000002 	bne	300082fc <done_command+0x30>
300082f0:	e5923000 	ldr	r3, [r2]
300082f4:	e3530000 	cmp	r3, #0	; 0x0
300082f8:	0a000013 	beq	3000834c <done_command+0x80>
300082fc:	e5953000 	ldr	r3, [r5]
30008300:	e2833001 	add	r3, r3, #1	; 0x1
30008304:	e5853000 	str	r3, [r5]
30008308:	e5953000 	ldr	r3, [r5]
3000830c:	e3a04014 	mov	r4, #20	; 0x14
30008310:	e2833001 	add	r3, r3, #1	; 0x1
30008314:	e0010394 	mul	r1, r4, r3
30008318:	e5950004 	ldr	r0, [r5, #4]
3000831c:	ebffffe2 	bl	300082ac <xrealloc>
30008320:	e5953000 	ldr	r3, [r5]
30008324:	e00c0394 	mul	ip, r4, r3
30008328:	e3a02000 	mov	r2, #0	; 0x0
3000832c:	e080300c 	add	r3, r0, ip
30008330:	e583200c 	str	r2, [r3, #12]
30008334:	e5961018 	ldr	r1, [r6, #24]
30008338:	e5850004 	str	r0, [r5, #4]
3000833c:	e780200c 	str	r2, [r0, ip]
30008340:	e5831010 	str	r1, [r3, #16]
30008344:	e5832008 	str	r2, [r3, #8]
30008348:	e5863000 	str	r3, [r6]
3000834c:	e3a00000 	mov	r0, #0	; 0x0
30008350:	e8bd8070 	pop	{r4, r5, r6, pc}

30008354 <initialize_context>:
30008354:	e92d4070 	push	{r4, r5, r6, lr}
30008358:	e3a05000 	mov	r5, #0	; 0x0
3000835c:	e5805008 	str	r5, [r0, #8]
30008360:	e5805000 	str	r5, [r0]
30008364:	e1a04000 	mov	r4, r0
30008368:	ebfffee8 	bl	30007f10 <new_pipe>
3000836c:	e5840008 	str	r0, [r4, #8]
30008370:	e5840004 	str	r0, [r4, #4]
30008374:	e1a00004 	mov	r0, r4
30008378:	e5845010 	str	r5, [r4, #16]
3000837c:	e584500c 	str	r5, [r4, #12]
30008380:	e5845014 	str	r5, [r4, #20]
30008384:	e8bd4070 	pop	{r4, r5, r6, lr}
30008388:	eaffffcf 	b	300082cc <done_command>

3000838c <done_pipe>:
3000838c:	e92d4070 	push	{r4, r5, r6, lr}
30008390:	e1a04000 	mov	r4, r0
30008394:	e1a05001 	mov	r5, r1
30008398:	ebffffcb 	bl	300082cc <done_command>
3000839c:	e2842008 	add	r2, r4, #8	; 0x8
300083a0:	e892000c 	ldm	r2, {r2, r3}
300083a4:	e582500c 	str	r5, [r2, #12]
300083a8:	e5823010 	str	r3, [r2, #16]
300083ac:	ebfffed7 	bl	30007f10 <new_pipe>
300083b0:	e5943008 	ldr	r3, [r4, #8]
300083b4:	e3a05000 	mov	r5, #0	; 0x0
300083b8:	e5830008 	str	r0, [r3, #8]
300083bc:	e5845000 	str	r5, [r4]
300083c0:	e5840008 	str	r0, [r4, #8]
300083c4:	e1a00004 	mov	r0, r4
300083c8:	ebffffbf 	bl	300082cc <done_command>
300083cc:	e1a00005 	mov	r0, r5
300083d0:	e8bd8070 	pop	{r4, r5, r6, pc}

300083d4 <reserved_word>:
300083d4:	e92d41f0 	push	{r4, r5, r6, r7, r8, lr}
300083d8:	e1a07000 	mov	r7, r0
300083dc:	e1a05001 	mov	r5, r1
300083e0:	e59f611c 	ldr	r6, [pc, #284]	; 30008504 <reserved_word+0x130>
300083e4:	ea000041 	b	300084f0 <reserved_word+0x11c>
300083e8:	e5961000 	ldr	r1, [r6]
300083ec:	e5970000 	ldr	r0, [r7]
300083f0:	eb0013ee 	bl	3000d3b0 <strcmp>
300083f4:	e3500000 	cmp	r0, #0	; 0x0
300083f8:	1a00003b 	bne	300084ec <reserved_word+0x118>
300083fc:	e5963008 	ldr	r3, [r6, #8]
30008400:	e3130b02 	tst	r3, #2048	; 0x800
30008404:	0a000014 	beq	3000845c <reserved_word+0x88>
30008408:	e280001c 	add	r0, r0, #28	; 0x1c
3000840c:	ebfffeb7 	bl	30007ef0 <xmalloc>
30008410:	e595300c 	ldr	r3, [r5, #12]
30008414:	e3530006 	cmp	r3, #6	; 0x6
30008418:	1353000c 	cmpne	r3, #12	; 0xc
3000841c:	e1a04000 	mov	r4, r0
30008420:	1a000003 	bne	30008434 <reserved_word+0x60>
30008424:	ebfffe60 	bl	30007dac <syntax_err>
30008428:	e1a00004 	mov	r0, r4
3000842c:	ebfff8a2 	bl	300066bc <free>
30008430:	ea000012 	b	30008480 <reserved_word+0xac>
30008434:	e1a0c005 	mov	ip, r5
30008438:	e8bc000f 	ldm	ip!, {r0, r1, r2, r3}
3000843c:	e1a0e004 	mov	lr, r4
30008440:	e8ae000f 	stmia	lr!, {r0, r1, r2, r3}
30008444:	e89c0007 	ldm	ip, {r0, r1, r2}
30008448:	e88e0007 	stm	lr, {r0, r1, r2}
3000844c:	e1a00005 	mov	r0, r5
30008450:	ebffffbf 	bl	30008354 <initialize_context>
30008454:	e5854014 	str	r4, [r5, #20]
30008458:	ea00000b 	b	3000848c <reserved_word+0xb8>
3000845c:	e595300c 	ldr	r3, [r5, #12]
30008460:	e3530000 	cmp	r3, #0	; 0x0
30008464:	0a000004 	beq	3000847c <reserved_word+0xa8>
30008468:	e5953010 	ldr	r3, [r5, #16]
3000846c:	e5962004 	ldr	r2, [r6, #4]
30008470:	e1a03253 	asr	r3, r3, r2
30008474:	e3130001 	tst	r3, #1	; 0x1
30008478:	1a000003 	bne	3000848c <reserved_word+0xb8>
3000847c:	ebfffe4a 	bl	30007dac <syntax_err>
30008480:	e3a0300d 	mov	r3, #13	; 0xd
30008484:	e585300c 	str	r3, [r5, #12]
30008488:	ea000013 	b	300084dc <reserved_word+0x108>
3000848c:	e5962008 	ldr	r2, [r6, #8]
30008490:	e5963004 	ldr	r3, [r6, #4]
30008494:	e3120001 	tst	r2, #1	; 0x1
30008498:	e585300c 	str	r3, [r5, #12]
3000849c:	e5852010 	str	r2, [r5, #16]
300084a0:	0a00000d 	beq	300084dc <reserved_word+0x108>
300084a4:	e3a01001 	mov	r1, #1	; 0x1
300084a8:	e1a00005 	mov	r0, r5
300084ac:	ebffffb6 	bl	3000838c <done_pipe>
300084b0:	e5954014 	ldr	r4, [r5, #20]
300084b4:	e5952004 	ldr	r2, [r5, #4]
300084b8:	e5943000 	ldr	r3, [r4]
300084bc:	e5832008 	str	r2, [r3, #8]
300084c0:	e1a0c004 	mov	ip, r4
300084c4:	e8bc000f 	ldm	ip!, {r0, r1, r2, r3}
300084c8:	e8a5000f 	stmia	r5!, {r0, r1, r2, r3}
300084cc:	e89c0007 	ldm	ip, {r0, r1, r2}
300084d0:	e8850007 	stm	r5, {r0, r1, r2}
300084d4:	e1a00004 	mov	r0, r4
300084d8:	ebfff877 	bl	300066bc <free>
300084dc:	e1a00007 	mov	r0, r7
300084e0:	ebfffdd7 	bl	30007c44 <b_reset>
300084e4:	e3a00001 	mov	r0, #1	; 0x1
300084e8:	e8bd81f0 	pop	{r4, r5, r6, r7, r8, pc}
300084ec:	e286600c 	add	r6, r6, #12	; 0xc
300084f0:	e59f3010 	ldr	r3, [pc, #16]	; 30008508 <reserved_word+0x134>
300084f4:	e1560003 	cmp	r6, r3
300084f8:	1affffba 	bne	300083e8 <reserved_word+0x14>
300084fc:	e3a00000 	mov	r0, #0	; 0x0
30008500:	e8bd81f0 	pop	{r4, r5, r6, r7, r8, pc}
30008504:	3001b97c 	.word	0x3001b97c
30008508:	3001ba00 	.word	0x3001ba00

3000850c <b_addchr>:
3000850c:	e5902008 	ldr	r2, [r0, #8]
30008510:	e5903004 	ldr	r3, [r0, #4]
30008514:	e1530002 	cmp	r3, r2
30008518:	e92d4070 	push	{r4, r5, r6, lr}
3000851c:	e1a04000 	mov	r4, r0
30008520:	e1a06001 	mov	r6, r1
30008524:	ba000009 	blt	30008550 <b_addchr+0x44>
30008528:	e5905000 	ldr	r5, [r0]
3000852c:	e2823064 	add	r3, r2, #100	; 0x64
30008530:	e5803008 	str	r3, [r0, #8]
30008534:	e2821065 	add	r1, r2, #101	; 0x65
30008538:	e1a00005 	mov	r0, r5
3000853c:	ebfffb28 	bl	300071e4 <realloc>
30008540:	e3500000 	cmp	r0, #0	; 0x0
30008544:	e5840000 	str	r0, [r4]
30008548:	01a00005 	moveq	r0, r5
3000854c:	0bfff85a 	bleq	300066bc <free>
30008550:	e5942000 	ldr	r2, [r4]
30008554:	e3520000 	cmp	r2, #0	; 0x0
30008558:	03a00001 	moveq	r0, #1	; 0x1
3000855c:	08bd8070 	popeq	{r4, r5, r6, pc}
30008560:	e5943004 	ldr	r3, [r4, #4]
30008564:	e7c26003 	strb	r6, [r2, r3]
30008568:	e894000a 	ldm	r4, {r1, r3}
3000856c:	e2833001 	add	r3, r3, #1	; 0x1
30008570:	e3a02000 	mov	r2, #0	; 0x0
30008574:	e5843004 	str	r3, [r4, #4]
30008578:	e1a00002 	mov	r0, r2
3000857c:	e7c12003 	strb	r2, [r1, r3]
30008580:	e8bd8070 	pop	{r4, r5, r6, pc}

30008584 <done_word>:
30008584:	e5903004 	ldr	r3, [r0, #4]
30008588:	e3530000 	cmp	r3, #0	; 0x0
3000858c:	e92d44f0 	push	{r4, r5, r6, r7, sl, lr}
30008590:	e1a06000 	mov	r6, r0
30008594:	e1a07001 	mov	r7, r1
30008598:	e5915000 	ldr	r5, [r1]
3000859c:	1a000002 	bne	300085ac <done_word+0x28>
300085a0:	e5903010 	ldr	r3, [r0, #16]
300085a4:	e3530000 	cmp	r3, #0	; 0x0
300085a8:	0a000051 	beq	300086f4 <done_word+0x170>
300085ac:	e5953008 	ldr	r3, [r5, #8]
300085b0:	e3530000 	cmp	r3, #0	; 0x0
300085b4:	0a000002 	beq	300085c4 <done_word+0x40>
300085b8:	ebfffdfb 	bl	30007dac <syntax_err>
300085bc:	e3a00001 	mov	r0, #1	; 0x1
300085c0:	e8bd84f0 	pop	{r4, r5, r6, r7, sl, pc}
300085c4:	e5953000 	ldr	r3, [r5]
300085c8:	e3530000 	cmp	r3, #0	; 0x0
300085cc:	1a00000c 	bne	30008604 <done_word+0x80>
300085d0:	e5973018 	ldr	r3, [r7, #24]
300085d4:	e3130002 	tst	r3, #2	; 0x2
300085d8:	0a000009 	beq	30008604 <done_word+0x80>
300085dc:	e1a00006 	mov	r0, r6
300085e0:	e1a01007 	mov	r1, r7
300085e4:	ebffff7a 	bl	300083d4 <reserved_word>
300085e8:	e3500000 	cmp	r0, #0	; 0x0
300085ec:	0a000004 	beq	30008604 <done_word+0x80>
300085f0:	e597300c 	ldr	r3, [r7, #12]
300085f4:	e353000d 	cmp	r3, #13	; 0xd
300085f8:	13a00000 	movne	r0, #0	; 0x0
300085fc:	03a00001 	moveq	r0, #1	; 0x1
30008600:	e8bd84f0 	pop	{r4, r5, r6, r7, sl, pc}
30008604:	e5963000 	ldr	r3, [r6]
30008608:	e3a00001 	mov	r0, #1	; 0x1
3000860c:	ea000003 	b	30008620 <done_word+0x9c>
30008610:	e352005c 	cmp	r2, #92	; 0x5c
30008614:	02833001 	addeq	r3, r3, #1	; 0x1
30008618:	e2800001 	add	r0, r0, #1	; 0x1
3000861c:	e2833001 	add	r3, r3, #1	; 0x1
30008620:	e3530000 	cmp	r3, #0	; 0x0
30008624:	0a000002 	beq	30008634 <done_word+0xb0>
30008628:	e5d32000 	ldrb	r2, [r3]
3000862c:	e3520000 	cmp	r2, #0	; 0x0
30008630:	1afffff6 	bne	30008610 <done_word+0x8c>
30008634:	ebfff8b0 	bl	300068fc <malloc>
30008638:	e250a000 	subs	sl, r0, #0	; 0x0
3000863c:	0a00002e 	beq	300086fc <done_word+0x178>
30008640:	e5953000 	ldr	r3, [r5]
30008644:	e3530000 	cmp	r3, #0	; 0x0
30008648:	05853004 	streq	r3, [r5, #4]
3000864c:	e5953004 	ldr	r3, [r5, #4]
30008650:	e2834001 	add	r4, r3, #1	; 0x1
30008654:	e2841001 	add	r1, r4, #1	; 0x1
30008658:	e5854004 	str	r4, [r5, #4]
3000865c:	e1a01101 	lsl	r1, r1, #2
30008660:	e5950000 	ldr	r0, [r5]
30008664:	ebfffade 	bl	300071e4 <realloc>
30008668:	e3500000 	cmp	r0, #0	; 0x0
3000866c:	e5850000 	str	r0, [r5]
30008670:	0a000021 	beq	300086fc <done_word+0x178>
30008674:	e2642001 	rsb	r2, r4, #1	; 0x1
30008678:	e3e03003 	mvn	r3, #3	; 0x3
3000867c:	e0030392 	mul	r3, r2, r3
30008680:	e780a003 	str	sl, [r0, r3]
30008684:	e3a03000 	mov	r3, #0	; 0x0
30008688:	e7803104 	str	r3, [r0, r4, lsl #2]
3000868c:	e5962000 	ldr	r2, [r6]
30008690:	ea000003 	b	300086a4 <done_word+0x120>
30008694:	e353005c 	cmp	r3, #92	; 0x5c
30008698:	02822001 	addeq	r2, r2, #1	; 0x1
3000869c:	e4d23001 	ldrb	r3, [r2], #1
300086a0:	e4ca3001 	strb	r3, [sl], #1
300086a4:	e3520000 	cmp	r2, #0	; 0x0
300086a8:	0a000002 	beq	300086b8 <done_word+0x134>
300086ac:	e5d23000 	ldrb	r3, [r2]
300086b0:	e3530000 	cmp	r3, #0	; 0x0
300086b4:	1afffff6 	bne	30008694 <done_word+0x110>
300086b8:	e3a04000 	mov	r4, #0	; 0x0
300086bc:	e5ca4000 	strb	r4, [sl]
300086c0:	e1a00006 	mov	r0, r6
300086c4:	ebfffd5e 	bl	30007c44 <b_reset>
300086c8:	e597300c 	ldr	r3, [r7, #12]
300086cc:	e3530006 	cmp	r3, #6	; 0x6
300086d0:	1a000007 	bne	300086f4 <done_word+0x170>
300086d4:	e1a01007 	mov	r1, r7
300086d8:	e1a00006 	mov	r0, r6
300086dc:	ebffffa8 	bl	30008584 <done_word>
300086e0:	e1a00007 	mov	r0, r7
300086e4:	e3a01001 	mov	r1, #1	; 0x1
300086e8:	ebffff27 	bl	3000838c <done_pipe>
300086ec:	e1a00004 	mov	r0, r4
300086f0:	e8bd84f0 	pop	{r4, r5, r6, r7, sl, pc}
300086f4:	e3a00000 	mov	r0, #0	; 0x0
300086f8:	e8bd84f0 	pop	{r4, r5, r6, r7, sl, pc}
300086fc:	e3a00001 	mov	r0, #1	; 0x1
30008700:	e8bd84f0 	pop	{r4, r5, r6, r7, sl, pc}

30008704 <b_addqchr>:
30008704:	e3520000 	cmp	r2, #0	; 0x0
30008708:	e92d4070 	push	{r4, r5, r6, lr}
3000870c:	e1a04000 	mov	r4, r0
30008710:	e1a05001 	mov	r5, r1
30008714:	0a000008 	beq	3000873c <b_addqchr+0x38>
30008718:	e59f002c 	ldr	r0, [pc, #44]	; 3000874c <b_addqchr+0x48>
3000871c:	eb001345 	bl	3000d438 <strchr>
30008720:	e3500000 	cmp	r0, #0	; 0x0
30008724:	0a000004 	beq	3000873c <b_addqchr+0x38>
30008728:	e1a00004 	mov	r0, r4
3000872c:	e3a0105c 	mov	r1, #92	; 0x5c
30008730:	ebffff75 	bl	3000850c <b_addchr>
30008734:	e3500000 	cmp	r0, #0	; 0x0
30008738:	18bd8070 	popne	{r4, r5, r6, pc}
3000873c:	e1a00004 	mov	r0, r4
30008740:	e1a01005 	mov	r1, r5
30008744:	e8bd4070 	pop	{r4, r5, r6, lr}
30008748:	eaffff6f 	b	3000850c <b_addchr>
3000874c:	3001a045 	.word	0x3001a045

30008750 <insert_var_value>:
30008750:	e92d4ef0 	push	{r4, r5, r6, r7, r9, sl, fp, lr}
30008754:	e3a05000 	mov	r5, #0	; 0x0
30008758:	e1a06000 	mov	r6, r0
3000875c:	e1a04005 	mov	r4, r5
30008760:	e1a07005 	mov	r7, r5
30008764:	ea000046 	b	30008884 <insert_var_value+0x134>
30008768:	e15a0006 	cmp	sl, r6
3000876c:	01a09005 	moveq	r9, r5
30008770:	0a000009 	beq	3000879c <insert_var_value+0x4c>
30008774:	e066400a 	rsb	r4, r6, sl
30008778:	e0849005 	add	r9, r4, r5
3000877c:	e1a00007 	mov	r0, r7
30008780:	e1a01009 	mov	r1, r9
30008784:	ebfffec8 	bl	300082ac <xrealloc>
30008788:	e1a01006 	mov	r1, r6
3000878c:	e1a07000 	mov	r7, r0
30008790:	e1a02004 	mov	r2, r4
30008794:	e0800005 	add	r0, r0, r5
30008798:	eb0012d4 	bl	3000d2f0 <strncpy>
3000879c:	e28a6001 	add	r6, sl, #1	; 0x1
300087a0:	e1a00006 	mov	r0, r6
300087a4:	e3a01003 	mov	r1, #3	; 0x3
300087a8:	eb001322 	bl	3000d438 <strchr>
300087ac:	e3a03000 	mov	r3, #0	; 0x0
300087b0:	e3560000 	cmp	r6, #0	; 0x0
300087b4:	e1a0b000 	mov	fp, r0
300087b8:	e5c03000 	strb	r3, [r0]
300087bc:	0a00002b 	beq	30008870 <insert_var_value+0x120>
300087c0:	e1a00006 	mov	r0, r6
300087c4:	ebfff0e9 	bl	30004b70 <getenv>
300087c8:	e2505000 	subs	r5, r0, #0	; 0x0
300087cc:	1a00001c 	bne	30008844 <insert_var_value+0xf4>
300087d0:	e5da3001 	ldrb	r3, [sl, #1]
300087d4:	e3530024 	cmp	r3, #36	; 0x24
300087d8:	e59f4118 	ldr	r4, [pc, #280]	; 300088f8 <insert_var_value+0x1a8>
300087dc:	1a000009 	bne	30008808 <insert_var_value+0xb8>
300087e0:	e5d63001 	ldrb	r3, [r6, #1]
300087e4:	e353003f 	cmp	r3, #63	; 0x3f
300087e8:	e5c45224 	strb	r5, [r4, #548]
300087ec:	1a00001f 	bne	30008870 <insert_var_value+0x120>
300087f0:	e2840f89 	add	r0, r4, #548	; 0x224
300087f4:	e59f1100 	ldr	r1, [pc, #256]	; 300088fc <insert_var_value+0x1ac>
300087f8:	e594224c 	ldr	r2, [r4, #588]
300087fc:	eb00176f 	bl	3000e5c0 <sprintf>
30008800:	e2845f89 	add	r5, r4, #548	; 0x224
30008804:	ea00000e 	b	30008844 <insert_var_value+0xf4>
30008808:	e5944118 	ldr	r4, [r4, #280]
3000880c:	ea000008 	b	30008834 <insert_var_value+0xe4>
30008810:	e5940000 	ldr	r0, [r4]
30008814:	eb0012e5 	bl	3000d3b0 <strcmp>
30008818:	e3500000 	cmp	r0, #0	; 0x0
3000881c:	1a000003 	bne	30008830 <insert_var_value+0xe0>
30008820:	e5945004 	ldr	r5, [r4, #4]
30008824:	e3550000 	cmp	r5, #0	; 0x0
30008828:	0a000010 	beq	30008870 <insert_var_value+0x120>
3000882c:	ea000004 	b	30008844 <insert_var_value+0xf4>
30008830:	e5944010 	ldr	r4, [r4, #16]
30008834:	e3540000 	cmp	r4, #0	; 0x0
30008838:	e1a01006 	mov	r1, r6
3000883c:	1afffff3 	bne	30008810 <insert_var_value+0xc0>
30008840:	ea00000a 	b	30008870 <insert_var_value+0x120>
30008844:	e1a00005 	mov	r0, r5
30008848:	eb001305 	bl	3000d464 <strlen>
3000884c:	e0804009 	add	r4, r0, r9
30008850:	e2841001 	add	r1, r4, #1	; 0x1
30008854:	e1a00007 	mov	r0, r7
30008858:	ebfffe93 	bl	300082ac <xrealloc>
3000885c:	e1a01005 	mov	r1, r5
30008860:	e1a07000 	mov	r7, r0
30008864:	e0800009 	add	r0, r0, r9
30008868:	eb001299 	bl	3000d2d4 <strcpy>
3000886c:	e1a09004 	mov	r9, r4
30008870:	e1a0600b 	mov	r6, fp
30008874:	e3a03003 	mov	r3, #3	; 0x3
30008878:	e4c63001 	strb	r3, [r6], #1
3000887c:	e1a05009 	mov	r5, r9
30008880:	e3a04001 	mov	r4, #1	; 0x1
30008884:	e1a00006 	mov	r0, r6
30008888:	e3a01003 	mov	r1, #3	; 0x3
3000888c:	eb0012e9 	bl	3000d438 <strchr>
30008890:	e250a000 	subs	sl, r0, #0	; 0x0
30008894:	1affffb3 	bne	30008768 <insert_var_value+0x18>
30008898:	e3540000 	cmp	r4, #0	; 0x0
3000889c:	0a000011 	beq	300088e8 <insert_var_value+0x198>
300088a0:	e1a00006 	mov	r0, r6
300088a4:	eb0012ee 	bl	3000d464 <strlen>
300088a8:	e2851001 	add	r1, r5, #1	; 0x1
300088ac:	e0811000 	add	r1, r1, r0
300088b0:	e1a00007 	mov	r0, r7
300088b4:	ebfffe7c 	bl	300082ac <xrealloc>
300088b8:	e1a01006 	mov	r1, r6
300088bc:	e1a07000 	mov	r7, r0
300088c0:	e0800005 	add	r0, r0, r5
300088c4:	eb001282 	bl	3000d2d4 <strcpy>
300088c8:	ea000001 	b	300088d4 <insert_var_value+0x184>
300088cc:	e3a03020 	mov	r3, #32	; 0x20
300088d0:	e5c03000 	strb	r3, [r0]
300088d4:	e1a00007 	mov	r0, r7
300088d8:	e3a0100a 	mov	r1, #10	; 0xa
300088dc:	eb0012d5 	bl	3000d438 <strchr>
300088e0:	e3500000 	cmp	r0, #0	; 0x0
300088e4:	1afffff8 	bne	300088cc <insert_var_value+0x17c>
300088e8:	e3570000 	cmp	r7, #0	; 0x0
300088ec:	11a00007 	movne	r0, r7
300088f0:	01a00006 	moveq	r0, r6
300088f4:	e8bd8ef0 	pop	{r4, r5, r6, r7, r9, sl, fp, pc}
300088f8:	3001c470 	.word	0x3001c470
300088fc:	3001a04a 	.word	0x3001a04a

30008900 <set_local_var>:
30008900:	e92d44f0 	push	{r4, r5, r6, r7, sl, lr}
30008904:	e59f2194 	ldr	r2, [pc, #404]	; 30008aa0 <set_local_var+0x1a0>
30008908:	e5d03000 	ldrb	r3, [r0]
3000890c:	e7d23003 	ldrb	r3, [r2, r3]
30008910:	e3130003 	tst	r3, #3	; 0x3
30008914:	e1a07001 	mov	r7, r1
30008918:	0a000008 	beq	30008940 <set_local_var+0x40>
3000891c:	eb0013f2 	bl	3000d8ec <strdup>
30008920:	e1a0a000 	mov	sl, r0
30008924:	ebfff091 	bl	30004b70 <getenv>
30008928:	e2504000 	subs	r4, r0, #0	; 0x0
3000892c:	0a000005 	beq	30008948 <set_local_var+0x48>
30008930:	e59f016c 	ldr	r0, [pc, #364]	; 30008aa4 <set_local_var+0x1a4>
30008934:	ebfff672 	bl	30006304 <printf>
30008938:	e1a0000a 	mov	r0, sl
3000893c:	ebfff75e 	bl	300066bc <free>
30008940:	e3e04000 	mvn	r4, #0	; 0x0
30008944:	ea00004e 	b	30008a84 <set_local_var+0x184>
30008948:	e1a0000a 	mov	r0, sl
3000894c:	e3a0103d 	mov	r1, #61	; 0x3d
30008950:	eb0012b8 	bl	3000d438 <strchr>
30008954:	e3500000 	cmp	r0, #0	; 0x0
30008958:	11a05000 	movne	r5, r0
3000895c:	03a05001 	moveq	r5, #1	; 0x1
30008960:	e4c54001 	strb	r4, [r5], #1
30008964:	e59f313c 	ldr	r3, [pc, #316]	; 30008aa8 <set_local_var+0x1a8>
30008968:	e5936118 	ldr	r6, [r3, #280]
3000896c:	ea000004 	b	30008984 <set_local_var+0x84>
30008970:	e5960000 	ldr	r0, [r6]
30008974:	eb00128d 	bl	3000d3b0 <strcmp>
30008978:	e3500000 	cmp	r0, #0	; 0x0
3000897c:	0a000004 	beq	30008994 <set_local_var+0x94>
30008980:	e5966010 	ldr	r6, [r6, #16]
30008984:	e3560000 	cmp	r6, #0	; 0x0
30008988:	e1a0100a 	mov	r1, sl
3000898c:	1afffff7 	bne	30008970 <set_local_var+0x70>
30008990:	ea00003d 	b	30008a8c <set_local_var+0x18c>
30008994:	e5960004 	ldr	r0, [r6, #4]
30008998:	e1a01005 	mov	r1, r5
3000899c:	eb001283 	bl	3000d3b0 <strcmp>
300089a0:	e3500000 	cmp	r0, #0	; 0x0
300089a4:	1a000007 	bne	300089c8 <set_local_var+0xc8>
300089a8:	e3570000 	cmp	r7, #0	; 0x0
300089ac:	da000031 	ble	30008a78 <set_local_var+0x178>
300089b0:	e5960008 	ldr	r0, [r6, #8]
300089b4:	e3500000 	cmp	r0, #0	; 0x0
300089b8:	05867008 	streq	r7, [r6, #8]
300089bc:	01a04000 	moveq	r4, r0
300089c0:	0a00002d 	beq	30008a7c <set_local_var+0x17c>
300089c4:	ea00002b 	b	30008a78 <set_local_var+0x178>
300089c8:	e596300c 	ldr	r3, [r6, #12]
300089cc:	e3530000 	cmp	r3, #0	; 0x0
300089d0:	0a000003 	beq	300089e4 <set_local_var+0xe4>
300089d4:	e59f00d0 	ldr	r0, [pc, #208]	; 30008aac <set_local_var+0x1ac>
300089d8:	e1a0100a 	mov	r1, sl
300089dc:	ebfff648 	bl	30006304 <printf>
300089e0:	ea000014 	b	30008a38 <set_local_var+0x138>
300089e4:	e3570000 	cmp	r7, #0	; 0x0
300089e8:	ca000002 	bgt	300089f8 <set_local_var+0xf8>
300089ec:	e5963008 	ldr	r3, [r6, #8]
300089f0:	e3530001 	cmp	r3, #1	; 0x1
300089f4:	da000001 	ble	30008a00 <set_local_var+0x100>
300089f8:	e3a03001 	mov	r3, #1	; 0x1
300089fc:	e5863008 	str	r3, [r6, #8]
30008a00:	e5960004 	ldr	r0, [r6, #4]
30008a04:	ebfff72c 	bl	300066bc <free>
30008a08:	e1a00005 	mov	r0, r5
30008a0c:	eb0013b6 	bl	3000d8ec <strdup>
30008a10:	e3a04000 	mov	r4, #0	; 0x0
30008a14:	e5860004 	str	r0, [r6, #4]
30008a18:	ea000017 	b	30008a7c <set_local_var+0x17c>
30008a1c:	e1a0000a 	mov	r0, sl
30008a20:	eb0013b1 	bl	3000d8ec <strdup>
30008a24:	e3500000 	cmp	r0, #0	; 0x0
30008a28:	e5840000 	str	r0, [r4]
30008a2c:	1a000003 	bne	30008a40 <set_local_var+0x140>
30008a30:	e1a00004 	mov	r0, r4
30008a34:	ebfff720 	bl	300066bc <free>
30008a38:	e3e04000 	mvn	r4, #0	; 0x0
30008a3c:	ea00000e 	b	30008a7c <set_local_var+0x17c>
30008a40:	e59f3060 	ldr	r3, [pc, #96]	; 30008aa8 <set_local_var+0x1a8>
30008a44:	e1a00005 	mov	r0, r5
30008a48:	e5935118 	ldr	r5, [r3, #280]
30008a4c:	eb0013a6 	bl	3000d8ec <strdup>
30008a50:	e9840081 	stmib	r4, {r0, r7}
30008a54:	e584600c 	str	r6, [r4, #12]
30008a58:	e5846010 	str	r6, [r4, #16]
30008a5c:	e1a03005 	mov	r3, r5
30008a60:	e5955010 	ldr	r5, [r5, #16]
30008a64:	e3550000 	cmp	r5, #0	; 0x0
30008a68:	1afffffb 	bne	30008a5c <set_local_var+0x15c>
30008a6c:	e5834010 	str	r4, [r3, #16]
30008a70:	e1a04005 	mov	r4, r5
30008a74:	ea000000 	b	30008a7c <set_local_var+0x17c>
30008a78:	e3a04001 	mov	r4, #1	; 0x1
30008a7c:	e1a0000a 	mov	r0, sl
30008a80:	ebfff70d 	bl	300066bc <free>
30008a84:	e1a00004 	mov	r0, r4
30008a88:	e8bd84f0 	pop	{r4, r5, r6, r7, sl, pc}
30008a8c:	e3a00014 	mov	r0, #20	; 0x14
30008a90:	ebfff799 	bl	300068fc <malloc>
30008a94:	e2504000 	subs	r4, r0, #0	; 0x0
30008a98:	1affffdf 	bne	30008a1c <set_local_var+0x11c>
30008a9c:	eaffffe5 	b	30008a38 <set_local_var+0x138>
30008aa0:	3001bc30 	.word	0x3001bc30
30008aa4:	3001a04d 	.word	0x3001a04d
30008aa8:	3001c470 	.word	0x3001c470
30008aac:	3001a02f 	.word	0x3001a02f

30008ab0 <update_ifs_map>:
30008ab0:	e92d4010 	push	{r4, lr}
30008ab4:	e59f0050 	ldr	r0, [pc, #80]	; 30008b0c <update_ifs_map+0x5c>
30008ab8:	ebfff02c 	bl	30004b70 <getenv>
30008abc:	e3500000 	cmp	r0, #0	; 0x0
30008ac0:	059f3048 	ldreq	r3, [pc, #72]	; 30008b10 <update_ifs_map+0x60>
30008ac4:	e59f2048 	ldr	r2, [pc, #72]	; 30008b14 <update_ifs_map+0x64>
30008ac8:	e59f4044 	ldr	r4, [pc, #68]	; 30008b14 <update_ifs_map+0x64>
30008acc:	e5820250 	str	r0, [r2, #592]
30008ad0:	e3a01000 	mov	r1, #0	; 0x0
30008ad4:	05823250 	streq	r3, [r2, #592]
30008ad8:	e2840016 	add	r0, r4, #22	; 0x16
30008adc:	e3a02c01 	mov	r2, #256	; 0x100
30008ae0:	eb0012e0 	bl	3000d668 <memset>
30008ae4:	e59f002c 	ldr	r0, [pc, #44]	; 30008b18 <update_ifs_map+0x68>
30008ae8:	e3a01003 	mov	r1, #3	; 0x3
30008aec:	ebfffca3 	bl	30007d80 <mapset>
30008af0:	e59f0024 	ldr	r0, [pc, #36]	; 30008b1c <update_ifs_map+0x6c>
30008af4:	e3a01001 	mov	r1, #1	; 0x1
30008af8:	ebfffca0 	bl	30007d80 <mapset>
30008afc:	e5940250 	ldr	r0, [r4, #592]
30008b00:	e3a01002 	mov	r1, #2	; 0x2
30008b04:	e8bd4010 	pop	{r4, lr}
30008b08:	eafffc9c 	b	30007d80 <mapset>
30008b0c:	3001a090 	.word	0x3001a090
30008b10:	3001a094 	.word	0x3001a094
30008b14:	3001c470 	.word	0x3001c470
30008b18:	3001a098 	.word	0x3001a098
30008b1c:	3001a09d 	.word	0x3001a09d

30008b20 <parse_stream_outer>:
30008b20:	e92d4ef0 	push	{r4, r5, r6, r7, r9, sl, fp, lr}
30008b24:	e24dd030 	sub	sp, sp, #48	; 0x30
30008b28:	e1a06000 	mov	r6, r0
30008b2c:	e1a0b001 	mov	fp, r1
30008b30:	e28d001c 	add	r0, sp, #28	; 0x1c
30008b34:	e3a01000 	mov	r1, #0	; 0x0
30008b38:	e3a02014 	mov	r2, #20	; 0x14
30008b3c:	eb0012c9 	bl	3000d668 <memset>
30008b40:	e3a09000 	mov	r9, #0	; 0x0
30008b44:	e1a0000d 	mov	r0, sp
30008b48:	e58db018 	str	fp, [sp, #24]
30008b4c:	ebfffe00 	bl	30008354 <initialize_context>
30008b50:	ebffffd6 	bl	30008ab0 <update_ifs_map>
30008b54:	e31b0002 	tst	fp, #2	; 0x2
30008b58:	0a000001 	beq	30008b64 <parse_stream_outer+0x44>
30008b5c:	e31b0004 	tst	fp, #4	; 0x4
30008b60:	0a000002 	beq	30008b70 <parse_stream_outer+0x50>
30008b64:	e59f0578 	ldr	r0, [pc, #1400]	; 300090e4 <parse_stream_outer+0x5c4>
30008b68:	e3a01000 	mov	r1, #0	; 0x0
30008b6c:	ebfffc83 	bl	30007d80 <mapset>
30008b70:	e3a03001 	mov	r3, #1	; 0x1
30008b74:	e5863008 	str	r3, [r6, #8]
30008b78:	ea000103 	b	30008f8c <parse_stream_outer+0x46c>
30008b7c:	e5963004 	ldr	r3, [r6, #4]
30008b80:	e3530000 	cmp	r3, #0	; 0x0
30008b84:	e59f355c 	ldr	r3, [pc, #1372]	; 300090e8 <parse_stream_outer+0x5c8>
30008b88:	e0833005 	add	r3, r3, r5
30008b8c:	e5d34016 	ldrb	r4, [r3, #22]
30008b90:	0a000104 	beq	30008fa8 <parse_stream_outer+0x488>
30008b94:	e355000a 	cmp	r5, #10	; 0xa
30008b98:	03a07000 	moveq	r7, #0	; 0x0
30008b9c:	0a000003 	beq	30008bb0 <parse_stream_outer+0x90>
30008ba0:	e1a00006 	mov	r0, r6
30008ba4:	e1a0e00f 	mov	lr, pc
30008ba8:	e596f010 	ldr	pc, [r6, #16]
30008bac:	e1a07000 	mov	r7, r0
30008bb0:	e3540000 	cmp	r4, #0	; 0x0
30008bb4:	0a000005 	beq	30008bd0 <parse_stream_outer+0xb0>
30008bb8:	e2443001 	sub	r3, r4, #1	; 0x1
30008bbc:	e3530001 	cmp	r3, #1	; 0x1
30008bc0:	8a000005 	bhi	30008bdc <parse_stream_outer+0xbc>
30008bc4:	e59d3028 	ldr	r3, [sp, #40]
30008bc8:	e3530000 	cmp	r3, #0	; 0x0
30008bcc:	0a000002 	beq	30008bdc <parse_stream_outer+0xbc>
30008bd0:	e1a01005 	mov	r1, r5
30008bd4:	e28d001c 	add	r0, sp, #28	; 0x1c
30008bd8:	ea000040 	b	30008ce0 <parse_stream_outer+0x1c0>
30008bdc:	e3540002 	cmp	r4, #2	; 0x2
30008be0:	1a00000b 	bne	30008c14 <parse_stream_outer+0xf4>
30008be4:	e28d001c 	add	r0, sp, #28	; 0x1c
30008be8:	e1a0100d 	mov	r1, sp
30008bec:	ebfffe64 	bl	30008584 <done_word>
30008bf0:	e3500000 	cmp	r0, #0	; 0x0
30008bf4:	e1a0a00d 	mov	sl, sp
30008bf8:	1a0000ea 	bne	30008fa8 <parse_stream_outer+0x488>
30008bfc:	e355000a 	cmp	r5, #10	; 0xa
30008c00:	1a0000e1 	bne	30008f8c <parse_stream_outer+0x46c>
30008c04:	e1a0000d 	mov	r0, sp
30008c08:	e3a01001 	mov	r1, #1	; 0x1
30008c0c:	ebfffdde 	bl	3000838c <done_pipe>
30008c10:	ea000001 	b	30008c1c <parse_stream_outer+0xfc>
30008c14:	e355000a 	cmp	r5, #10	; 0xa
30008c18:	1a000008 	bne	30008c40 <parse_stream_outer+0x120>
30008c1c:	e59d3028 	ldr	r3, [sp, #40]
30008c20:	e3530000 	cmp	r3, #0	; 0x0
30008c24:	1a000003 	bne	30008c38 <parse_stream_outer+0x118>
30008c28:	e59d300c 	ldr	r3, [sp, #12]
30008c2c:	e3530000 	cmp	r3, #0	; 0x0
30008c30:	01a07003 	moveq	r7, r3
30008c34:	0a000126 	beq	300090d4 <parse_stream_outer+0x5b4>
30008c38:	e3540002 	cmp	r4, #2	; 0x2
30008c3c:	0a0000d2 	beq	30008f8c <parse_stream_outer+0x46c>
30008c40:	e3550026 	cmp	r5, #38	; 0x26
30008c44:	0a0000b5 	beq	30008f20 <parse_stream_outer+0x400>
30008c48:	8a000006 	bhi	30008c68 <parse_stream_outer+0x148>
30008c4c:	e3550023 	cmp	r5, #35	; 0x23
30008c50:	0a00000f 	beq	30008c94 <parse_stream_outer+0x174>
30008c54:	e3550024 	cmp	r5, #36	; 0x24
30008c58:	0a000030 	beq	30008d20 <parse_stream_outer+0x200>
30008c5c:	e3550022 	cmp	r5, #34	; 0x22
30008c60:	1a0000c7 	bne	30008f84 <parse_stream_outer+0x464>
30008c64:	ea00009f 	b	30008ee8 <parse_stream_outer+0x3c8>
30008c68:	e355003b 	cmp	r5, #59	; 0x3b
30008c6c:	0a0000a4 	beq	30008f04 <parse_stream_outer+0x3e4>
30008c70:	8a000002 	bhi	30008c80 <parse_stream_outer+0x160>
30008c74:	e3550027 	cmp	r5, #39	; 0x27
30008c78:	1a0000c1 	bne	30008f84 <parse_stream_outer+0x464>
30008c7c:	ea000086 	b	30008e9c <parse_stream_outer+0x37c>
30008c80:	e355005c 	cmp	r5, #92	; 0x5c
30008c84:	0a000018 	beq	30008cec <parse_stream_outer+0x1cc>
30008c88:	e355007c 	cmp	r5, #124	; 0x7c
30008c8c:	1a0000bc 	bne	30008f84 <parse_stream_outer+0x464>
30008c90:	ea0000ae 	b	30008f50 <parse_stream_outer+0x430>
30008c94:	e59d3020 	ldr	r3, [sp, #32]
30008c98:	e3530000 	cmp	r3, #0	; 0x0
30008c9c:	1a00000d 	bne	30008cd8 <parse_stream_outer+0x1b8>
30008ca0:	e59d3028 	ldr	r3, [sp, #40]
30008ca4:	e3530000 	cmp	r3, #0	; 0x0
30008ca8:	1a00000a 	bne	30008cd8 <parse_stream_outer+0x1b8>
30008cac:	ea000001 	b	30008cb8 <parse_stream_outer+0x198>
30008cb0:	e1a0e00f 	mov	lr, pc
30008cb4:	e596f00c 	ldr	pc, [r6, #12]
30008cb8:	e1a00006 	mov	r0, r6
30008cbc:	e1a0e00f 	mov	lr, pc
30008cc0:	e596f010 	ldr	pc, [r6, #16]
30008cc4:	e350000a 	cmp	r0, #10	; 0xa
30008cc8:	13700001 	cmnne	r0, #1	; 0x1
30008ccc:	e1a00006 	mov	r0, r6
30008cd0:	1afffff6 	bne	30008cb0 <parse_stream_outer+0x190>
30008cd4:	ea0000ac 	b	30008f8c <parse_stream_outer+0x46c>
30008cd8:	e28d001c 	add	r0, sp, #28	; 0x1c
30008cdc:	e3a01023 	mov	r1, #35	; 0x23
30008ce0:	e59d2028 	ldr	r2, [sp, #40]
30008ce4:	ebfffe86 	bl	30008704 <b_addqchr>
30008ce8:	ea0000a7 	b	30008f8c <parse_stream_outer+0x46c>
30008cec:	e3770001 	cmn	r7, #1	; 0x1
30008cf0:	0a0000a3 	beq	30008f84 <parse_stream_outer+0x464>
30008cf4:	e28d401c 	add	r4, sp, #28	; 0x1c
30008cf8:	e1a01005 	mov	r1, r5
30008cfc:	e59d2028 	ldr	r2, [sp, #40]
30008d00:	e1a00004 	mov	r0, r4
30008d04:	ebfffe7e 	bl	30008704 <b_addqchr>
30008d08:	e1a00006 	mov	r0, r6
30008d0c:	e1a0e00f 	mov	lr, pc
30008d10:	e596f00c 	ldr	pc, [r6, #12]
30008d14:	e1a01000 	mov	r1, r0
30008d18:	e1a00004 	mov	r0, r4
30008d1c:	eaffffef 	b	30008ce0 <parse_stream_outer+0x1c0>
30008d20:	e1a00006 	mov	r0, r6
30008d24:	e1a0e00f 	mov	lr, pc
30008d28:	e596f010 	ldr	pc, [r6, #16]
30008d2c:	e59f23b8 	ldr	r2, [pc, #952]	; 300090ec <parse_stream_outer+0x5cc>
30008d30:	e20030ff 	and	r3, r0, #255	; 0xff
30008d34:	e7d23003 	ldrb	r3, [r2, r3]
30008d38:	e3130003 	tst	r3, #3	; 0x3
30008d3c:	e1a07000 	mov	r7, r0
30008d40:	0a00001d 	beq	30008dbc <parse_stream_outer+0x29c>
30008d44:	e28d001c 	add	r0, sp, #28	; 0x1c
30008d48:	e3a01003 	mov	r1, #3	; 0x3
30008d4c:	ebfffdee 	bl	3000850c <b_addchr>
30008d50:	e59d2000 	ldr	r2, [sp]
30008d54:	e592300c 	ldr	r3, [r2, #12]
30008d58:	e2833001 	add	r3, r3, #1	; 0x1
30008d5c:	e582300c 	str	r3, [r2, #12]
30008d60:	ea000004 	b	30008d78 <parse_stream_outer+0x258>
30008d64:	e1a0e00f 	mov	lr, pc
30008d68:	e596f00c 	ldr	pc, [r6, #12]
30008d6c:	e1a00004 	mov	r0, r4
30008d70:	e1a01005 	mov	r1, r5
30008d74:	ebfffde4 	bl	3000850c <b_addchr>
30008d78:	e1a00006 	mov	r0, r6
30008d7c:	e1a0e00f 	mov	lr, pc
30008d80:	e596f010 	ldr	pc, [r6, #16]
30008d84:	e59f3360 	ldr	r3, [pc, #864]	; 300090ec <parse_stream_outer+0x5cc>
30008d88:	e1a05000 	mov	r5, r0
30008d8c:	e20520ff 	and	r2, r5, #255	; 0xff
30008d90:	e7d33002 	ldrb	r3, [r3, r2]
30008d94:	e2133007 	ands	r3, r3, #7	; 0x7
30008d98:	13a03001 	movne	r3, #1	; 0x1
30008d9c:	e355005f 	cmp	r5, #95	; 0x5f
30008da0:	03833001 	orreq	r3, r3, #1	; 0x1
30008da4:	e3530000 	cmp	r3, #0	; 0x0
30008da8:	e1a00006 	mov	r0, r6
30008dac:	e28d401c 	add	r4, sp, #28	; 0x1c
30008db0:	1affffeb 	bne	30008d64 <parse_stream_outer+0x244>
30008db4:	e1a00004 	mov	r0, r4
30008db8:	ea000034 	b	30008e90 <parse_stream_outer+0x370>
30008dbc:	e350003f 	cmp	r0, #63	; 0x3f
30008dc0:	0a000005 	beq	30008ddc <parse_stream_outer+0x2bc>
30008dc4:	e350007b 	cmp	r0, #123	; 0x7b
30008dc8:	e28d401c 	add	r4, sp, #28	; 0x1c
30008dcc:	11a00004 	movne	r0, r4
30008dd0:	11a01005 	movne	r1, r5
30008dd4:	1affffc1 	bne	30008ce0 <parse_stream_outer+0x1c0>
30008dd8:	ea000014 	b	30008e30 <parse_stream_outer+0x310>
30008ddc:	e59d3000 	ldr	r3, [sp]
30008de0:	e593200c 	ldr	r2, [r3, #12]
30008de4:	e28d401c 	add	r4, sp, #28	; 0x1c
30008de8:	e2822001 	add	r2, r2, #1	; 0x1
30008dec:	e583200c 	str	r2, [r3, #12]
30008df0:	e1a00004 	mov	r0, r4
30008df4:	e3a01003 	mov	r1, #3	; 0x3
30008df8:	ebfffdc3 	bl	3000850c <b_addchr>
30008dfc:	e1a01005 	mov	r1, r5
30008e00:	e1a00004 	mov	r0, r4
30008e04:	ebfffdc0 	bl	3000850c <b_addchr>
30008e08:	e1a01007 	mov	r1, r7
30008e0c:	e1a00004 	mov	r0, r4
30008e10:	ebfffdbd 	bl	3000850c <b_addchr>
30008e14:	e1a00004 	mov	r0, r4
30008e18:	e3a01003 	mov	r1, #3	; 0x3
30008e1c:	ebfffdba 	bl	3000850c <b_addchr>
30008e20:	e1a00006 	mov	r0, r6
30008e24:	e1a0e00f 	mov	lr, pc
30008e28:	e596f00c 	ldr	pc, [r6, #12]
30008e2c:	ea000056 	b	30008f8c <parse_stream_outer+0x46c>
30008e30:	e1a00004 	mov	r0, r4
30008e34:	e3a01003 	mov	r1, #3	; 0x3
30008e38:	ebfffdb3 	bl	3000850c <b_addchr>
30008e3c:	e59d2000 	ldr	r2, [sp]
30008e40:	e592300c 	ldr	r3, [r2, #12]
30008e44:	e2833001 	add	r3, r3, #1	; 0x1
30008e48:	e582300c 	str	r3, [r2, #12]
30008e4c:	e1a00006 	mov	r0, r6
30008e50:	e1a0e00f 	mov	lr, pc
30008e54:	e596f00c 	ldr	pc, [r6, #12]
30008e58:	ea000000 	b	30008e60 <parse_stream_outer+0x340>
30008e5c:	ebfffdaa 	bl	3000850c <b_addchr>
30008e60:	e1a00006 	mov	r0, r6
30008e64:	e1a0e00f 	mov	lr, pc
30008e68:	e596f00c 	ldr	pc, [r6, #12]
30008e6c:	e1a03000 	mov	r3, r0
30008e70:	e353007d 	cmp	r3, #125	; 0x7d
30008e74:	13730001 	cmnne	r3, #1	; 0x1
30008e78:	e1a01000 	mov	r1, r0
30008e7c:	e28d001c 	add	r0, sp, #28	; 0x1c
30008e80:	1afffff5 	bne	30008e5c <parse_stream_outer+0x33c>
30008e84:	e353007d 	cmp	r3, #125	; 0x7d
30008e88:	1a00003d 	bne	30008f84 <parse_stream_outer+0x464>
30008e8c:	e28d001c 	add	r0, sp, #28	; 0x1c
30008e90:	e3a01003 	mov	r1, #3	; 0x3
30008e94:	ebfffd9c 	bl	3000850c <b_addchr>
30008e98:	ea00003b 	b	30008f8c <parse_stream_outer+0x46c>
30008e9c:	e3a03001 	mov	r3, #1	; 0x1
30008ea0:	e58d302c 	str	r3, [sp, #44]
30008ea4:	ea000003 	b	30008eb8 <parse_stream_outer+0x398>
30008ea8:	e5963004 	ldr	r3, [r6, #4]
30008eac:	e3530000 	cmp	r3, #0	; 0x0
30008eb0:	0a00003c 	beq	30008fa8 <parse_stream_outer+0x488>
30008eb4:	ebfffd94 	bl	3000850c <b_addchr>
30008eb8:	e1a00006 	mov	r0, r6
30008ebc:	e1a0e00f 	mov	lr, pc
30008ec0:	e596f00c 	ldr	pc, [r6, #12]
30008ec4:	e1a03000 	mov	r3, r0
30008ec8:	e3530027 	cmp	r3, #39	; 0x27
30008ecc:	13730001 	cmnne	r3, #1	; 0x1
30008ed0:	e1a01000 	mov	r1, r0
30008ed4:	e28d001c 	add	r0, sp, #28	; 0x1c
30008ed8:	1afffff2 	bne	30008ea8 <parse_stream_outer+0x388>
30008edc:	e3730001 	cmn	r3, #1	; 0x1
30008ee0:	1a000029 	bne	30008f8c <parse_stream_outer+0x46c>
30008ee4:	ea000026 	b	30008f84 <parse_stream_outer+0x464>
30008ee8:	e59d3028 	ldr	r3, [sp, #40]
30008eec:	e3a02001 	mov	r2, #1	; 0x1
30008ef0:	e2733001 	rsbs	r3, r3, #1	; 0x1
30008ef4:	33a03000 	movcc	r3, #0	; 0x0
30008ef8:	e58d202c 	str	r2, [sp, #44]
30008efc:	e58d3028 	str	r3, [sp, #40]
30008f00:	ea000021 	b	30008f8c <parse_stream_outer+0x46c>
30008f04:	e1a0100d 	mov	r1, sp
30008f08:	e28d001c 	add	r0, sp, #28	; 0x1c
30008f0c:	ebfffd9c 	bl	30008584 <done_word>
30008f10:	e1a0400d 	mov	r4, sp
30008f14:	e1a0000d 	mov	r0, sp
30008f18:	e3a01001 	mov	r1, #1	; 0x1
30008f1c:	ea000016 	b	30008f7c <parse_stream_outer+0x45c>
30008f20:	e28d001c 	add	r0, sp, #28	; 0x1c
30008f24:	e1a0100d 	mov	r1, sp
30008f28:	ebfffd95 	bl	30008584 <done_word>
30008f2c:	e3570026 	cmp	r7, #38	; 0x26
30008f30:	e1a0400d 	mov	r4, sp
30008f34:	1a000012 	bne	30008f84 <parse_stream_outer+0x464>
30008f38:	e1a00006 	mov	r0, r6
30008f3c:	e1a0e00f 	mov	lr, pc
30008f40:	e596f00c 	ldr	pc, [r6, #12]
30008f44:	e1a0000d 	mov	r0, sp
30008f48:	e3a01002 	mov	r1, #2	; 0x2
30008f4c:	ea00000a 	b	30008f7c <parse_stream_outer+0x45c>
30008f50:	e28d001c 	add	r0, sp, #28	; 0x1c
30008f54:	e1a0100d 	mov	r1, sp
30008f58:	ebfffd89 	bl	30008584 <done_word>
30008f5c:	e357007c 	cmp	r7, #124	; 0x7c
30008f60:	e1a0400d 	mov	r4, sp
30008f64:	1a000006 	bne	30008f84 <parse_stream_outer+0x464>
30008f68:	e1a00006 	mov	r0, r6
30008f6c:	e1a0e00f 	mov	lr, pc
30008f70:	e596f00c 	ldr	pc, [r6, #12]
30008f74:	e1a0000d 	mov	r0, sp
30008f78:	e3a01003 	mov	r1, #3	; 0x3
30008f7c:	ebfffd02 	bl	3000838c <done_pipe>
30008f80:	ea000001 	b	30008f8c <parse_stream_outer+0x46c>
30008f84:	ebfffb88 	bl	30007dac <syntax_err>
30008f88:	ea000006 	b	30008fa8 <parse_stream_outer+0x488>
30008f8c:	e1a00006 	mov	r0, r6
30008f90:	e1a0e00f 	mov	lr, pc
30008f94:	e596f00c 	ldr	pc, [r6, #12]
30008f98:	e3700001 	cmn	r0, #1	; 0x1
30008f9c:	e1a05000 	mov	r5, r0
30008fa0:	1afffef5 	bne	30008b7c <parse_stream_outer+0x5c>
30008fa4:	ea000049 	b	300090d0 <parse_stream_outer+0x5b0>
30008fa8:	e59f3138 	ldr	r3, [pc, #312]	; 300090e8 <parse_stream_outer+0x5c8>
30008fac:	e3a02000 	mov	r2, #0	; 0x0
30008fb0:	e583211c 	str	r2, [r3, #284]
30008fb4:	e3a07001 	mov	r7, #1	; 0x1
30008fb8:	ea000023 	b	3000904c <parse_stream_outer+0x52c>
30008fbc:	ebfffb7a 	bl	30007dac <syntax_err>
30008fc0:	e59f3120 	ldr	r3, [pc, #288]	; 300090e8 <parse_stream_outer+0x5c8>
30008fc4:	e3a02000 	mov	r2, #0	; 0x0
30008fc8:	e583211c 	str	r2, [r3, #284]
30008fcc:	ea00003b 	b	300090c0 <parse_stream_outer+0x5a0>
30008fd0:	e28da01c 	add	sl, sp, #28	; 0x1c
30008fd4:	e1a0100d 	mov	r1, sp
30008fd8:	e1a0000a 	mov	r0, sl
30008fdc:	ebfffd68 	bl	30008584 <done_word>
30008fe0:	e3a01001 	mov	r1, #1	; 0x1
30008fe4:	e1a0000d 	mov	r0, sp
30008fe8:	ebfffce7 	bl	3000838c <done_pipe>
30008fec:	e59d4004 	ldr	r4, [sp, #4]
30008ff0:	e1a00004 	mov	r0, r4
30008ff4:	eb000083 	bl	30009208 <run_list_real>
30008ff8:	e1a01005 	mov	r1, r5
30008ffc:	e1a09000 	mov	r9, r0
30009000:	e1a00004 	mov	r0, r4
30009004:	ebfffc3f 	bl	30008108 <free_pipe_list>
30009008:	e3790002 	cmn	r9, #2	; 0x2
3000900c:	1a00000a 	bne	3000903c <parse_stream_outer+0x51c>
30009010:	e1a0000a 	mov	r0, sl
30009014:	ebfffc74 	bl	300081ec <b_free>
30009018:	e5962010 	ldr	r2, [r6, #16]
3000901c:	e59f30cc 	ldr	r3, [pc, #204]	; 300090f0 <parse_stream_outer+0x5d0>
30009020:	e1520003 	cmp	r2, r3
30009024:	11a09005 	movne	r9, r5
30009028:	1a000020 	bne	300090b0 <parse_stream_outer+0x590>
3000902c:	e59f00c0 	ldr	r0, [pc, #192]	; 300090f4 <parse_stream_outer+0x5d4>
30009030:	ebfff4b3 	bl	30006304 <printf>
30009034:	e1a09005 	mov	r9, r5
30009038:	ea000018 	b	300090a0 <parse_stream_outer+0x580>
3000903c:	e3790001 	cmn	r9, #1	; 0x1
30009040:	059f30a0 	ldreq	r3, [pc, #160]	; 300090e8 <parse_stream_outer+0x5c8>
30009044:	0583511c 	streq	r5, [r3, #284]
30009048:	ea000012 	b	30009098 <parse_stream_outer+0x578>
3000904c:	e59d3010 	ldr	r3, [sp, #16]
30009050:	e3530000 	cmp	r3, #0	; 0x0
30009054:	0a000003 	beq	30009068 <parse_stream_outer+0x548>
30009058:	e59d0014 	ldr	r0, [sp, #20]
3000905c:	ebfff596 	bl	300066bc <free>
30009060:	e28d001c 	add	r0, sp, #28	; 0x1c
30009064:	ebfffaf6 	bl	30007c44 <b_reset>
30009068:	e5963004 	ldr	r3, [r6, #4]
3000906c:	e3530000 	cmp	r3, #0	; 0x0
30009070:	059f0080 	ldreq	r0, [pc, #128]	; 300090f8 <parse_stream_outer+0x5d8>
30009074:	0bfff4a2 	bleq	30006304 <printf>
30009078:	e3a02000 	mov	r2, #0	; 0x0
3000907c:	e3a03001 	mov	r3, #1	; 0x1
30009080:	e886000c 	stm	r6, {r2, r3}
30009084:	e1a01002 	mov	r1, r2
30009088:	e59d0004 	ldr	r0, [sp, #4]
3000908c:	e58d202c 	str	r2, [sp, #44]
30009090:	e58d2028 	str	r2, [sp, #40]
30009094:	ebfffc1b 	bl	30008108 <free_pipe_list>
30009098:	e28d001c 	add	r0, sp, #28	; 0x1c
3000909c:	ebfffc52 	bl	300081ec <b_free>
300090a0:	e3770001 	cmn	r7, #1	; 0x1
300090a4:	0a000001 	beq	300090b0 <parse_stream_outer+0x590>
300090a8:	e31b0001 	tst	fp, #1	; 0x1
300090ac:	0afffea4 	beq	30008b44 <parse_stream_outer+0x24>
300090b0:	e2590000 	subs	r0, r9, #0	; 0x0
300090b4:	13a00001 	movne	r0, #1	; 0x1
300090b8:	e28dd030 	add	sp, sp, #48	; 0x30
300090bc:	e8bd8ef0 	pop	{r4, r5, r6, r7, r9, sl, fp, pc}
300090c0:	e59d5010 	ldr	r5, [sp, #16]
300090c4:	e3550000 	cmp	r5, #0	; 0x0
300090c8:	1affffdf 	bne	3000904c <parse_stream_outer+0x52c>
300090cc:	eaffffbf 	b	30008fd0 <parse_stream_outer+0x4b0>
300090d0:	e1a07000 	mov	r7, r0
300090d4:	e59d3010 	ldr	r3, [sp, #16]
300090d8:	e3530000 	cmp	r3, #0	; 0x0
300090dc:	0afffff7 	beq	300090c0 <parse_stream_outer+0x5a0>
300090e0:	eaffffb5 	b	30008fbc <parse_stream_outer+0x49c>
300090e4:	3001a0a2 	.word	0x3001a0a2
300090e8:	3001c470 	.word	0x3001c470
300090ec:	3001bc30 	.word	0x3001bc30
300090f0:	30007cdc 	.word	0x30007cdc
300090f4:	3001a0a7 	.word	0x3001a0a7
300090f8:	3001a0d0 	.word	0x3001a0d0

300090fc <parse_file_outer>:
300090fc:	e92d407f 	push	{r0, r1, r2, r3, r4, r5, r6, lr}
30009100:	e3a03000 	mov	r3, #0	; 0x0
30009104:	e28d0018 	add	r0, sp, #24	; 0x18
30009108:	e5203014 	str	r3, [r0, #-20]!
3000910c:	e59f3024 	ldr	r3, [pc, #36]	; 30009138 <parse_file_outer+0x3c>
30009110:	e58d3014 	str	r3, [sp, #20]
30009114:	e59f3020 	ldr	r3, [pc, #32]	; 3000913c <parse_file_outer+0x40>
30009118:	e3a02001 	mov	r2, #1	; 0x1
3000911c:	e3a01002 	mov	r1, #2	; 0x2
30009120:	e58d3010 	str	r3, [sp, #16]
30009124:	e58d200c 	str	r2, [sp, #12]
30009128:	e58d2008 	str	r2, [sp, #8]
3000912c:	ebfffe7b 	bl	30008b20 <parse_stream_outer>
30009130:	e28dd01c 	add	sp, sp, #28	; 0x1c
30009134:	e8bd8000 	pop	{pc}
30009138:	30007cdc 	.word	0x30007cdc
3000913c:	30007f38 	.word	0x30007f38

30009140 <parse_string_outer>:
30009140:	e92d4070 	push	{r4, r5, r6, lr}
30009144:	e2505000 	subs	r5, r0, #0	; 0x0
30009148:	e24dd018 	sub	sp, sp, #24	; 0x18
3000914c:	e1a06001 	mov	r6, r1
30009150:	0a000027 	beq	300091f4 <parse_string_outer+0xb4>
30009154:	e5d53000 	ldrb	r3, [r5]
30009158:	e3530000 	cmp	r3, #0	; 0x0
3000915c:	0a000024 	beq	300091f4 <parse_string_outer+0xb4>
30009160:	e3a0100a 	mov	r1, #10	; 0xa
30009164:	eb0010b3 	bl	3000d438 <strchr>
30009168:	e3500000 	cmp	r0, #0	; 0x0
3000916c:	0a000002 	beq	3000917c <parse_string_outer+0x3c>
30009170:	e5d03001 	ldrb	r3, [r0, #1]
30009174:	e3530000 	cmp	r3, #0	; 0x0
30009178:	0a000014 	beq	300091d0 <parse_string_outer+0x90>
3000917c:	e1a00005 	mov	r0, r5
30009180:	eb0010b7 	bl	3000d464 <strlen>
30009184:	e2800002 	add	r0, r0, #2	; 0x2
30009188:	ebfffb58 	bl	30007ef0 <xmalloc>
3000918c:	e1a01005 	mov	r1, r5
30009190:	e1a04000 	mov	r4, r0
30009194:	e28d5004 	add	r5, sp, #4	; 0x4
30009198:	eb00104d 	bl	3000d2d4 <strcpy>
3000919c:	e1a00004 	mov	r0, r4
300091a0:	e59f105c 	ldr	r1, [pc, #92]	; 30009204 <parse_string_outer+0xc4>
300091a4:	eb00105b 	bl	3000d318 <strcat>
300091a8:	e1a00005 	mov	r0, r5
300091ac:	e1a01004 	mov	r1, r4
300091b0:	ebfffacc 	bl	30007ce8 <setup_string_in_str>
300091b4:	e1a00005 	mov	r0, r5
300091b8:	e1a01006 	mov	r1, r6
300091bc:	ebfffe57 	bl	30008b20 <parse_stream_outer>
300091c0:	e1a05000 	mov	r5, r0
300091c4:	e1a00004 	mov	r0, r4
300091c8:	ebfff53b 	bl	300066bc <free>
300091cc:	ea000009 	b	300091f8 <parse_string_outer+0xb8>
300091d0:	e28d4004 	add	r4, sp, #4	; 0x4
300091d4:	e1a01005 	mov	r1, r5
300091d8:	e1a00004 	mov	r0, r4
300091dc:	ebfffac1 	bl	30007ce8 <setup_string_in_str>
300091e0:	e1a00004 	mov	r0, r4
300091e4:	e1a01006 	mov	r1, r6
300091e8:	ebfffe4c 	bl	30008b20 <parse_stream_outer>
300091ec:	e1a05000 	mov	r5, r0
300091f0:	ea000000 	b	300091f8 <parse_string_outer+0xb8>
300091f4:	e3a05001 	mov	r5, #1	; 0x1
300091f8:	e1a00005 	mov	r0, r5
300091fc:	e28dd018 	add	sp, sp, #24	; 0x18
30009200:	e8bd8070 	pop	{r4, r5, r6, pc}
30009204:	3001a096 	.word	0x3001a096

30009208 <run_list_real>:
30009208:	e92d4ef0 	push	{r4, r5, r6, r7, r9, sl, fp, lr}
3000920c:	e1a02000 	mov	r2, r0
30009210:	e24dd040 	sub	sp, sp, #64	; 0x40
30009214:	e1a09000 	mov	r9, r0
30009218:	ea000020 	b	300092a0 <run_list_real+0x98>
3000921c:	e5923010 	ldr	r3, [r2, #16]
30009220:	e3530006 	cmp	r3, #6	; 0x6
30009224:	1353000c 	cmpne	r3, #12	; 0xc
30009228:	1a00000f 	bne	3000926c <run_list_real+0x64>
3000922c:	e5924008 	ldr	r4, [r2, #8]
30009230:	e3540000 	cmp	r4, #0	; 0x0
30009234:	1a000003 	bne	30009248 <run_list_real+0x40>
30009238:	ebfffadb 	bl	30007dac <syntax_err>
3000923c:	e59f3754 	ldr	r3, [pc, #1876]	; 30009998 <run_list_real+0x790>
30009240:	e583411c 	str	r4, [r3, #284]
30009244:	ea000012 	b	30009294 <run_list_real+0x8c>
30009248:	e353000c 	cmp	r3, #12	; 0xc
3000924c:	1a000006 	bne	3000926c <run_list_real+0x64>
30009250:	e5943010 	ldr	r3, [r4, #16]
30009254:	e353000c 	cmp	r3, #12	; 0xc
30009258:	1a00000f 	bne	3000929c <run_list_real+0x94>
3000925c:	e5943004 	ldr	r3, [r4, #4]
30009260:	e5933000 	ldr	r3, [r3]
30009264:	e3530000 	cmp	r3, #0	; 0x0
30009268:	ea000004 	b	30009280 <run_list_real+0x78>
3000926c:	e3530006 	cmp	r3, #6	; 0x6
30009270:	1a000009 	bne	3000929c <run_list_real+0x94>
30009274:	e5923008 	ldr	r3, [r2, #8]
30009278:	e5933010 	ldr	r3, [r3, #16]
3000927c:	e353000c 	cmp	r3, #12	; 0xc
30009280:	0a000005 	beq	3000929c <run_list_real+0x94>
30009284:	ebfffac8 	bl	30007dac <syntax_err>
30009288:	e59f3708 	ldr	r3, [pc, #1800]	; 30009998 <run_list_real+0x790>
3000928c:	e3a02000 	mov	r2, #0	; 0x0
30009290:	e583211c 	str	r2, [r3, #284]
30009294:	e3a0a001 	mov	sl, #1	; 0x1
30009298:	ea0001b7 	b	3000997c <run_list_real+0x774>
3000929c:	e5922008 	ldr	r2, [r2, #8]
300092a0:	e3520000 	cmp	r2, #0	; 0x0
300092a4:	1affffdc 	bne	3000921c <run_list_real+0x14>
300092a8:	e58d2038 	str	r2, [sp, #56]
300092ac:	e58d2010 	str	r2, [sp, #16]
300092b0:	e1a0b002 	mov	fp, r2
300092b4:	e58d2014 	str	r2, [sp, #20]
300092b8:	e58d2018 	str	r2, [sp, #24]
300092bc:	e1a0a002 	mov	sl, r2
300092c0:	e3a04001 	mov	r4, #1	; 0x1
300092c4:	e58d201c 	str	r2, [sp, #28]
300092c8:	e58d2020 	str	r2, [sp, #32]
300092cc:	e58d2024 	str	r2, [sp, #36]
300092d0:	e3a0500b 	mov	r5, #11	; 0xb
300092d4:	ea0001a6 	b	30009974 <run_list_real+0x76c>
300092d8:	e5993010 	ldr	r3, [r9, #16]
300092dc:	e2433006 	sub	r3, r3, #6	; 0x6
300092e0:	e3530002 	cmp	r3, #2	; 0x2
300092e4:	8a000008 	bhi	3000930c <run_list_real+0x104>
300092e8:	ebfff49f 	bl	3000656c <ctrlc>
300092ec:	ebfff3b6 	bl	300061cc <had_ctrlc>
300092f0:	e3500000 	cmp	r0, #0	; 0x0
300092f4:	1affffe6 	bne	30009294 <run_list_real+0x8c>
300092f8:	e59d1038 	ldr	r1, [sp, #56]
300092fc:	e3510000 	cmp	r1, #0	; 0x0
30009300:	058d0018 	streq	r0, [sp, #24]
30009304:	058d9038 	streq	r9, [sp, #56]
30009308:	e58d001c 	str	r0, [sp, #28]
3000930c:	e5992010 	ldr	r2, [r9, #16]
30009310:	e1520005 	cmp	r2, r5
30009314:	13a03000 	movne	r3, #0	; 0x0
30009318:	02043001 	andeq	r3, r4, #1	; 0x1
3000931c:	e3530000 	cmp	r3, #0	; 0x0
30009320:	e58d2028 	str	r2, [sp, #40]
30009324:	0a000003 	beq	30009338 <run_list_real+0x130>
30009328:	e599300c 	ldr	r3, [r9, #12]
3000932c:	e2534001 	subs	r4, r3, #1	; 0x1
30009330:	13a04001 	movne	r4, #1	; 0x1
30009334:	ea00018a 	b	30009964 <run_list_real+0x75c>
30009338:	e59d0028 	ldr	r0, [sp, #40]
3000933c:	e3500002 	cmp	r0, #2	; 0x2
30009340:	13a03000 	movne	r3, #0	; 0x0
30009344:	03a03001 	moveq	r3, #1	; 0x1
30009348:	e3500004 	cmp	r0, #4	; 0x4
3000934c:	13a01000 	movne	r1, #0	; 0x0
30009350:	03a01001 	moveq	r1, #1	; 0x1
30009354:	e1932001 	orrs	r2, r3, r1
30009358:	e28d0020 	add	r0, sp, #32	; 0x20
3000935c:	e8900005 	ldm	r0, {r0, r2}
30009360:	11a00002 	movne	r0, r2
30009364:	e3500000 	cmp	r0, #0	; 0x0
30009368:	03a02000 	moveq	r2, #0	; 0x0
3000936c:	12032001 	andne	r2, r3, #1	; 0x1
30009370:	e3520000 	cmp	r2, #0	; 0x0
30009374:	e58d0020 	str	r0, [sp, #32]
30009378:	1a000177 	bne	3000995c <run_list_real+0x754>
3000937c:	e2703001 	rsbs	r3, r0, #1	; 0x1
30009380:	33a03000 	movcc	r3, #0	; 0x0
30009384:	e1110003 	tst	r1, r3
30009388:	158d2020 	strne	r2, [sp, #32]
3000938c:	1a000172 	bne	3000995c <run_list_real+0x754>
30009390:	e59d0028 	ldr	r0, [sp, #40]
30009394:	e3500003 	cmp	r0, #3	; 0x3
30009398:	13a00000 	movne	r0, #0	; 0x0
3000939c:	03a00001 	moveq	r0, #1	; 0x1
300093a0:	e0101003 	ands	r1, r0, r3
300093a4:	e58d0004 	str	r0, [sp, #4]
300093a8:	1a000173 	bne	3000997c <run_list_real+0x774>
300093ac:	e59d2028 	ldr	r2, [sp, #40]
300093b0:	e3520006 	cmp	r2, #6	; 0x6
300093b4:	1a000077 	bne	30009598 <run_list_real+0x390>
300093b8:	e5993000 	ldr	r3, [r9]
300093bc:	e3530000 	cmp	r3, #0	; 0x0
300093c0:	0a000088 	beq	300095e8 <run_list_real+0x3e0>
300093c4:	e35b0000 	cmp	fp, #0	; 0x0
300093c8:	1a000058 	bne	30009530 <run_list_real+0x328>
300093cc:	e5993008 	ldr	r3, [r9, #8]
300093d0:	e5933004 	ldr	r3, [r3, #4]
300093d4:	e5933000 	ldr	r3, [r3]
300093d8:	e3530000 	cmp	r3, #0	; 0x0
300093dc:	e58d3008 	str	r3, [sp, #8]
300093e0:	0a00015d 	beq	3000995c <run_list_real+0x754>
300093e4:	e5993004 	ldr	r3, [r9, #4]
300093e8:	e5933000 	ldr	r3, [r3]
300093ec:	e5933000 	ldr	r3, [r3]
300093f0:	e1a00003 	mov	r0, r3
300093f4:	e1a06001 	mov	r6, r1
300093f8:	e58d300c 	str	r3, [sp, #12]
300093fc:	eb001018 	bl	3000d464 <strlen>
30009400:	e58d0030 	str	r0, [sp, #48]
30009404:	e3a00004 	mov	r0, #4	; 0x4
30009408:	e58d6034 	str	r6, [sp, #52]
3000940c:	ebfffab7 	bl	30007ef0 <xmalloc>
30009410:	e1a0b000 	mov	fp, r0
30009414:	ea000037 	b	300094f8 <run_list_real+0x2f0>
30009418:	ebfffccc 	bl	30008750 <insert_var_value>
3000941c:	e58d002c 	str	r0, [sp, #44]
30009420:	e1a04000 	mov	r4, r0
30009424:	ea000025 	b	300094c0 <run_list_real+0x2b8>
30009428:	e3530020 	cmp	r3, #32	; 0x20
3000942c:	02844001 	addeq	r4, r4, #1	; 0x1
30009430:	0a000022 	beq	300094c0 <run_list_real+0x2b8>
30009434:	eb000fff 	bl	3000d438 <strchr>
30009438:	e2507000 	subs	r7, r0, #0	; 0x0
3000943c:	10645007 	rsbne	r5, r4, r7
30009440:	1a000003 	bne	30009454 <run_list_real+0x24c>
30009444:	e1a00004 	mov	r0, r4
30009448:	eb001005 	bl	3000d464 <strlen>
3000944c:	e1a05000 	mov	r5, r0
30009450:	e0847000 	add	r7, r4, r0
30009454:	e2861002 	add	r1, r6, #2	; 0x2
30009458:	e1a01101 	lsl	r1, r1, #2
3000945c:	e1a0000b 	mov	r0, fp
30009460:	ebfffb91 	bl	300082ac <xrealloc>
30009464:	e59d3030 	ldr	r3, [sp, #48]
30009468:	e1a0b000 	mov	fp, r0
3000946c:	e2830002 	add	r0, r3, #2	; 0x2
30009470:	e0800005 	add	r0, r0, r5
30009474:	ebfffa9d 	bl	30007ef0 <xmalloc>
30009478:	e59d100c 	ldr	r1, [sp, #12]
3000947c:	e78b0106 	str	r0, [fp, r6, lsl #2]
30009480:	eb000f93 	bl	3000d2d4 <strcpy>
30009484:	e79b0106 	ldr	r0, [fp, r6, lsl #2]
30009488:	e59f150c 	ldr	r1, [pc, #1292]	; 3000999c <run_list_real+0x794>
3000948c:	eb000fa1 	bl	3000d318 <strcat>
30009490:	e1a01004 	mov	r1, r4
30009494:	e79b0106 	ldr	r0, [fp, r6, lsl #2]
30009498:	e1a02005 	mov	r2, r5
3000949c:	eb000faa 	bl	3000d34c <strncat>
300094a0:	e79b3106 	ldr	r3, [fp, r6, lsl #2]
300094a4:	e59d0030 	ldr	r0, [sp, #48]
300094a8:	e0833005 	add	r3, r3, r5
300094ac:	e0833000 	add	r3, r3, r0
300094b0:	e3a02000 	mov	r2, #0	; 0x0
300094b4:	e5c32001 	strb	r2, [r3, #1]
300094b8:	e2866001 	add	r6, r6, #1	; 0x1
300094bc:	e1a04007 	mov	r4, r7
300094c0:	e5d43000 	ldrb	r3, [r4]
300094c4:	e3530000 	cmp	r3, #0	; 0x0
300094c8:	e3a01020 	mov	r1, #32	; 0x20
300094cc:	e1a00004 	mov	r0, r4
300094d0:	1affffd4 	bne	30009428 <run_list_real+0x220>
300094d4:	e59d2008 	ldr	r2, [sp, #8]
300094d8:	e59d1034 	ldr	r1, [sp, #52]
300094dc:	e59d002c 	ldr	r0, [sp, #44]
300094e0:	e7923001 	ldr	r3, [r2, r1]
300094e4:	e1500003 	cmp	r0, r3
300094e8:	1bfff473 	blne	300066bc <free>
300094ec:	e59d1034 	ldr	r1, [sp, #52]
300094f0:	e2811004 	add	r1, r1, #4	; 0x4
300094f4:	e58d1034 	str	r1, [sp, #52]
300094f8:	e59d3008 	ldr	r3, [sp, #8]
300094fc:	e59d2034 	ldr	r2, [sp, #52]
30009500:	e7930002 	ldr	r0, [r3, r2]
30009504:	e3500000 	cmp	r0, #0	; 0x0
30009508:	1affffc2 	bne	30009418 <run_list_real+0x210>
3000950c:	e5993004 	ldr	r3, [r9, #4]
30009510:	e78b0106 	str	r0, [fp, r6, lsl #2]
30009514:	e5933000 	ldr	r3, [r3]
30009518:	e5931000 	ldr	r1, [r3]
3000951c:	e3a02001 	mov	r2, #1	; 0x1
30009520:	e58d1010 	str	r1, [sp, #16]
30009524:	e5830000 	str	r0, [r3]
30009528:	e58db014 	str	fp, [sp, #20]
3000952c:	e58d2018 	str	r2, [sp, #24]
30009530:	e59b4000 	ldr	r4, [fp]
30009534:	e3540000 	cmp	r4, #0	; 0x0
30009538:	e5993004 	ldr	r3, [r9, #4]
3000953c:	1a00000c 	bne	30009574 <run_list_real+0x36c>
30009540:	e5933000 	ldr	r3, [r3]
30009544:	e5930000 	ldr	r0, [r3]
30009548:	ebfff45b 	bl	300066bc <free>
3000954c:	e59d0014 	ldr	r0, [sp, #20]
30009550:	ebfff459 	bl	300066bc <free>
30009554:	e5993004 	ldr	r3, [r9, #4]
30009558:	e59d0010 	ldr	r0, [sp, #16]
3000955c:	e5933000 	ldr	r3, [r3]
30009560:	e1a0b004 	mov	fp, r4
30009564:	e58d4018 	str	r4, [sp, #24]
30009568:	e5830000 	str	r0, [r3]
3000956c:	e2844001 	add	r4, r4, #1	; 0x1
30009570:	ea0000fa 	b	30009960 <run_list_real+0x758>
30009574:	e5933000 	ldr	r3, [r3]
30009578:	e5930000 	ldr	r0, [r3]
3000957c:	e3500000 	cmp	r0, #0	; 0x0
30009580:	1bfff44d 	blne	300066bc <free>
30009584:	e5993004 	ldr	r3, [r9, #4]
30009588:	e5932000 	ldr	r2, [r3]
3000958c:	e49b3004 	ldr	r3, [fp], #4
30009590:	e5823000 	str	r3, [r2]
30009594:	ea000013 	b	300095e8 <run_list_real+0x3e0>
30009598:	e59d1028 	ldr	r1, [sp, #40]
3000959c:	e351000c 	cmp	r1, #12	; 0xc
300095a0:	0a0000ed 	beq	3000995c <run_list_real+0x754>
300095a4:	e3510009 	cmp	r1, #9	; 0x9
300095a8:	1a000003 	bne	300095bc <run_list_real+0x3b4>
300095ac:	e59d2018 	ldr	r2, [sp, #24]
300095b0:	e3520000 	cmp	r2, #0	; 0x0
300095b4:	0a0000e8 	beq	3000995c <run_list_real+0x754>
300095b8:	ea00000a 	b	300095e8 <run_list_real+0x3e0>
300095bc:	e59d3028 	ldr	r3, [sp, #40]
300095c0:	e353000a 	cmp	r3, #10	; 0xa
300095c4:	1a000007 	bne	300095e8 <run_list_real+0x3e0>
300095c8:	e59d0018 	ldr	r0, [sp, #24]
300095cc:	e59d1038 	ldr	r1, [sp, #56]
300095d0:	e59d201c 	ldr	r2, [sp, #28]
300095d4:	e3500000 	cmp	r0, #0	; 0x0
300095d8:	03a01000 	moveq	r1, #0	; 0x0
300095dc:	13a02001 	movne	r2, #1	; 0x1
300095e0:	e58d1038 	str	r1, [sp, #56]
300095e4:	e58d201c 	str	r2, [sp, #28]
300095e8:	e5993000 	ldr	r3, [r9]
300095ec:	e3530000 	cmp	r3, #0	; 0x0
300095f0:	0a0000d9 	beq	3000995c <run_list_real+0x754>
300095f4:	e3530001 	cmp	r3, #1	; 0x1
300095f8:	e59f3398 	ldr	r3, [pc, #920]	; 30009998 <run_list_real+0x790>
300095fc:	e593a120 	ldr	sl, [r3, #288]
30009600:	1a0000e2 	bne	30009990 <run_list_real+0x788>
30009604:	e5995004 	ldr	r5, [r9, #4]
30009608:	e5950008 	ldr	r0, [r5, #8]
3000960c:	e3500000 	cmp	r0, #0	; 0x0
30009610:	0a000002 	beq	30009620 <run_list_real+0x418>
30009614:	ebfffefb 	bl	30009208 <run_list_real>
30009618:	e1a0a000 	mov	sl, r0
3000961c:	ea0000a8 	b	300098c4 <run_list_real+0x6bc>
30009620:	e5953000 	ldr	r3, [r5]
30009624:	e3530000 	cmp	r3, #0	; 0x0
30009628:	11a06000 	movne	r6, r0
3000962c:	1a000001 	bne	30009638 <run_list_real+0x430>
30009630:	ea0000d6 	b	30009990 <run_list_real+0x788>
30009634:	e2866001 	add	r6, r6, #1	; 0x1
30009638:	e5953000 	ldr	r3, [r5]
3000963c:	e7930106 	ldr	r0, [r3, r6, lsl #2]
30009640:	ebfff9b7 	bl	30007d24 <is_assignment>
30009644:	e3500000 	cmp	r0, #0	; 0x0
30009648:	e1a02106 	lsl	r2, r6, #2
3000964c:	1afffff8 	bne	30009634 <run_list_real+0x42c>
30009650:	e3560000 	cmp	r6, #0	; 0x0
30009654:	0a00002f 	beq	30009718 <run_list_real+0x510>
30009658:	e5953000 	ldr	r3, [r5]
3000965c:	e7933002 	ldr	r3, [r3, r2]
30009660:	e3530000 	cmp	r3, #0	; 0x0
30009664:	11a06000 	movne	r6, r0
30009668:	01a06003 	moveq	r6, r3
3000966c:	1a000029 	bne	30009718 <run_list_real+0x510>
30009670:	ea000014 	b	300096c8 <run_list_real+0x4c0>
30009674:	eb00109c 	bl	3000d8ec <strdup>
30009678:	e3a0103d 	mov	r1, #61	; 0x3d
3000967c:	e1a04000 	mov	r4, r0
30009680:	eb000f6c 	bl	3000d438 <strchr>
30009684:	e2502000 	subs	r2, r0, #0	; 0x0
30009688:	13a03000 	movne	r3, #0	; 0x0
3000968c:	15c23000 	strbne	r3, [r2]
30009690:	e1a00004 	mov	r0, r4
30009694:	ebfff408 	bl	300066bc <free>
30009698:	e5953000 	ldr	r3, [r5]
3000969c:	e7930006 	ldr	r0, [r3, r6]
300096a0:	ebfffc2a 	bl	30008750 <insert_var_value>
300096a4:	e3a01000 	mov	r1, #0	; 0x0
300096a8:	e1a04000 	mov	r4, r0
300096ac:	ebfffc93 	bl	30008900 <set_local_var>
300096b0:	e5953000 	ldr	r3, [r5]
300096b4:	e7933006 	ldr	r3, [r3, r6]
300096b8:	e1540003 	cmp	r4, r3
300096bc:	e1a00004 	mov	r0, r4
300096c0:	e2866004 	add	r6, r6, #4	; 0x4
300096c4:	1bfff3fc 	blne	300066bc <free>
300096c8:	e5953000 	ldr	r3, [r5]
300096cc:	e7933006 	ldr	r3, [r3, r6]
300096d0:	e2530000 	subs	r0, r3, #0	; 0x0
300096d4:	1affffe6 	bne	30009674 <run_list_real+0x46c>
300096d8:	ea0000aa 	b	30009988 <run_list_real+0x780>
300096dc:	e5953000 	ldr	r3, [r5]
300096e0:	e7930106 	ldr	r0, [r3, r6, lsl #2]
300096e4:	ebfffc19 	bl	30008750 <insert_var_value>
300096e8:	e3a01000 	mov	r1, #0	; 0x0
300096ec:	e1a04000 	mov	r4, r0
300096f0:	ebfffc82 	bl	30008900 <set_local_var>
300096f4:	e5953000 	ldr	r3, [r5]
300096f8:	e7933106 	ldr	r3, [r3, r6, lsl #2]
300096fc:	e1540003 	cmp	r4, r3
30009700:	e1a00004 	mov	r0, r4
30009704:	e2866001 	add	r6, r6, #1	; 0x1
30009708:	1595300c 	ldrne	r3, [r5, #12]
3000970c:	12433001 	subne	r3, r3, #1	; 0x1
30009710:	1585300c 	strne	r3, [r5, #12]
30009714:	1bfff3e8 	blne	300066bc <free>
30009718:	e5953000 	ldr	r3, [r5]
3000971c:	e7930106 	ldr	r0, [r3, r6, lsl #2]
30009720:	ebfff97f 	bl	30007d24 <is_assignment>
30009724:	e3500000 	cmp	r0, #0	; 0x0
30009728:	e1a04106 	lsl	r4, r6, #2
3000972c:	1affffea 	bne	300096dc <run_list_real+0x4d4>
30009730:	e595300c 	ldr	r3, [r5, #12]
30009734:	e3530000 	cmp	r3, #0	; 0x0
30009738:	e5953000 	ldr	r3, [r5]
3000973c:	0a000031 	beq	30009808 <run_list_real+0x600>
30009740:	e0833004 	add	r3, r3, r4
30009744:	e1a06000 	mov	r6, r0
30009748:	e58d303c 	str	r3, [sp, #60]
3000974c:	e3a0a002 	mov	sl, #2	; 0x2
30009750:	e1a05000 	mov	r5, r0
30009754:	e1a07000 	mov	r7, r0
30009758:	ea000018 	b	300097c0 <run_list_real+0x5b8>
3000975c:	ebfffbfb 	bl	30008750 <insert_var_value>
30009760:	e1a04000 	mov	r4, r0
30009764:	eb000f3e 	bl	3000d464 <strlen>
30009768:	e080100a 	add	r1, r0, sl
3000976c:	e1a00005 	mov	r0, r5
30009770:	ebfffacd 	bl	300082ac <xrealloc>
30009774:	e3560000 	cmp	r6, #0	; 0x0
30009778:	e1a05000 	mov	r5, r0
3000977c:	05c06000 	strbeq	r6, [r0]
30009780:	159f1218 	ldrne	r1, [pc, #536]	; 300099a0 <run_list_real+0x798>
30009784:	1b000ee3 	blne	3000d318 <strcat>
30009788:	e1a01004 	mov	r1, r4
3000978c:	e1a00005 	mov	r0, r5
30009790:	eb000ee0 	bl	3000d318 <strcat>
30009794:	e1a00005 	mov	r0, r5
30009798:	eb000f31 	bl	3000d464 <strlen>
3000979c:	e59d103c 	ldr	r1, [sp, #60]
300097a0:	e7913007 	ldr	r3, [r1, r7]
300097a4:	e1a02000 	mov	r2, r0
300097a8:	e1540003 	cmp	r4, r3
300097ac:	e1a00004 	mov	r0, r4
300097b0:	e282a003 	add	sl, r2, #3	; 0x3
300097b4:	e2866001 	add	r6, r6, #1	; 0x1
300097b8:	e2877004 	add	r7, r7, #4	; 0x4
300097bc:	1bfff3be 	blne	300066bc <free>
300097c0:	e59d203c 	ldr	r2, [sp, #60]
300097c4:	e7924007 	ldr	r4, [r2, r7]
300097c8:	e2540000 	subs	r0, r4, #0	; 0x0
300097cc:	1affffe2 	bne	3000975c <run_list_real+0x554>
300097d0:	e1a00005 	mov	r0, r5
300097d4:	eb000f22 	bl	3000d464 <strlen>
300097d8:	e1a03005 	mov	r3, r5
300097dc:	e3a0200a 	mov	r2, #10	; 0xa
300097e0:	e7e32000 	strb	r2, [r3, r0]!
300097e4:	e3a01005 	mov	r1, #5	; 0x5
300097e8:	e5c34001 	strb	r4, [r3, #1]
300097ec:	e1a00005 	mov	r0, r5
300097f0:	ebfffe52 	bl	30009140 <parse_string_outer>
300097f4:	e1a00005 	mov	r0, r5
300097f8:	ebfff3af 	bl	300066bc <free>
300097fc:	e59f3194 	ldr	r3, [pc, #404]	; 30009998 <run_list_real+0x790>
30009800:	e593a24c 	ldr	sl, [r3, #588]
30009804:	ea00002e 	b	300098c4 <run_list_real+0x6bc>
30009808:	e7930004 	ldr	r0, [r3, r4]
3000980c:	e3a0103b 	mov	r1, #59	; 0x3b
30009810:	eb000f08 	bl	3000d438 <strchr>
30009814:	e5953000 	ldr	r3, [r5]
30009818:	e3500000 	cmp	r0, #0	; 0x0
3000981c:	17931004 	ldrne	r1, [r3, r4]
30009820:	159f017c 	ldrne	r0, [pc, #380]	; 300099a4 <run_list_real+0x79c>
30009824:	1a000006 	bne	30009844 <run_list_real+0x63c>
30009828:	e7930004 	ldr	r0, [r3, r4]
3000982c:	ebfff066 	bl	300059cc <find_cmd>
30009830:	e2507000 	subs	r7, r0, #0	; 0x0
30009834:	1a000004 	bne	3000984c <run_list_real+0x644>
30009838:	e5953000 	ldr	r3, [r5]
3000983c:	e59f0164 	ldr	r0, [pc, #356]	; 300099a8 <run_list_real+0x7a0>
30009840:	e7931004 	ldr	r1, [r3, r4]
30009844:	ebfff2ae 	bl	30006304 <printf>
30009848:	ea000050 	b	30009990 <run_list_real+0x788>
3000984c:	e59f3158 	ldr	r3, [pc, #344]	; 300099ac <run_list_real+0x7a4>
30009850:	e597c00c 	ldr	ip, [r7, #12]
30009854:	e25a1000 	subs	r1, sl, #0	; 0x0
30009858:	13a01001 	movne	r1, #1	; 0x1
3000985c:	e15c0003 	cmp	ip, r3
30009860:	e5953004 	ldr	r3, [r5, #4]
30009864:	e5972004 	ldr	r2, [r7, #4]
30009868:	e0660003 	rsb	r0, r6, r3
3000986c:	03811002 	orreq	r1, r1, #2	; 0x2
30009870:	e1500002 	cmp	r0, r2
30009874:	da000002 	ble	30009884 <run_list_real+0x67c>
30009878:	e1a00007 	mov	r0, r7
3000987c:	ebffeff5 	bl	30005858 <cmd_usage>
30009880:	ea000042 	b	30009990 <run_list_real+0x788>
30009884:	e5953000 	ldr	r3, [r5]
30009888:	e0833004 	add	r3, r3, r4
3000988c:	e5853000 	str	r3, [r5]
30009890:	e1a02000 	mov	r2, r0
30009894:	e0833004 	add	r3, r3, r4
30009898:	e1a00007 	mov	r0, r7
3000989c:	e1a0e00f 	mov	lr, pc
300098a0:	e1a0f00c 	mov	pc, ip
300098a4:	e1a0a000 	mov	sl, r0
300098a8:	e5970008 	ldr	r0, [r7, #8]
300098ac:	e3500000 	cmp	r0, #0	; 0x0
300098b0:	059f30e0 	ldreq	r3, [pc, #224]	; 30009998 <run_list_real+0x790>
300098b4:	0583011c 	streq	r0, [r3, #284]
300098b8:	e5953000 	ldr	r3, [r5]
300098bc:	e0643003 	rsb	r3, r4, r3
300098c0:	e5853000 	str	r3, [r5]
300098c4:	e37a0001 	cmn	sl, #1	; 0x1
300098c8:	aa000005 	bge	300098e4 <run_list_real+0x6dc>
300098cc:	e3e03001 	mvn	r3, #1	; 0x1
300098d0:	e59f20c0 	ldr	r2, [pc, #192]	; 30009998 <run_list_real+0x790>
300098d4:	e06a3003 	rsb	r3, sl, r3
300098d8:	e582324c 	str	r3, [r2, #588]
300098dc:	e3e0a001 	mvn	sl, #1	; 0x1
300098e0:	ea000025 	b	3000997c <run_list_real+0x774>
300098e4:	e59d0028 	ldr	r0, [sp, #40]
300098e8:	e59d3004 	ldr	r3, [sp, #4]
300098ec:	e3500001 	cmp	r0, #1	; 0x1
300098f0:	03833001 	orreq	r3, r3, #1	; 0x1
300098f4:	e3530000 	cmp	r3, #0	; 0x0
300098f8:	e59f3098 	ldr	r3, [pc, #152]	; 30009998 <run_list_real+0x790>
300098fc:	e59d1024 	ldr	r1, [sp, #36]
30009900:	11a0100a 	movne	r1, sl
30009904:	e25a2000 	subs	r2, sl, #0	; 0x0
30009908:	13a02001 	movne	r2, #1	; 0x1
3000990c:	e3500007 	cmp	r0, #7	; 0x7
30009910:	e583224c 	str	r2, [r3, #588]
30009914:	02222001 	eoreq	r2, r2, #1	; 0x1
30009918:	e58d1024 	str	r1, [sp, #36]
3000991c:	058d2018 	streq	r2, [sp, #24]
30009920:	0a000004 	beq	30009938 <run_list_real+0x730>
30009924:	e59d0028 	ldr	r0, [sp, #40]
30009928:	e59d3018 	ldr	r3, [sp, #24]
3000992c:	e3500008 	cmp	r0, #8	; 0x8
30009930:	01a03002 	moveq	r3, r2
30009934:	e58d3018 	str	r3, [sp, #24]
30009938:	e35a0000 	cmp	sl, #0	; 0x0
3000993c:	e599300c 	ldr	r3, [r9, #12]
30009940:	1a000001 	bne	3000994c <run_list_real+0x744>
30009944:	e3530003 	cmp	r3, #3	; 0x3
30009948:	ea000000 	b	30009950 <run_list_real+0x748>
3000994c:	e3530002 	cmp	r3, #2	; 0x2
30009950:	059d5028 	ldreq	r5, [sp, #40]
30009954:	03a04001 	moveq	r4, #1	; 0x1
30009958:	0a000001 	beq	30009964 <run_list_real+0x75c>
3000995c:	e3a04001 	mov	r4, #1	; 0x1
30009960:	e3a0500b 	mov	r5, #11	; 0xb
30009964:	e59d101c 	ldr	r1, [sp, #28]
30009968:	e3510000 	cmp	r1, #0	; 0x0
3000996c:	159d9038 	ldrne	r9, [sp, #56]
30009970:	05999008 	ldreq	r9, [r9, #8]
30009974:	e3590000 	cmp	r9, #0	; 0x0
30009978:	1afffe56 	bne	300092d8 <run_list_real+0xd0>
3000997c:	e1a0000a 	mov	r0, sl
30009980:	e28dd040 	add	sp, sp, #64	; 0x40
30009984:	e8bd8ef0 	pop	{r4, r5, r6, r7, r9, sl, fp, pc}
30009988:	e1a0a003 	mov	sl, r3
3000998c:	eaffffd4 	b	300098e4 <run_list_real+0x6dc>
30009990:	e3e0a000 	mvn	sl, #0	; 0x0
30009994:	eaffffd2 	b	300098e4 <run_list_real+0x6dc>
30009998:	3001c470 	.word	0x3001c470
3000999c:	300189dd 	.word	0x300189dd
300099a0:	3001b05e 	.word	0x3001b05e
300099a4:	3001a0dd 	.word	0x3001a0dd
300099a8:	3001a115 	.word	0x3001a115
300099ac:	30000c30 	.word	0x30000c30

300099b0 <__fswab32>:
300099b0:	e1a03000 	mov	r3, r0
300099b4:	e1a00c00 	lsl	r0, r0, #24
300099b8:	e2032cff 	and	r2, r3, #65280	; 0xff00
300099bc:	e1800c23 	orr	r0, r0, r3, lsr #24
300099c0:	e1800402 	orr	r0, r0, r2, lsl #8
300099c4:	e20338ff 	and	r3, r3, #16711680	; 0xff0000
300099c8:	e1800423 	orr	r0, r0, r3, lsr #8
300099cc:	e1a0f00e 	mov	pc, lr

300099d0 <image_get_data>:
300099d0:	e2800040 	add	r0, r0, #64	; 0x40
300099d4:	e1a0f00e 	mov	pc, lr

300099d8 <image_check_type>:
300099d8:	e5d0001e 	ldrb	r0, [r0, #30]
300099dc:	e1500001 	cmp	r0, r1
300099e0:	13a00000 	movne	r0, #0	; 0x0
300099e4:	03a00001 	moveq	r0, #1	; 0x1
300099e8:	e1a0f00e 	mov	pc, lr

300099ec <image_multi_count>:
300099ec:	e92d4010 	push	{r4, lr}
300099f0:	ebfffff6 	bl	300099d0 <image_get_data>
300099f4:	e1a02000 	mov	r2, r0
300099f8:	e3a00000 	mov	r0, #0	; 0x0
300099fc:	ea000000 	b	30009a04 <image_multi_count+0x18>
30009a00:	e2800001 	add	r0, r0, #1	; 0x1
30009a04:	e7923100 	ldr	r3, [r2, r0, lsl #2]
30009a08:	e3530000 	cmp	r3, #0	; 0x0
30009a0c:	1afffffb 	bne	30009a00 <image_multi_count+0x14>
30009a10:	e8bd8010 	pop	{r4, pc}

30009a14 <get_table_entry_name>:
30009a14:	ea000003 	b	30009a28 <get_table_entry_name+0x14>
30009a18:	e1530002 	cmp	r3, r2
30009a1c:	05901008 	ldreq	r1, [r0, #8]
30009a20:	0a000003 	beq	30009a34 <get_table_entry_name+0x20>
30009a24:	e280000c 	add	r0, r0, #12	; 0xc
30009a28:	e5903000 	ldr	r3, [r0]
30009a2c:	e3530000 	cmp	r3, #0	; 0x0
30009a30:	aafffff8 	bge	30009a18 <get_table_entry_name+0x4>
30009a34:	e1a00001 	mov	r0, r1
30009a38:	e1a0f00e 	mov	pc, lr

30009a3c <genimg_get_os_name>:
30009a3c:	e1a02000 	mov	r2, r0
30009a40:	e59f1004 	ldr	r1, [pc, #4]	; 30009a4c <genimg_get_os_name+0x10>
30009a44:	e59f0004 	ldr	r0, [pc, #4]	; 30009a50 <genimg_get_os_name+0x14>
30009a48:	eafffff1 	b	30009a14 <get_table_entry_name>
30009a4c:	3001a215 	.word	0x3001a215
30009a50:	3001ba00 	.word	0x3001ba00

30009a54 <genimg_get_arch_name>:
30009a54:	e1a02000 	mov	r2, r0
30009a58:	e59f1004 	ldr	r1, [pc, #4]	; 30009a64 <genimg_get_arch_name+0x10>
30009a5c:	e59f0004 	ldr	r0, [pc, #4]	; 30009a68 <genimg_get_arch_name+0x14>
30009a60:	eaffffeb 	b	30009a14 <get_table_entry_name>
30009a64:	3001a220 	.word	0x3001a220
30009a68:	3001ba60 	.word	0x3001ba60

30009a6c <genimg_get_type_name>:
30009a6c:	e1a02000 	mov	r2, r0
30009a70:	e59f1004 	ldr	r1, [pc, #4]	; 30009a7c <genimg_get_type_name+0x10>
30009a74:	e59f0004 	ldr	r0, [pc, #4]	; 30009a80 <genimg_get_type_name+0x14>
30009a78:	eaffffe5 	b	30009a14 <get_table_entry_name>
30009a7c:	3001a235 	.word	0x3001a235
30009a80:	3001bb50 	.word	0x3001bb50

30009a84 <genimg_get_comp_name>:
30009a84:	e1a02000 	mov	r2, r0
30009a88:	e59f1004 	ldr	r1, [pc, #4]	; 30009a94 <genimg_get_comp_name+0x10>
30009a8c:	e59f0004 	ldr	r0, [pc, #4]	; 30009a98 <genimg_get_comp_name+0x14>
30009a90:	eaffffdf 	b	30009a14 <get_table_entry_name>
30009a94:	3001a243 	.word	0x3001a243
30009a98:	3001bbd4 	.word	0x3001bbd4

30009a9c <genimg_get_image>:
30009a9c:	e1a0f00e 	mov	pc, lr

30009aa0 <genimg_has_config>:
30009aa0:	e3a00000 	mov	r0, #0	; 0x0
30009aa4:	e1a0f00e 	mov	pc, lr

30009aa8 <get_table_entry_id>:
30009aa8:	e92d4070 	push	{r4, r5, r6, lr}
30009aac:	e1a05002 	mov	r5, r2
30009ab0:	e1a04000 	mov	r4, r0
30009ab4:	ea000008 	b	30009adc <get_table_entry_id+0x34>
30009ab8:	e5943004 	ldr	r3, [r4, #4]
30009abc:	e2530000 	subs	r0, r3, #0	; 0x0
30009ac0:	0a000004 	beq	30009ad8 <get_table_entry_id+0x30>
30009ac4:	eb000e39 	bl	3000d3b0 <strcmp>
30009ac8:	e3500000 	cmp	r0, #0	; 0x0
30009acc:	1a000001 	bne	30009ad8 <get_table_entry_id+0x30>
30009ad0:	e5940000 	ldr	r0, [r4]
30009ad4:	e8bd8070 	pop	{r4, r5, r6, pc}
30009ad8:	e284400c 	add	r4, r4, #12	; 0xc
30009adc:	e5943000 	ldr	r3, [r4]
30009ae0:	e3530000 	cmp	r3, #0	; 0x0
30009ae4:	e1a01005 	mov	r1, r5
30009ae8:	aafffff2 	bge	30009ab8 <get_table_entry_id+0x10>
30009aec:	e3e00000 	mvn	r0, #0	; 0x0
30009af0:	e8bd8070 	pop	{r4, r5, r6, pc}

30009af4 <genimg_get_comp_id>:
30009af4:	e1a02000 	mov	r2, r0
30009af8:	e59f1004 	ldr	r1, [pc, #4]	; 30009b04 <genimg_get_comp_id+0x10>
30009afc:	e59f0004 	ldr	r0, [pc, #4]	; 30009b08 <genimg_get_comp_id+0x14>
30009b00:	eaffffe8 	b	30009aa8 <get_table_entry_id>
30009b04:	3001a24b 	.word	0x3001a24b
30009b08:	3001bbd4 	.word	0x3001bbd4

30009b0c <genimg_get_type_id>:
30009b0c:	e1a02000 	mov	r2, r0
30009b10:	e59f1004 	ldr	r1, [pc, #4]	; 30009b1c <genimg_get_type_id+0x10>
30009b14:	e59f0004 	ldr	r0, [pc, #4]	; 30009b20 <genimg_get_type_id+0x14>
30009b18:	eaffffe2 	b	30009aa8 <get_table_entry_id>
30009b1c:	3001a465 	.word	0x3001a465
30009b20:	3001bb50 	.word	0x3001bb50

30009b24 <genimg_get_arch_id>:
30009b24:	e1a02000 	mov	r2, r0
30009b28:	e59f1004 	ldr	r1, [pc, #4]	; 30009b34 <genimg_get_arch_id+0x10>
30009b2c:	e59f0004 	ldr	r0, [pc, #4]	; 30009b38 <genimg_get_arch_id+0x14>
30009b30:	eaffffdc 	b	30009aa8 <get_table_entry_id>
30009b34:	300174ac 	.word	0x300174ac
30009b38:	3001ba60 	.word	0x3001ba60

30009b3c <genimg_get_os_id>:
30009b3c:	e1a02000 	mov	r2, r0
30009b40:	e59f1004 	ldr	r1, [pc, #4]	; 30009b4c <genimg_get_os_id+0x10>
30009b44:	e59f0004 	ldr	r0, [pc, #4]	; 30009b50 <genimg_get_os_id+0x14>
30009b48:	eaffffd6 	b	30009aa8 <get_table_entry_id>
30009b4c:	3001a62f 	.word	0x3001a62f
30009b50:	3001ba00 	.word	0x3001ba00

30009b54 <image_check_magic>:
30009b54:	e92d4010 	push	{r4, lr}
30009b58:	e5900000 	ldr	r0, [r0]
30009b5c:	ebffff93 	bl	300099b0 <__fswab32>
30009b60:	e59f300c 	ldr	r3, [pc, #12]	; 30009b74 <image_check_magic+0x20>
30009b64:	e1500003 	cmp	r0, r3
30009b68:	13a00000 	movne	r0, #0	; 0x0
30009b6c:	03a00001 	moveq	r0, #1	; 0x1
30009b70:	e8bd8010 	pop	{r4, pc}
30009b74:	27051956 	.word	0x27051956

30009b78 <genimg_get_format>:
30009b78:	e92d4010 	push	{r4, lr}
30009b7c:	ebfffff4 	bl	30009b54 <image_check_magic>
30009b80:	e2500000 	subs	r0, r0, #0	; 0x0
30009b84:	13a00001 	movne	r0, #1	; 0x1
30009b88:	e8bd8010 	pop	{r4, pc}

30009b8c <image_get_data_size>:
30009b8c:	e590000c 	ldr	r0, [r0, #12]
30009b90:	eaffff86 	b	300099b0 <__fswab32>

30009b94 <image_get_load>:
30009b94:	e5900010 	ldr	r0, [r0, #16]
30009b98:	eaffff84 	b	300099b0 <__fswab32>

30009b9c <image_multi_getimg>:
30009b9c:	e92d47f0 	push	{r4, r5, r6, r7, r8, r9, sl, lr}
30009ba0:	e1a05003 	mov	r5, r3
30009ba4:	e1a07001 	mov	r7, r1
30009ba8:	e1a09002 	mov	r9, r2
30009bac:	e1a04000 	mov	r4, r0
30009bb0:	ebffff8d 	bl	300099ec <image_multi_count>
30009bb4:	e1570000 	cmp	r7, r0
30009bb8:	23a03000 	movcs	r3, #0	; 0x0
30009bbc:	e1a0a000 	mov	sl, r0
30009bc0:	25853000 	strcs	r3, [r5]
30009bc4:	2a000013 	bcs	30009c18 <image_multi_getimg+0x7c>
30009bc8:	e1a00004 	mov	r0, r4
30009bcc:	ebffff7f 	bl	300099d0 <image_get_data>
30009bd0:	e1a06000 	mov	r6, r0
30009bd4:	e7900107 	ldr	r0, [r0, r7, lsl #2]
30009bd8:	ebffff74 	bl	300099b0 <__fswab32>
30009bdc:	e3a04000 	mov	r4, #0	; 0x0
30009be0:	e5850000 	str	r0, [r5]
30009be4:	e1a05004 	mov	r5, r4
30009be8:	ea000005 	b	30009c04 <image_multi_getimg+0x68>
30009bec:	e7960104 	ldr	r0, [r6, r4, lsl #2]
30009bf0:	ebffff6e 	bl	300099b0 <__fswab32>
30009bf4:	e2800003 	add	r0, r0, #3	; 0x3
30009bf8:	e3c00003 	bic	r0, r0, #3	; 0x3
30009bfc:	e0855000 	add	r5, r5, r0
30009c00:	e2844001 	add	r4, r4, #1	; 0x1
30009c04:	e1540007 	cmp	r4, r7
30009c08:	3afffff7 	bcc	30009bec <image_multi_getimg+0x50>
30009c0c:	e28a3001 	add	r3, sl, #1	; 0x1
30009c10:	e0863103 	add	r3, r6, r3, lsl #2
30009c14:	e0833005 	add	r3, r3, r5
30009c18:	e5893000 	str	r3, [r9]
30009c1c:	e8bd87f0 	pop	{r4, r5, r6, r7, r8, r9, sl, pc}

30009c20 <genimg_print_size>:
30009c20:	e92d4010 	push	{r4, lr}
30009c24:	e1a01000 	mov	r1, r0
30009c28:	e1a04000 	mov	r4, r0
30009c2c:	e59f0010 	ldr	r0, [pc, #16]	; 30009c44 <genimg_print_size+0x24>
30009c30:	ebfff1b3 	bl	30006304 <printf>
30009c34:	e59f100c 	ldr	r1, [pc, #12]	; 30009c48 <genimg_print_size+0x28>
30009c38:	e1a00004 	mov	r0, r4
30009c3c:	e8bd4010 	pop	{r4, lr}
30009c40:	ea000b40 	b	3000c948 <print_size>
30009c44:	3001a257 	.word	0x3001a257
30009c48:	3001a096 	.word	0x3001a096

30009c4c <memmove_wd>:
30009c4c:	ea000ece 	b	3000d78c <memmove>

30009c50 <getenv_bootm_size>:
30009c50:	e92d4010 	push	{r4, lr}
30009c54:	e59f0024 	ldr	r0, [pc, #36]	; 30009c80 <getenv_bootm_size+0x30>
30009c58:	ebffebc4 	bl	30004b70 <getenv>
30009c5c:	e3500000 	cmp	r0, #0	; 0x0
30009c60:	0a000003 	beq	30009c74 <getenv_bootm_size+0x24>
30009c64:	e3a01000 	mov	r1, #0	; 0x0
30009c68:	e3a02010 	mov	r2, #16	; 0x10
30009c6c:	e8bd4010 	pop	{r4, lr}
30009c70:	ea000f33 	b	3000d944 <simple_strtoul>
30009c74:	e5983000 	ldr	r3, [r8]
30009c78:	e5930018 	ldr	r0, [r3, #24]
30009c7c:	e8bd8010 	pop	{r4, pc}
30009c80:	3001a263 	.word	0x3001a263

30009c84 <getenv_bootm_low>:
30009c84:	e92d4010 	push	{r4, lr}
30009c88:	e59f0024 	ldr	r0, [pc, #36]	; 30009cb4 <getenv_bootm_low+0x30>
30009c8c:	ebffebb7 	bl	30004b70 <getenv>
30009c90:	e3500000 	cmp	r0, #0	; 0x0
30009c94:	0a000003 	beq	30009ca8 <getenv_bootm_low+0x24>
30009c98:	e3a01000 	mov	r1, #0	; 0x0
30009c9c:	e3a02010 	mov	r2, #16	; 0x10
30009ca0:	e8bd4010 	pop	{r4, lr}
30009ca4:	ea000f26 	b	3000d944 <simple_strtoul>
30009ca8:	e5983000 	ldr	r3, [r8]
30009cac:	e5930014 	ldr	r0, [r3, #20]
30009cb0:	e8bd8010 	pop	{r4, pc}
30009cb4:	3001a26e 	.word	0x3001a26e

30009cb8 <getenv_yesno>:
30009cb8:	e92d4010 	push	{r4, lr}
30009cbc:	ebffebab 	bl	30004b70 <getenv>
30009cc0:	e3500000 	cmp	r0, #0	; 0x0
30009cc4:	03a00001 	moveq	r0, #1	; 0x1
30009cc8:	08bd8010 	popeq	{r4, pc}
30009ccc:	e5d03000 	ldrb	r3, [r0]
30009cd0:	e253006e 	subs	r0, r3, #110	; 0x6e
30009cd4:	13a00001 	movne	r0, #1	; 0x1
30009cd8:	e8bd8010 	pop	{r4, pc}

30009cdc <image_print_contents>:
30009cdc:	e92d40f0 	push	{r4, r5, r6, r7, lr}
30009ce0:	e3a02020 	mov	r2, #32	; 0x20
30009ce4:	e24dd044 	sub	sp, sp, #68	; 0x44
30009ce8:	e1a07000 	mov	r7, r0
30009cec:	e0803002 	add	r3, r0, r2
30009cf0:	e59f1194 	ldr	r1, [pc, #404]	; 30009e8c <image_print_contents+0x1b0>
30009cf4:	e59f0194 	ldr	r0, [pc, #404]	; 30009e90 <image_print_contents+0x1b4>
30009cf8:	ebfff181 	bl	30006304 <printf>
30009cfc:	e59f1188 	ldr	r1, [pc, #392]	; 30009e8c <image_print_contents+0x1b0>
30009d00:	e59f018c 	ldr	r0, [pc, #396]	; 30009e94 <image_print_contents+0x1b8>
30009d04:	ebfff17e 	bl	30006304 <printf>
30009d08:	e5970008 	ldr	r0, [r7, #8]
30009d0c:	ebffff27 	bl	300099b0 <__fswab32>
30009d10:	e28d1014 	add	r1, sp, #20	; 0x14
30009d14:	eb002e66 	bl	300156b4 <to_tm>
30009d18:	e59dc01c 	ldr	ip, [sp, #28]
30009d1c:	e58dc000 	str	ip, [sp]
30009d20:	e59dc018 	ldr	ip, [sp, #24]
30009d24:	e58dc004 	str	ip, [sp, #4]
30009d28:	e59dc014 	ldr	ip, [sp, #20]
30009d2c:	e59d2024 	ldr	r2, [sp, #36]
30009d30:	e59d3020 	ldr	r3, [sp, #32]
30009d34:	e59f015c 	ldr	r0, [pc, #348]	; 30009e98 <image_print_contents+0x1bc>
30009d38:	e59d1028 	ldr	r1, [sp, #40]
30009d3c:	e58dc008 	str	ip, [sp, #8]
30009d40:	ebfff16f 	bl	30006304 <printf>
30009d44:	e59f1140 	ldr	r1, [pc, #320]	; 30009e8c <image_print_contents+0x1b0>
30009d48:	e59f014c 	ldr	r0, [pc, #332]	; 30009e9c <image_print_contents+0x1c0>
30009d4c:	ebfff16c 	bl	30006304 <printf>
30009d50:	e5d7001c 	ldrb	r0, [r7, #28]
30009d54:	ebffff38 	bl	30009a3c <genimg_get_os_name>
30009d58:	e1a06000 	mov	r6, r0
30009d5c:	e5d7001d 	ldrb	r0, [r7, #29]
30009d60:	ebffff3b 	bl	30009a54 <genimg_get_arch_name>
30009d64:	e1a05000 	mov	r5, r0
30009d68:	e5d7001e 	ldrb	r0, [r7, #30]
30009d6c:	ebffff3e 	bl	30009a6c <genimg_get_type_name>
30009d70:	e1a04000 	mov	r4, r0
30009d74:	e5d7001f 	ldrb	r0, [r7, #31]
30009d78:	ebffff41 	bl	30009a84 <genimg_get_comp_name>
30009d7c:	e1a03004 	mov	r3, r4
30009d80:	e1a02006 	mov	r2, r6
30009d84:	e58d0000 	str	r0, [sp]
30009d88:	e1a01005 	mov	r1, r5
30009d8c:	e59f010c 	ldr	r0, [pc, #268]	; 30009ea0 <image_print_contents+0x1c4>
30009d90:	ebfff15b 	bl	30006304 <printf>
30009d94:	e59f10f0 	ldr	r1, [pc, #240]	; 30009e8c <image_print_contents+0x1b0>
30009d98:	e59f0104 	ldr	r0, [pc, #260]	; 30009ea4 <image_print_contents+0x1c8>
30009d9c:	ebfff158 	bl	30006304 <printf>
30009da0:	e1a00007 	mov	r0, r7
30009da4:	ebffff78 	bl	30009b8c <image_get_data_size>
30009da8:	ebffff9c 	bl	30009c20 <genimg_print_size>
30009dac:	e1a00007 	mov	r0, r7
30009db0:	ebffff77 	bl	30009b94 <image_get_load>
30009db4:	e59f10d0 	ldr	r1, [pc, #208]	; 30009e8c <image_print_contents+0x1b0>
30009db8:	e1a02000 	mov	r2, r0
30009dbc:	e59f00e4 	ldr	r0, [pc, #228]	; 30009ea8 <image_print_contents+0x1cc>
30009dc0:	ebfff14f 	bl	30006304 <printf>
30009dc4:	e5970014 	ldr	r0, [r7, #20]
30009dc8:	ebfffef8 	bl	300099b0 <__fswab32>
30009dcc:	e59f10b8 	ldr	r1, [pc, #184]	; 30009e8c <image_print_contents+0x1b0>
30009dd0:	e1a02000 	mov	r2, r0
30009dd4:	e59f00d0 	ldr	r0, [pc, #208]	; 30009eac <image_print_contents+0x1d0>
30009dd8:	ebfff149 	bl	30006304 <printf>
30009ddc:	e1a00007 	mov	r0, r7
30009de0:	e3a01004 	mov	r1, #4	; 0x4
30009de4:	ebfffefb 	bl	300099d8 <image_check_type>
30009de8:	e3500000 	cmp	r0, #0	; 0x0
30009dec:	1a000004 	bne	30009e04 <image_print_contents+0x128>
30009df0:	e1a00007 	mov	r0, r7
30009df4:	e3a01006 	mov	r1, #6	; 0x6
30009df8:	ebfffef6 	bl	300099d8 <image_check_type>
30009dfc:	e3500000 	cmp	r0, #0	; 0x0
30009e00:	0a00001f 	beq	30009e84 <image_print_contents+0x1a8>
30009e04:	e1a00007 	mov	r0, r7
30009e08:	ebfffef7 	bl	300099ec <image_multi_count>
30009e0c:	e59f1078 	ldr	r1, [pc, #120]	; 30009e8c <image_print_contents+0x1b0>
30009e10:	e1a05000 	mov	r5, r0
30009e14:	e59f0094 	ldr	r0, [pc, #148]	; 30009eb0 <image_print_contents+0x1d4>
30009e18:	ebfff139 	bl	30006304 <printf>
30009e1c:	e3a04000 	mov	r4, #0	; 0x0
30009e20:	ea000011 	b	30009e6c <image_print_contents+0x190>
30009e24:	ebffff5c 	bl	30009b9c <image_multi_getimg>
30009e28:	e1a02004 	mov	r2, r4
30009e2c:	e59f1058 	ldr	r1, [pc, #88]	; 30009e8c <image_print_contents+0x1b0>
30009e30:	e59f007c 	ldr	r0, [pc, #124]	; 30009eb4 <image_print_contents+0x1d8>
30009e34:	ebfff132 	bl	30006304 <printf>
30009e38:	e59d0038 	ldr	r0, [sp, #56]
30009e3c:	ebffff77 	bl	30009c20 <genimg_print_size>
30009e40:	e1a00007 	mov	r0, r7
30009e44:	e3a01006 	mov	r1, #6	; 0x6
30009e48:	ebfffee2 	bl	300099d8 <image_check_type>
30009e4c:	e3500000 	cmp	r0, #0	; 0x0
30009e50:	0a000004 	beq	30009e68 <image_print_contents+0x18c>
30009e54:	e3540000 	cmp	r4, #0	; 0x0
30009e58:	e59f0058 	ldr	r0, [pc, #88]	; 30009eb8 <image_print_contents+0x1dc>
30009e5c:	e59f1028 	ldr	r1, [pc, #40]	; 30009e8c <image_print_contents+0x1b0>
30009e60:	159d203c 	ldrne	r2, [sp, #60]
30009e64:	1bfff126 	blne	30006304 <printf>
30009e68:	e2844001 	add	r4, r4, #1	; 0x1
30009e6c:	e1540005 	cmp	r4, r5
30009e70:	e28d3038 	add	r3, sp, #56	; 0x38
30009e74:	e1a01004 	mov	r1, r4
30009e78:	e1a00007 	mov	r0, r7
30009e7c:	e28d203c 	add	r2, sp, #60	; 0x3c
30009e80:	3affffe7 	bcc	30009e24 <image_print_contents+0x148>
30009e84:	e28dd044 	add	sp, sp, #68	; 0x44
30009e88:	e8bd80f0 	pop	{r4, r5, r6, r7, pc}
30009e8c:	3001a889 	.word	0x3001a889
30009e90:	3001a278 	.word	0x3001a278
30009e94:	3001a28e 	.word	0x3001a28e
30009e98:	3001a29f 	.word	0x3001a29f
30009e9c:	3001a2c1 	.word	0x3001a2c1
30009ea0:	3001a2d2 	.word	0x3001a2d2
30009ea4:	3001a2e1 	.word	0x3001a2e1
30009ea8:	3001a2f2 	.word	0x3001a2f2
30009eac:	3001a308 	.word	0x3001a308
30009eb0:	3001a31e 	.word	0x3001a31e
30009eb4:	3001a32b 	.word	0x3001a32b
30009eb8:	3001a33b 	.word	0x3001a33b

30009ebc <image_check_dcrc>:
30009ebc:	e92d4070 	push	{r4, r5, r6, lr}
30009ec0:	e1a05000 	mov	r5, r0
30009ec4:	ebfffec1 	bl	300099d0 <image_get_data>
30009ec8:	e1a04000 	mov	r4, r0
30009ecc:	e1a00005 	mov	r0, r5
30009ed0:	ebffff2d 	bl	30009b8c <image_get_data_size>
30009ed4:	e1a01004 	mov	r1, r4
30009ed8:	e1a02000 	mov	r2, r0
30009edc:	e3a03801 	mov	r3, #65536	; 0x10000
30009ee0:	e3a00000 	mov	r0, #0	; 0x0
30009ee4:	eb000a96 	bl	3000c944 <crc32_wd>
30009ee8:	e1a04000 	mov	r4, r0
30009eec:	e5950018 	ldr	r0, [r5, #24]
30009ef0:	ebfffeae 	bl	300099b0 <__fswab32>
30009ef4:	e1540000 	cmp	r4, r0
30009ef8:	13a00000 	movne	r0, #0	; 0x0
30009efc:	03a00001 	moveq	r0, #1	; 0x1
30009f00:	e8bd8070 	pop	{r4, r5, r6, pc}

30009f04 <image_check_hcrc>:
30009f04:	e92d4030 	push	{r4, r5, lr}
30009f08:	e24dd044 	sub	sp, sp, #68	; 0x44
30009f0c:	e1a05000 	mov	r5, r0
30009f10:	e1a01000 	mov	r1, r0
30009f14:	e3a02040 	mov	r2, #64	; 0x40
30009f18:	e1a0000d 	mov	r0, sp
30009f1c:	eb000e1a 	bl	3000d78c <memmove>
30009f20:	e3a03000 	mov	r3, #0	; 0x0
30009f24:	e1a0100d 	mov	r1, sp
30009f28:	e1a00003 	mov	r0, r3
30009f2c:	e3a02040 	mov	r2, #64	; 0x40
30009f30:	e58d3004 	str	r3, [sp, #4]
30009f34:	eb000a3d 	bl	3000c830 <crc32>
30009f38:	e1a04000 	mov	r4, r0
30009f3c:	e5950004 	ldr	r0, [r5, #4]
30009f40:	ebfffe9a 	bl	300099b0 <__fswab32>
30009f44:	e1540000 	cmp	r4, r0
30009f48:	13a00000 	movne	r0, #0	; 0x0
30009f4c:	03a00001 	moveq	r0, #1	; 0x1
30009f50:	e28dd044 	add	sp, sp, #68	; 0x44
30009f54:	e8bd8030 	pop	{r4, r5, pc}

30009f58 <boot_get_ramdisk>:
30009f58:	e92d46f7 	push	{r0, r1, r2, r4, r5, r6, r7, r9, sl, lr}
30009f5c:	e59da028 	ldr	sl, [sp, #40]
30009f60:	e59d902c 	ldr	r9, [sp, #44]
30009f64:	e3a04000 	mov	r4, #0	; 0x0
30009f68:	e3500002 	cmp	r0, #2	; 0x2
30009f6c:	e58a4000 	str	r4, [sl]
30009f70:	e1a06001 	mov	r6, r1
30009f74:	e1a05002 	mov	r5, r2
30009f78:	e1a07003 	mov	r7, r3
30009f7c:	e5894000 	str	r4, [r9]
30009f80:	da000010 	ble	30009fc8 <boot_get_ramdisk+0x70>
30009f84:	e5910008 	ldr	r0, [r1, #8]
30009f88:	e59f11ec 	ldr	r1, [pc, #492]	; 3000a17c <boot_get_ramdisk+0x224>
30009f8c:	eb000d07 	bl	3000d3b0 <strcmp>
30009f90:	e3500000 	cmp	r0, #0	; 0x0
30009f94:	058d0000 	streq	r0, [sp]
30009f98:	058d0004 	streq	r0, [sp, #4]
30009f9c:	0a00006e 	beq	3000a15c <boot_get_ramdisk+0x204>
30009fa0:	e1a01004 	mov	r1, r4
30009fa4:	e5960008 	ldr	r0, [r6, #8]
30009fa8:	e3a02010 	mov	r2, #16	; 0x10
30009fac:	eb000e64 	bl	3000d944 <simple_strtoul>
30009fb0:	e1a04000 	mov	r4, r0
30009fb4:	ebfffeef 	bl	30009b78 <genimg_get_format>
30009fb8:	e3500001 	cmp	r0, #1	; 0x1
30009fbc:	e1a06000 	mov	r6, r0
30009fc0:	1a00004c 	bne	3000a0f8 <boot_get_ramdisk+0x1a0>
30009fc4:	ea000003 	b	30009fd8 <boot_get_ramdisk+0x80>
30009fc8:	e5923044 	ldr	r3, [r2, #68]
30009fcc:	e3530000 	cmp	r3, #0	; 0x0
30009fd0:	0a00005c 	beq	3000a148 <boot_get_ramdisk+0x1f0>
30009fd4:	ea00004b 	b	3000a108 <boot_get_ramdisk+0x1b0>
30009fd8:	e1a01004 	mov	r1, r4
30009fdc:	e59f019c 	ldr	r0, [pc, #412]	; 3000a180 <boot_get_ramdisk+0x228>
30009fe0:	ebfff0c7 	bl	30006304 <printf>
30009fe4:	e3a00009 	mov	r0, #9	; 0x9
30009fe8:	eb00006d 	bl	3000a1a4 <__show_boot_progress>
30009fec:	e1a00004 	mov	r0, r4
30009ff0:	e5955084 	ldr	r5, [r5, #132]
30009ff4:	ebfffed6 	bl	30009b54 <image_check_magic>
30009ff8:	e3500000 	cmp	r0, #0	; 0x0
30009ffc:	1a000003 	bne	3000a010 <boot_get_ramdisk+0xb8>
3000a000:	e59f017c 	ldr	r0, [pc, #380]	; 3000a184 <boot_get_ramdisk+0x22c>
3000a004:	ebfff0ac 	bl	300062bc <puts>
3000a008:	e3e00009 	mvn	r0, #9	; 0x9
3000a00c:	ea000006 	b	3000a02c <boot_get_ramdisk+0xd4>
3000a010:	e1a00004 	mov	r0, r4
3000a014:	ebffffba 	bl	30009f04 <image_check_hcrc>
3000a018:	e3500000 	cmp	r0, #0	; 0x0
3000a01c:	1a000005 	bne	3000a038 <boot_get_ramdisk+0xe0>
3000a020:	e59f0160 	ldr	r0, [pc, #352]	; 3000a188 <boot_get_ramdisk+0x230>
3000a024:	ebfff0a4 	bl	300062bc <puts>
3000a028:	e3e0000a 	mvn	r0, #10	; 0xa
3000a02c:	eb00005c 	bl	3000a1a4 <__show_boot_progress>
3000a030:	e1a00006 	mov	r0, r6
3000a034:	ea00004f 	b	3000a178 <boot_get_ramdisk+0x220>
3000a038:	e3a0000a 	mov	r0, #10	; 0xa
3000a03c:	eb000058 	bl	3000a1a4 <__show_boot_progress>
3000a040:	e1a00004 	mov	r0, r4
3000a044:	ebffff24 	bl	30009cdc <image_print_contents>
3000a048:	e3550000 	cmp	r5, #0	; 0x0
3000a04c:	0a00000b 	beq	3000a080 <boot_get_ramdisk+0x128>
3000a050:	e59f0134 	ldr	r0, [pc, #308]	; 3000a18c <boot_get_ramdisk+0x234>
3000a054:	ebfff098 	bl	300062bc <puts>
3000a058:	e1a00004 	mov	r0, r4
3000a05c:	ebffff96 	bl	30009ebc <image_check_dcrc>
3000a060:	e3500000 	cmp	r0, #0	; 0x0
3000a064:	1a000003 	bne	3000a078 <boot_get_ramdisk+0x120>
3000a068:	e59f0120 	ldr	r0, [pc, #288]	; 3000a190 <boot_get_ramdisk+0x238>
3000a06c:	ebfff092 	bl	300062bc <puts>
3000a070:	e3e0000b 	mvn	r0, #11	; 0xb
3000a074:	eaffffec 	b	3000a02c <boot_get_ramdisk+0xd4>
3000a078:	e59f0114 	ldr	r0, [pc, #276]	; 3000a194 <boot_get_ramdisk+0x23c>
3000a07c:	ebfff08e 	bl	300062bc <puts>
3000a080:	e3a0000b 	mov	r0, #11	; 0xb
3000a084:	eb000046 	bl	3000a1a4 <__show_boot_progress>
3000a088:	e5d4301c 	ldrb	r3, [r4, #28]
3000a08c:	e3530005 	cmp	r3, #5	; 0x5
3000a090:	1a000007 	bne	3000a0b4 <boot_get_ramdisk+0x15c>
3000a094:	e5d4301d 	ldrb	r3, [r4, #29]
3000a098:	e1530007 	cmp	r3, r7
3000a09c:	1a000004 	bne	3000a0b4 <boot_get_ramdisk+0x15c>
3000a0a0:	e1a00004 	mov	r0, r4
3000a0a4:	e3a01003 	mov	r1, #3	; 0x3
3000a0a8:	ebfffe4a 	bl	300099d8 <image_check_type>
3000a0ac:	e3500000 	cmp	r0, #0	; 0x0
3000a0b0:	1a000007 	bne	3000a0d4 <boot_get_ramdisk+0x17c>
3000a0b4:	e1a00007 	mov	r0, r7
3000a0b8:	ebfffe65 	bl	30009a54 <genimg_get_arch_name>
3000a0bc:	e1a01000 	mov	r1, r0
3000a0c0:	e59f00d0 	ldr	r0, [pc, #208]	; 3000a198 <boot_get_ramdisk+0x240>
3000a0c4:	ebfff08e 	bl	30006304 <printf>
3000a0c8:	e3e0000c 	mvn	r0, #12	; 0xc
3000a0cc:	eb000034 	bl	3000a1a4 <__show_boot_progress>
3000a0d0:	ea00000a 	b	3000a100 <boot_get_ramdisk+0x1a8>
3000a0d4:	e1a00004 	mov	r0, r4
3000a0d8:	ebfffe3c 	bl	300099d0 <image_get_data>
3000a0dc:	e58d0004 	str	r0, [sp, #4]
3000a0e0:	e1a00004 	mov	r0, r4
3000a0e4:	ebfffea8 	bl	30009b8c <image_get_data_size>
3000a0e8:	e58d0000 	str	r0, [sp]
3000a0ec:	e1a00004 	mov	r0, r4
3000a0f0:	ebfffea7 	bl	30009b94 <image_get_load>
3000a0f4:	ea000018 	b	3000a15c <boot_get_ramdisk+0x204>
3000a0f8:	e59f009c 	ldr	r0, [pc, #156]	; 3000a19c <boot_get_ramdisk+0x244>
3000a0fc:	ebfff06e 	bl	300062bc <puts>
3000a100:	e3a00001 	mov	r0, #1	; 0x1
3000a104:	ea00001b 	b	3000a178 <boot_get_ramdisk+0x220>
3000a108:	e2820004 	add	r0, r2, #4	; 0x4
3000a10c:	e3a01004 	mov	r1, #4	; 0x4
3000a110:	ebfffe30 	bl	300099d8 <image_check_type>
3000a114:	e3500000 	cmp	r0, #0	; 0x0
3000a118:	0a00000a 	beq	3000a148 <boot_get_ramdisk+0x1f0>
3000a11c:	e3a0000d 	mov	r0, #13	; 0xd
3000a120:	eb00001f 	bl	3000a1a4 <__show_boot_progress>
3000a124:	e5951000 	ldr	r1, [r5]
3000a128:	e59f0070 	ldr	r0, [pc, #112]	; 3000a1a0 <boot_get_ramdisk+0x248>
3000a12c:	ebfff074 	bl	30006304 <printf>
3000a130:	e5950000 	ldr	r0, [r5]
3000a134:	e3a01001 	mov	r1, #1	; 0x1
3000a138:	e28d2004 	add	r2, sp, #4	; 0x4
3000a13c:	e1a0300d 	mov	r3, sp
3000a140:	ebfffe95 	bl	30009b9c <image_multi_getimg>
3000a144:	ea000004 	b	3000a15c <boot_get_ramdisk+0x204>
3000a148:	e3a0000e 	mov	r0, #14	; 0xe
3000a14c:	eb000014 	bl	3000a1a4 <__show_boot_progress>
3000a150:	e3a03000 	mov	r3, #0	; 0x0
3000a154:	e58d3000 	str	r3, [sp]
3000a158:	e58d3004 	str	r3, [sp, #4]
3000a15c:	e59d0004 	ldr	r0, [sp, #4]
3000a160:	e3500000 	cmp	r0, #0	; 0x0
3000a164:	159d3000 	ldrne	r3, [sp]
3000a168:	10833000 	addne	r3, r3, r0
3000a16c:	158a0000 	strne	r0, [sl]
3000a170:	15893000 	strne	r3, [r9]
3000a174:	13a00000 	movne	r0, #0	; 0x0
3000a178:	e8bd86fe 	pop	{r1, r2, r3, r4, r5, r6, r7, r9, sl, pc}
3000a17c:	30018365 	.word	0x30018365
3000a180:	3001a353 	.word	0x3001a353
3000a184:	30017522 	.word	0x30017522
3000a188:	30017537 	.word	0x30017537
3000a18c:	300174c8 	.word	0x300174c8
3000a190:	3001754f 	.word	0x3001754f
3000a194:	300174e3 	.word	0x300174e3
3000a198:	3001a38b 	.word	0x3001a38b
3000a19c:	3001a3a6 	.word	0x3001a3a6
3000a1a0:	3001a3c2 	.word	0x3001a3c2

3000a1a4 <__show_boot_progress>:
3000a1a4:	e1a0f00e 	mov	pc, lr

3000a1a8 <parse_line>:
3000a1a8:	e92d4010 	push	{r4, lr}
3000a1ac:	e3a04000 	mov	r4, #0	; 0x0
3000a1b0:	ea000000 	b	3000a1b8 <parse_line+0x10>
3000a1b4:	e2800001 	add	r0, r0, #1	; 0x1
3000a1b8:	e5d03000 	ldrb	r3, [r0]
3000a1bc:	e3530009 	cmp	r3, #9	; 0x9
3000a1c0:	13530020 	cmpne	r3, #32	; 0x20
3000a1c4:	0afffffa 	beq	3000a1b4 <parse_line+0xc>
3000a1c8:	e3530000 	cmp	r3, #0	; 0x0
3000a1cc:	0a00000c 	beq	3000a204 <parse_line+0x5c>
3000a1d0:	e7810104 	str	r0, [r1, r4, lsl #2]
3000a1d4:	e2844001 	add	r4, r4, #1	; 0x1
3000a1d8:	ea000000 	b	3000a1e0 <parse_line+0x38>
3000a1dc:	e2800001 	add	r0, r0, #1	; 0x1
3000a1e0:	e5d03000 	ldrb	r3, [r0]
3000a1e4:	e3530000 	cmp	r3, #0	; 0x0
3000a1e8:	13530020 	cmpne	r3, #32	; 0x20
3000a1ec:	0a000002 	beq	3000a1fc <parse_line+0x54>
3000a1f0:	e3530009 	cmp	r3, #9	; 0x9
3000a1f4:	1afffff8 	bne	3000a1dc <parse_line+0x34>
3000a1f8:	ea000003 	b	3000a20c <parse_line+0x64>
3000a1fc:	e3530000 	cmp	r3, #0	; 0x0
3000a200:	1a000001 	bne	3000a20c <parse_line+0x64>
3000a204:	e7813104 	str	r3, [r1, r4, lsl #2]
3000a208:	ea000006 	b	3000a228 <parse_line+0x80>
3000a20c:	e3a03000 	mov	r3, #0	; 0x0
3000a210:	e3540010 	cmp	r4, #16	; 0x10
3000a214:	e5c03000 	strb	r3, [r0]
3000a218:	1affffe5 	bne	3000a1b4 <parse_line+0xc>
3000a21c:	e59f000c 	ldr	r0, [pc, #12]	; 3000a230 <parse_line+0x88>
3000a220:	e1a01004 	mov	r1, r4
3000a224:	ebfff036 	bl	30006304 <printf>
3000a228:	e1a00004 	mov	r0, r4
3000a22c:	e8bd8010 	pop	{r4, pc}
3000a230:	3001a67e 	.word	0x3001a67e

3000a234 <do_run>:
3000a234:	e3520001 	cmp	r2, #1	; 0x1
3000a238:	e92d4070 	push	{r4, r5, r6, lr}
3000a23c:	e1a06002 	mov	r6, r2
3000a240:	c2834004 	addgt	r4, r3, #4	; 0x4
3000a244:	c3a05001 	movgt	r5, #1	; 0x1
3000a248:	ca000001 	bgt	3000a254 <do_run+0x20>
3000a24c:	ebffed81 	bl	30005858 <cmd_usage>
3000a250:	ea00000d 	b	3000a28c <do_run+0x58>
3000a254:	e5940000 	ldr	r0, [r4]
3000a258:	ebffea44 	bl	30004b70 <getenv>
3000a25c:	e3500000 	cmp	r0, #0	; 0x0
3000a260:	e2855001 	add	r5, r5, #1	; 0x1
3000a264:	e3a01003 	mov	r1, #3	; 0x3
3000a268:	1a000003 	bne	3000a27c <do_run+0x48>
3000a26c:	e5941000 	ldr	r1, [r4]
3000a270:	e59f0028 	ldr	r0, [pc, #40]	; 3000a2a0 <do_run+0x6c>
3000a274:	ebfff022 	bl	30006304 <printf>
3000a278:	ea000003 	b	3000a28c <do_run+0x58>
3000a27c:	ebfffbaf 	bl	30009140 <parse_string_outer>
3000a280:	e3500000 	cmp	r0, #0	; 0x0
3000a284:	e2844004 	add	r4, r4, #4	; 0x4
3000a288:	0a000001 	beq	3000a294 <do_run+0x60>
3000a28c:	e3a00001 	mov	r0, #1	; 0x1
3000a290:	e8bd8070 	pop	{r4, r5, r6, pc}
3000a294:	e1550006 	cmp	r5, r6
3000a298:	baffffed 	blt	3000a254 <do_run+0x20>
3000a29c:	e8bd8070 	pop	{r4, r5, r6, pc}
3000a2a0:	30019570 	.word	0x30019570

3000a2a4 <run_command>:
3000a2a4:	e92d4ef0 	push	{r4, r5, r6, r7, r9, sl, fp, lr}
3000a2a8:	e1a05000 	mov	r5, r0
3000a2ac:	e24ddfd6 	sub	sp, sp, #856	; 0x358
3000a2b0:	e58d1004 	str	r1, [sp, #4]
3000a2b4:	ebffefc8 	bl	300061dc <clear_ctrlc>
3000a2b8:	e3550000 	cmp	r5, #0	; 0x0
3000a2bc:	0a0000ec 	beq	3000a674 <run_command+0x3d0>
3000a2c0:	e5d53000 	ldrb	r3, [r5]
3000a2c4:	e3530000 	cmp	r3, #0	; 0x0
3000a2c8:	0a0000e9 	beq	3000a674 <run_command+0x3d0>
3000a2cc:	e1a00005 	mov	r0, r5
3000a2d0:	eb000c63 	bl	3000d464 <strlen>
3000a2d4:	e35000ff 	cmp	r0, #255	; 0xff
3000a2d8:	9a000002 	bls	3000a2e8 <run_command+0x44>
3000a2dc:	e59f03a0 	ldr	r0, [pc, #928]	; 3000a684 <run_command+0x3e0>
3000a2e0:	ebffeff5 	bl	300062bc <puts>
3000a2e4:	ea0000e2 	b	3000a674 <run_command+0x3d0>
3000a2e8:	e28d4f85 	add	r4, sp, #532	; 0x214
3000a2ec:	e1a01005 	mov	r1, r5
3000a2f0:	e1a00004 	mov	r0, r4
3000a2f4:	eb000bf6 	bl	3000d2d4 <strcpy>
3000a2f8:	e3a01001 	mov	r1, #1	; 0x1
3000a2fc:	e58d100c 	str	r1, [sp, #12]
3000a300:	e3a0b000 	mov	fp, #0	; 0x0
3000a304:	ea0000d1 	b	3000a650 <run_command+0x3ac>
3000a308:	e3510027 	cmp	r1, #39	; 0x27
3000a30c:	1a000002 	bne	3000a31c <run_command+0x78>
3000a310:	e5523001 	ldrb	r3, [r2, #-1]
3000a314:	e353005c 	cmp	r3, #92	; 0x5c
3000a318:	12200001 	eorne	r0, r0, #1	; 0x1
3000a31c:	e3500000 	cmp	r0, #0	; 0x0
3000a320:	1a000009 	bne	3000a34c <run_command+0xa8>
3000a324:	e351003b 	cmp	r1, #59	; 0x3b
3000a328:	13a03000 	movne	r3, #0	; 0x0
3000a32c:	03a03001 	moveq	r3, #1	; 0x1
3000a330:	e1520004 	cmp	r2, r4
3000a334:	03a03000 	moveq	r3, #0	; 0x0
3000a338:	e3530000 	cmp	r3, #0	; 0x0
3000a33c:	0a000002 	beq	3000a34c <run_command+0xa8>
3000a340:	e5523001 	ldrb	r3, [r2, #-1]
3000a344:	e353005c 	cmp	r3, #92	; 0x5c
3000a348:	1a000004 	bne	3000a360 <run_command+0xbc>
3000a34c:	e2822001 	add	r2, r2, #1	; 0x1
3000a350:	e5d21000 	ldrb	r1, [r2]
3000a354:	e3510000 	cmp	r1, #0	; 0x0
3000a358:	1affffea 	bne	3000a308 <run_command+0x64>
3000a35c:	ea000001 	b	3000a368 <run_command+0xc4>
3000a360:	e5c20000 	strb	r0, [r2]
3000a364:	e2822001 	add	r2, r2, #1	; 0x1
3000a368:	e1a00004 	mov	r0, r4
3000a36c:	e58d2008 	str	r2, [sp, #8]
3000a370:	eb000c3b 	bl	3000d464 <strlen>
3000a374:	e3a02000 	mov	r2, #0	; 0x0
3000a378:	e1a0c000 	mov	ip, r0
3000a37c:	e3a06c01 	mov	r6, #256	; 0x100
3000a380:	e1a00004 	mov	r0, r4
3000a384:	e1a07002 	mov	r7, r2
3000a388:	e1a01002 	mov	r1, r2
3000a38c:	e28daf45 	add	sl, sp, #276	; 0x114
3000a390:	ea000077 	b	3000a574 <run_command+0x2d0>
3000a394:	e1a04000 	mov	r4, r0
3000a398:	e3520003 	cmp	r2, #3	; 0x3
3000a39c:	e24cc001 	sub	ip, ip, #1	; 0x1
3000a3a0:	e4d45001 	ldrb	r5, [r4], #1
3000a3a4:	0a000058 	beq	3000a50c <run_command+0x268>
3000a3a8:	e355005c 	cmp	r5, #92	; 0x5c
3000a3ac:	13a03000 	movne	r3, #0	; 0x0
3000a3b0:	03a03001 	moveq	r3, #1	; 0x1
3000a3b4:	e351005c 	cmp	r1, #92	; 0x5c
3000a3b8:	03a03000 	moveq	r3, #0	; 0x0
3000a3bc:	e3530000 	cmp	r3, #0	; 0x0
3000a3c0:	0a000004 	beq	3000a3d8 <run_command+0x134>
3000a3c4:	e35c0000 	cmp	ip, #0	; 0x0
3000a3c8:	0a00006c 	beq	3000a580 <run_command+0x2dc>
3000a3cc:	e4d45001 	ldrb	r5, [r4], #1
3000a3d0:	e24cc001 	sub	ip, ip, #1	; 0x1
3000a3d4:	e3a0105c 	mov	r1, #92	; 0x5c
3000a3d8:	e3520003 	cmp	r2, #3	; 0x3
3000a3dc:	979ff102 	ldrls	pc, [pc, r2, lsl #2]
3000a3e0:	ea00005f 	b	3000a564 <run_command+0x2c0>
3000a3e4:	3000a3f4 	.word	0x3000a3f4
3000a3e8:	3000a444 	.word	0x3000a444
3000a3ec:	3000a480 	.word	0x3000a480
3000a3f0:	3000a50c 	.word	0x3000a50c
3000a3f4:	e251105c 	subs	r1, r1, #92	; 0x5c
3000a3f8:	13a01001 	movne	r1, #1	; 0x1
3000a3fc:	e3550027 	cmp	r5, #39	; 0x27
3000a400:	13a03000 	movne	r3, #0	; 0x0
3000a404:	02013001 	andeq	r3, r1, #1	; 0x1
3000a408:	e3530000 	cmp	r3, #0	; 0x0
3000a40c:	11a00004 	movne	r0, r4
3000a410:	13a02003 	movne	r2, #3	; 0x3
3000a414:	11a04007 	movne	r4, r7
3000a418:	1a000045 	bne	3000a534 <run_command+0x290>
3000a41c:	e3550024 	cmp	r5, #36	; 0x24
3000a420:	13a03000 	movne	r3, #0	; 0x0
3000a424:	02013001 	andeq	r3, r1, #1	; 0x1
3000a428:	e3530000 	cmp	r3, #0	; 0x0
3000a42c:	0a00000f 	beq	3000a470 <run_command+0x1cc>
3000a430:	e1a00004 	mov	r0, r4
3000a434:	e3a02001 	mov	r2, #1	; 0x1
3000a438:	e1a04007 	mov	r4, r7
3000a43c:	e3a05024 	mov	r5, #36	; 0x24
3000a440:	ea000049 	b	3000a56c <run_command+0x2c8>
3000a444:	e355007b 	cmp	r5, #123	; 0x7b
3000a448:	13550028 	cmpne	r5, #40	; 0x28
3000a44c:	13a02000 	movne	r2, #0	; 0x0
3000a450:	03a02001 	moveq	r2, #1	; 0x1
3000a454:	01a00004 	moveq	r0, r4
3000a458:	03a02002 	moveq	r2, #2	; 0x2
3000a45c:	0a000042 	beq	3000a56c <run_command+0x2c8>
3000a460:	e3a03024 	mov	r3, #36	; 0x24
3000a464:	e2566001 	subs	r6, r6, #1	; 0x1
3000a468:	e4ca3001 	strb	r3, [sl], #1
3000a46c:	0a000038 	beq	3000a554 <run_command+0x2b0>
3000a470:	e1a00004 	mov	r0, r4
3000a474:	e4ca5001 	strb	r5, [sl], #1
3000a478:	e2466001 	sub	r6, r6, #1	; 0x1
3000a47c:	ea000039 	b	3000a568 <run_command+0x2c4>
3000a480:	e355007d 	cmp	r5, #125	; 0x7d
3000a484:	13550029 	cmpne	r5, #41	; 0x29
3000a488:	01e03007 	mvneq	r3, r7
3000a48c:	00841003 	addeq	r1, r4, r3
3000a490:	03a02000 	moveq	r2, #0	; 0x0
3000a494:	0a000003 	beq	3000a4a8 <run_command+0x204>
3000a498:	ea000031 	b	3000a564 <run_command+0x2c0>
3000a49c:	e7d73002 	ldrb	r3, [r7, r2]
3000a4a0:	e7c03002 	strb	r3, [r0, r2]
3000a4a4:	e2822001 	add	r2, r2, #1	; 0x1
3000a4a8:	e1520001 	cmp	r2, r1
3000a4ac:	e28d0014 	add	r0, sp, #20	; 0x14
3000a4b0:	bafffff9 	blt	3000a49c <run_command+0x1f8>
3000a4b4:	e28d1fd6 	add	r1, sp, #856	; 0x358
3000a4b8:	e0813002 	add	r3, r1, r2
3000a4bc:	e3a09000 	mov	r9, #0	; 0x0
3000a4c0:	e5439344 	strb	r9, [r3, #-836]
3000a4c4:	e58dc000 	str	ip, [sp]
3000a4c8:	ebffe9a8 	bl	30004b70 <getenv>
3000a4cc:	e3500000 	cmp	r0, #0	; 0x0
3000a4d0:	e59dc000 	ldr	ip, [sp]
3000a4d4:	11a0300a 	movne	r3, sl
3000a4d8:	11a02009 	movne	r2, r9
3000a4dc:	1a000002 	bne	3000a4ec <run_command+0x248>
3000a4e0:	ea00001b 	b	3000a554 <run_command+0x2b0>
3000a4e4:	e5431001 	strb	r1, [r3, #-1]
3000a4e8:	e2466001 	sub	r6, r6, #1	; 0x1
3000a4ec:	e7d01002 	ldrb	r1, [r0, r2]
3000a4f0:	e3510000 	cmp	r1, #0	; 0x0
3000a4f4:	13560000 	cmpne	r6, #0	; 0x0
3000a4f8:	e1a0a003 	mov	sl, r3
3000a4fc:	e2822001 	add	r2, r2, #1	; 0x1
3000a500:	e2833001 	add	r3, r3, #1	; 0x1
3000a504:	1afffff6 	bne	3000a4e4 <run_command+0x240>
3000a508:	ea000011 	b	3000a554 <run_command+0x2b0>
3000a50c:	e3550027 	cmp	r5, #39	; 0x27
3000a510:	13a03000 	movne	r3, #0	; 0x0
3000a514:	03a03001 	moveq	r3, #1	; 0x1
3000a518:	e351005c 	cmp	r1, #92	; 0x5c
3000a51c:	03a03000 	moveq	r3, #0	; 0x0
3000a520:	e3530000 	cmp	r3, #0	; 0x0
3000a524:	0a000004 	beq	3000a53c <run_command+0x298>
3000a528:	e1a00004 	mov	r0, r4
3000a52c:	e3a02000 	mov	r2, #0	; 0x0
3000a530:	e1a04007 	mov	r4, r7
3000a534:	e3a05027 	mov	r5, #39	; 0x27
3000a538:	ea00000b 	b	3000a56c <run_command+0x2c8>
3000a53c:	e1a00004 	mov	r0, r4
3000a540:	e4ca5001 	strb	r5, [sl], #1
3000a544:	e2466001 	sub	r6, r6, #1	; 0x1
3000a548:	e1a04007 	mov	r4, r7
3000a54c:	e3a02003 	mov	r2, #3	; 0x3
3000a550:	ea000005 	b	3000a56c <run_command+0x2c8>
3000a554:	e1a00004 	mov	r0, r4
3000a558:	e3a02000 	mov	r2, #0	; 0x0
3000a55c:	e1a04007 	mov	r4, r7
3000a560:	ea000001 	b	3000a56c <run_command+0x2c8>
3000a564:	e1a00004 	mov	r0, r4
3000a568:	e1a04007 	mov	r4, r7
3000a56c:	e1a07004 	mov	r7, r4
3000a570:	e1a01005 	mov	r1, r5
3000a574:	e35c0000 	cmp	ip, #0	; 0x0
3000a578:	13560000 	cmpne	r6, #0	; 0x0
3000a57c:	1affff84 	bne	3000a394 <run_command+0xf0>
3000a580:	e3560000 	cmp	r6, #0	; 0x0
3000a584:	13a03000 	movne	r3, #0	; 0x0
3000a588:	15ca3000 	strbne	r3, [sl]
3000a58c:	054a6001 	strbeq	r6, [sl, #-1]
3000a590:	e28d0f45 	add	r0, sp, #276	; 0x114
3000a594:	e28d1fc5 	add	r1, sp, #788	; 0x314
3000a598:	ebffff02 	bl	3000a1a8 <parse_line>
3000a59c:	e2505000 	subs	r5, r0, #0	; 0x0
3000a5a0:	0a00000b 	beq	3000a5d4 <run_command+0x330>
3000a5a4:	e59d0314 	ldr	r0, [sp, #788]
3000a5a8:	ebffed07 	bl	300059cc <find_cmd>
3000a5ac:	e2504000 	subs	r4, r0, #0	; 0x0
3000a5b0:	1a000003 	bne	3000a5c4 <run_command+0x320>
3000a5b4:	e59f00cc 	ldr	r0, [pc, #204]	; 3000a688 <run_command+0x3e4>
3000a5b8:	e59d1314 	ldr	r1, [sp, #788]
3000a5bc:	ebffef50 	bl	30006304 <printf>
3000a5c0:	ea000003 	b	3000a5d4 <run_command+0x330>
3000a5c4:	e5943004 	ldr	r3, [r4, #4]
3000a5c8:	e1550003 	cmp	r5, r3
3000a5cc:	da000002 	ble	3000a5dc <run_command+0x338>
3000a5d0:	ebffeca0 	bl	30005858 <cmd_usage>
3000a5d4:	e3e0b000 	mvn	fp, #0	; 0x0
3000a5d8:	ea00001b 	b	3000a64c <run_command+0x3a8>
3000a5dc:	e594c00c 	ldr	ip, [r4, #12]
3000a5e0:	e59f30a4 	ldr	r3, [pc, #164]	; 3000a68c <run_command+0x3e8>
3000a5e4:	e15c0003 	cmp	ip, r3
3000a5e8:	1a000008 	bne	3000a610 <run_command+0x36c>
3000a5ec:	e59d3004 	ldr	r3, [sp, #4]
3000a5f0:	e3130002 	tst	r3, #2	; 0x2
3000a5f4:	059d1004 	ldreq	r1, [sp, #4]
3000a5f8:	03811002 	orreq	r1, r1, #2	; 0x2
3000a5fc:	058d1004 	streq	r1, [sp, #4]
3000a600:	0a000002 	beq	3000a610 <run_command+0x36c>
3000a604:	e59f0084 	ldr	r0, [pc, #132]	; 3000a690 <run_command+0x3ec>
3000a608:	ebffef2b 	bl	300062bc <puts>
3000a60c:	eafffff0 	b	3000a5d4 <run_command+0x330>
3000a610:	e1a02005 	mov	r2, r5
3000a614:	e59d1004 	ldr	r1, [sp, #4]
3000a618:	e28d3fc5 	add	r3, sp, #788	; 0x314
3000a61c:	e1a00004 	mov	r0, r4
3000a620:	e1a0e00f 	mov	lr, pc
3000a624:	e1a0f00c 	mov	pc, ip
3000a628:	e3500000 	cmp	r0, #0	; 0x0
3000a62c:	13e0b000 	mvnne	fp, #0	; 0x0
3000a630:	e5944008 	ldr	r4, [r4, #8]
3000a634:	ebffeee4 	bl	300061cc <had_ctrlc>
3000a638:	e3500000 	cmp	r0, #0	; 0x0
3000a63c:	1a00000c 	bne	3000a674 <run_command+0x3d0>
3000a640:	e59d300c 	ldr	r3, [sp, #12]
3000a644:	e0033004 	and	r3, r3, r4
3000a648:	e58d300c 	str	r3, [sp, #12]
3000a64c:	e59d4008 	ldr	r4, [sp, #8]
3000a650:	e5d43000 	ldrb	r3, [r4]
3000a654:	e3530000 	cmp	r3, #0	; 0x0
3000a658:	11a02004 	movne	r2, r4
3000a65c:	13a00000 	movne	r0, #0	; 0x0
3000a660:	1affff3a 	bne	3000a350 <run_command+0xac>
3000a664:	e59d100c 	ldr	r1, [sp, #12]
3000a668:	e35b0000 	cmp	fp, #0	; 0x0
3000a66c:	01a0b001 	moveq	fp, r1
3000a670:	ea000000 	b	3000a678 <run_command+0x3d4>
3000a674:	e3e0b000 	mvn	fp, #0	; 0x0
3000a678:	e1a0000b 	mov	r0, fp
3000a67c:	e28ddfd6 	add	sp, sp, #856	; 0x358
3000a680:	e8bd8ef0 	pop	{r4, r5, r6, r7, r9, sl, fp, pc}
3000a684:	3001a69d 	.word	0x3001a69d
3000a688:	3001a115 	.word	0x3001a115
3000a68c:	30000c30 	.word	0x30000c30
3000a690:	3001a138 	.word	0x3001a138

3000a694 <delete_char>:
3000a694:	e92d44f0 	push	{r4, r5, r6, r7, sl, lr}
3000a698:	e1a07003 	mov	r7, r3
3000a69c:	e5933000 	ldr	r3, [r3]
3000a6a0:	e3530000 	cmp	r3, #0	; 0x0
3000a6a4:	e1a05000 	mov	r5, r0
3000a6a8:	e1a06001 	mov	r6, r1
3000a6ac:	e1a04002 	mov	r4, r2
3000a6b0:	e59da018 	ldr	sl, [sp, #24]
3000a6b4:	0a000029 	beq	3000a760 <delete_char+0xcc>
3000a6b8:	e5763001 	ldrb	r3, [r6, #-1]!
3000a6bc:	e3530009 	cmp	r3, #9	; 0x9
3000a6c0:	0a000004 	beq	3000a6d8 <delete_char+0x44>
3000a6c4:	ea00001d 	b	3000a740 <delete_char+0xac>
3000a6c8:	ebffeefb 	bl	300062bc <puts>
3000a6cc:	e5943000 	ldr	r3, [r4]
3000a6d0:	e2433001 	sub	r3, r3, #1	; 0x1
3000a6d4:	e5843000 	str	r3, [r4]
3000a6d8:	e5943000 	ldr	r3, [r4]
3000a6dc:	e153000a 	cmp	r3, sl
3000a6e0:	e59f0080 	ldr	r0, [pc, #128]	; 3000a768 <delete_char+0xd4>
3000a6e4:	cafffff7 	bgt	3000a6c8 <delete_char+0x34>
3000a6e8:	ea000011 	b	3000a734 <delete_char+0xa0>
3000a6ec:	e5d53000 	ldrb	r3, [r5]
3000a6f0:	e3530009 	cmp	r3, #9	; 0x9
3000a6f4:	e5943000 	ldr	r3, [r4]
3000a6f8:	e2832001 	add	r2, r3, #1	; 0x1
3000a6fc:	1a000008 	bne	3000a724 <delete_char+0x90>
3000a700:	e59f0064 	ldr	r0, [pc, #100]	; 3000a76c <delete_char+0xd8>
3000a704:	e2033007 	and	r3, r3, #7	; 0x7
3000a708:	e0800003 	add	r0, r0, r3
3000a70c:	ebffeeea 	bl	300062bc <puts>
3000a710:	e5943000 	ldr	r3, [r4]
3000a714:	e3c33007 	bic	r3, r3, #7	; 0x7
3000a718:	e2833008 	add	r3, r3, #8	; 0x8
3000a71c:	e5843000 	str	r3, [r4]
3000a720:	ea000002 	b	3000a730 <delete_char+0x9c>
3000a724:	e5842000 	str	r2, [r4]
3000a728:	e5d50000 	ldrb	r0, [r5]
3000a72c:	ebffef7b 	bl	30006520 <putc>
3000a730:	e2855001 	add	r5, r5, #1	; 0x1
3000a734:	e1550006 	cmp	r5, r6
3000a738:	3affffeb 	bcc	3000a6ec <delete_char+0x58>
3000a73c:	ea000004 	b	3000a754 <delete_char+0xc0>
3000a740:	e59f0020 	ldr	r0, [pc, #32]	; 3000a768 <delete_char+0xd4>
3000a744:	ebffeedc 	bl	300062bc <puts>
3000a748:	e5943000 	ldr	r3, [r4]
3000a74c:	e2433001 	sub	r3, r3, #1	; 0x1
3000a750:	e5843000 	str	r3, [r4]
3000a754:	e5973000 	ldr	r3, [r7]
3000a758:	e2433001 	sub	r3, r3, #1	; 0x1
3000a75c:	e5873000 	str	r3, [r7]
3000a760:	e1a00006 	mov	r0, r6
3000a764:	e8bd84f0 	pop	{r4, r5, r6, r7, sl, pc}
3000a768:	3001bc10 	.word	0x3001bc10
3000a76c:	3001bc14 	.word	0x3001bc14

3000a770 <cread_add_char>:
3000a770:	e92d41f0 	push	{r4, r5, r6, r7, r8, lr}
3000a774:	e3510000 	cmp	r1, #0	; 0x0
3000a778:	e1a07000 	mov	r7, r0
3000a77c:	e1a04002 	mov	r4, r2
3000a780:	e1a00003 	mov	r0, r3
3000a784:	e28d6018 	add	r6, sp, #24	; 0x18
3000a788:	e8961040 	ldm	r6, {r6, ip}
3000a78c:	1a000003 	bne	3000a7a0 <cread_add_char+0x30>
3000a790:	e5922000 	ldr	r2, [r2]
3000a794:	e5933000 	ldr	r3, [r3]
3000a798:	e1520003 	cmp	r2, r3
3000a79c:	1a000022 	bne	3000a82c <cread_add_char+0xbc>
3000a7a0:	e5902000 	ldr	r2, [r0]
3000a7a4:	e24c3001 	sub	r3, ip, #1	; 0x1
3000a7a8:	e1520003 	cmp	r2, r3
3000a7ac:	9a000002 	bls	3000a7bc <cread_add_char+0x4c>
3000a7b0:	e3a00007 	mov	r0, #7	; 0x7
3000a7b4:	e8bd41f0 	pop	{r4, r5, r6, r7, r8, lr}
3000a7b8:	eaffef58 	b	30006520 <putc>
3000a7bc:	e3510000 	cmp	r1, #0	; 0x0
3000a7c0:	e2821001 	add	r1, r2, #1	; 0x1
3000a7c4:	e5801000 	str	r1, [r0]
3000a7c8:	0a000017 	beq	3000a82c <cread_add_char+0xbc>
3000a7cc:	e5943000 	ldr	r3, [r4]
3000a7d0:	e0635001 	rsb	r5, r3, r1
3000a7d4:	e3550001 	cmp	r5, #1	; 0x1
3000a7d8:	82830001 	addhi	r0, r3, #1	; 0x1
3000a7dc:	80860000 	addhi	r0, r6, r0
3000a7e0:	80861003 	addhi	r1, r6, r3
3000a7e4:	82452001 	subhi	r2, r5, #1	; 0x1
3000a7e8:	8b000be7 	blhi	3000d78c <memmove>
3000a7ec:	e5943000 	ldr	r3, [r4]
3000a7f0:	e7c67003 	strb	r7, [r6, r3]
3000a7f4:	e5942000 	ldr	r2, [r4]
3000a7f8:	e59f0058 	ldr	r0, [pc, #88]	; 3000a858 <cread_add_char+0xe8>
3000a7fc:	e0862002 	add	r2, r6, r2
3000a800:	e1a01005 	mov	r1, r5
3000a804:	ebffeebe 	bl	30006304 <printf>
3000a808:	e5943000 	ldr	r3, [r4]
3000a80c:	e2833001 	add	r3, r3, #1	; 0x1
3000a810:	e5843000 	str	r3, [r4]
3000a814:	ea000000 	b	3000a81c <cread_add_char+0xac>
3000a818:	ebffef40 	bl	30006520 <putc>
3000a81c:	e2555001 	subs	r5, r5, #1	; 0x1
3000a820:	e3a00008 	mov	r0, #8	; 0x8
3000a824:	1afffffb 	bne	3000a818 <cread_add_char+0xa8>
3000a828:	e8bd81f0 	pop	{r4, r5, r6, r7, r8, pc}
3000a82c:	e5943000 	ldr	r3, [r4]
3000a830:	e7c67003 	strb	r7, [r6, r3]
3000a834:	e5942000 	ldr	r2, [r4]
3000a838:	e59f0018 	ldr	r0, [pc, #24]	; 3000a858 <cread_add_char+0xe8>
3000a83c:	e0862002 	add	r2, r6, r2
3000a840:	e3a01001 	mov	r1, #1	; 0x1
3000a844:	ebffeeae 	bl	30006304 <printf>
3000a848:	e5943000 	ldr	r3, [r4]
3000a84c:	e2833001 	add	r3, r3, #1	; 0x1
3000a850:	e5843000 	str	r3, [r4]
3000a854:	e8bd81f0 	pop	{r4, r5, r6, r7, r8, pc}
3000a858:	3001a6b3 	.word	0x3001a6b3

3000a85c <cread_add_str>:
3000a85c:	e92d4ef3 	push	{r0, r1, r4, r5, r6, r7, r9, sl, fp, lr}
3000a860:	e59db02c 	ldr	fp, [sp, #44]
3000a864:	e1a0a000 	mov	sl, r0
3000a868:	e1a05001 	mov	r5, r1
3000a86c:	e1a07002 	mov	r7, r2
3000a870:	e1a06003 	mov	r6, r3
3000a874:	e59d9030 	ldr	r9, [sp, #48]
3000a878:	e3a04000 	mov	r4, #0	; 0x0
3000a87c:	ea000004 	b	3000a894 <cread_add_str+0x38>
3000a880:	e7da0004 	ldrb	r0, [sl, r4]
3000a884:	e58db000 	str	fp, [sp]
3000a888:	e58d9004 	str	r9, [sp, #4]
3000a88c:	ebffffb7 	bl	3000a770 <cread_add_char>
3000a890:	e2844001 	add	r4, r4, #1	; 0x1
3000a894:	e2555001 	subs	r5, r5, #1	; 0x1
3000a898:	e1a01007 	mov	r1, r7
3000a89c:	e1a02006 	mov	r2, r6
3000a8a0:	e59d3028 	ldr	r3, [sp, #40]
3000a8a4:	2afffff5 	bcs	3000a880 <cread_add_str+0x24>
3000a8a8:	e8bd8efc 	pop	{r2, r3, r4, r5, r6, r7, r9, sl, fp, pc}

3000a8ac <readline_into_buffer>:
3000a8ac:	e92d40f0 	push	{r4, r5, r6, r7, lr}
3000a8b0:	e5983004 	ldr	r3, [r8, #4]
3000a8b4:	e2133001 	ands	r3, r3, #1	; 0x1
3000a8b8:	e24dd02c 	sub	sp, sp, #44	; 0x2c
3000a8bc:	e1a06001 	mov	r6, r1
3000a8c0:	e1a04000 	mov	r4, r0
3000a8c4:	0a0001a0 	beq	3000af4c <readline_into_buffer+0x6a0>
3000a8c8:	e59f0830 	ldr	r0, [pc, #2096]	; 3000b100 <readline_into_buffer+0x854>
3000a8cc:	e5901000 	ldr	r1, [r0]
3000a8d0:	e3510000 	cmp	r1, #0	; 0x0
3000a8d4:	1a000011 	bne	3000a920 <readline_into_buffer+0x74>
3000a8d8:	e59f3824 	ldr	r3, [pc, #2084]	; 3000b104 <readline_into_buffer+0x858>
3000a8dc:	e3e02000 	mvn	r2, #0	; 0x0
3000a8e0:	e5832010 	str	r2, [r3, #16]
3000a8e4:	e5801004 	str	r1, [r0, #4]
3000a8e8:	e5801008 	str	r1, [r0, #8]
3000a8ec:	e580100c 	str	r1, [r0, #12]
3000a8f0:	e1a02001 	mov	r2, r1
3000a8f4:	e2800010 	add	r0, r0, #16	; 0x10
3000a8f8:	e59f3808 	ldr	r3, [pc, #2056]	; 3000b108 <readline_into_buffer+0x85c>
3000a8fc:	e7830002 	str	r0, [r3, r2]
3000a900:	e2822004 	add	r2, r2, #4	; 0x4
3000a904:	e3a03000 	mov	r3, #0	; 0x0
3000a908:	e3520050 	cmp	r2, #80	; 0x50
3000a90c:	e4c03100 	strb	r3, [r0], #256
3000a910:	1afffff8 	bne	3000a8f8 <readline_into_buffer+0x4c>
3000a914:	e59f37e4 	ldr	r3, [pc, #2020]	; 3000b100 <readline_into_buffer+0x854>
3000a918:	e3a02001 	mov	r2, #1	; 0x1
3000a91c:	e5832000 	str	r2, [r3]
3000a920:	e3540000 	cmp	r4, #0	; 0x0
3000a924:	11a00004 	movne	r0, r4
3000a928:	1bffee63 	blne	300062bc <puts>
3000a92c:	e3a03000 	mov	r3, #0	; 0x0
3000a930:	e1a00006 	mov	r0, r6
3000a934:	e58d3018 	str	r3, [sp, #24]
3000a938:	e58d301c 	str	r3, [sp, #28]
3000a93c:	eb000ac8 	bl	3000d464 <strlen>
3000a940:	e3500000 	cmp	r0, #0	; 0x0
3000a944:	0a000008 	beq	3000a96c <readline_into_buffer+0xc0>
3000a948:	e28dc018 	add	ip, sp, #24	; 0x18
3000a94c:	e1a01000 	mov	r1, r0
3000a950:	e58dc000 	str	ip, [sp]
3000a954:	e1a00006 	mov	r0, r6
3000a958:	e3a0cc01 	mov	ip, #256	; 0x100
3000a95c:	e3a02001 	mov	r2, #1	; 0x1
3000a960:	e28d301c 	add	r3, sp, #28	; 0x1c
3000a964:	e98d1040 	stmib	sp, {r6, ip}
3000a968:	ebffffbb 	bl	3000a85c <cread_add_str>
3000a96c:	e3a05000 	mov	r5, #0	; 0x0
3000a970:	e3a07001 	mov	r7, #1	; 0x1
3000a974:	ea000000 	b	3000a97c <readline_into_buffer+0xd0>
3000a978:	e3a05000 	mov	r5, #0	; 0x0
3000a97c:	ebffeef4 	bl	30006554 <getc>
3000a980:	e200e0ff 	and	lr, r0, #255	; 0xff
3000a984:	e35e000d 	cmp	lr, #13	; 0xd
3000a988:	135e000a 	cmpne	lr, #10	; 0xa
3000a98c:	13a04000 	movne	r4, #0	; 0x0
3000a990:	03a04001 	moveq	r4, #1	; 0x1
3000a994:	1a000009 	bne	3000a9c0 <readline_into_buffer+0x114>
3000a998:	e3a0000a 	mov	r0, #10	; 0xa
3000a99c:	ebffeedf 	bl	30006520 <putc>
3000a9a0:	e59d5018 	ldr	r5, [sp, #24]
3000a9a4:	e3a03000 	mov	r3, #0	; 0x0
3000a9a8:	e7c63005 	strb	r3, [r6, r5]
3000a9ac:	e5d63000 	ldrb	r3, [r6]
3000a9b0:	e3530000 	cmp	r3, #0	; 0x0
3000a9b4:	13530021 	cmpne	r3, #33	; 0x21
3000a9b8:	0a00015d 	beq	3000af34 <readline_into_buffer+0x688>
3000a9bc:	ea000149 	b	3000aee8 <readline_into_buffer+0x63c>
3000a9c0:	e3550000 	cmp	r5, #0	; 0x0
3000a9c4:	0a00002f 	beq	3000aa88 <readline_into_buffer+0x1dc>
3000a9c8:	e3550001 	cmp	r5, #1	; 0x1
3000a9cc:	1a00000e 	bne	3000aa0c <readline_into_buffer+0x160>
3000a9d0:	e35e005b 	cmp	lr, #91	; 0x5b
3000a9d4:	05cde011 	strbeq	lr, [sp, #17]
3000a9d8:	02855001 	addeq	r5, r5, #1	; 0x1
3000a9dc:	0affffe6 	beq	3000a97c <readline_into_buffer+0xd0>
3000a9e0:	e28dc018 	add	ip, sp, #24	; 0x18
3000a9e4:	e1a01005 	mov	r1, r5
3000a9e8:	e58dc000 	str	ip, [sp]
3000a9ec:	e28d0010 	add	r0, sp, #16	; 0x10
3000a9f0:	e3a0cc01 	mov	ip, #256	; 0x100
3000a9f4:	e1a02007 	mov	r2, r7
3000a9f8:	e28d301c 	add	r3, sp, #28	; 0x1c
3000a9fc:	e98d1040 	stmib	sp, {r6, ip}
3000aa00:	e1a05004 	mov	r5, r4
3000aa04:	ebffff94 	bl	3000a85c <cread_add_str>
3000aa08:	eaffffdb 	b	3000a97c <readline_into_buffer+0xd0>
3000aa0c:	e24e3041 	sub	r3, lr, #65	; 0x41
3000aa10:	e3530007 	cmp	r3, #7	; 0x7
3000aa14:	979ff103 	ldrls	pc, [pc, r3, lsl #2]
3000aa18:	ea000009 	b	3000aa44 <readline_into_buffer+0x198>
3000aa1c:	3000ad5c 	.word	0x3000ad5c
3000aa20:	3000ada8 	.word	0x3000ada8
3000aa24:	3000aa78 	.word	0x3000aa78
3000aa28:	3000ab74 	.word	0x3000ab74
3000aa2c:	3000aa44 	.word	0x3000aa44
3000aa30:	3000aa44 	.word	0x3000aa44
3000aa34:	3000aa44 	.word	0x3000aa44
3000aa38:	3000aa3c 	.word	0x3000aa3c
3000aa3c:	e3a05000 	mov	r5, #0	; 0x0
3000aa40:	ea00003d 	b	3000ab3c <readline_into_buffer+0x290>
3000aa44:	e28d3028 	add	r3, sp, #40	; 0x28
3000aa48:	e083c005 	add	ip, r3, r5
3000aa4c:	e54ce018 	strb	lr, [ip, #-24]
3000aa50:	e28dc018 	add	ip, sp, #24	; 0x18
3000aa54:	e58dc000 	str	ip, [sp]
3000aa58:	e2851001 	add	r1, r5, #1	; 0x1
3000aa5c:	e3a0cc01 	mov	ip, #256	; 0x100
3000aa60:	e28d0010 	add	r0, sp, #16	; 0x10
3000aa64:	e1a02007 	mov	r2, r7
3000aa68:	e28d301c 	add	r3, sp, #28	; 0x1c
3000aa6c:	e98d1040 	stmib	sp, {r6, ip}
3000aa70:	ebffff79 	bl	3000a85c <cread_add_str>
3000aa74:	eaffffbf 	b	3000a978 <readline_into_buffer+0xcc>
3000aa78:	e3a0e006 	mov	lr, #6	; 0x6
3000aa7c:	e35e000b 	cmp	lr, #11	; 0xb
3000aa80:	e3a05000 	mov	r5, #0	; 0x0
3000aa84:	ea000001 	b	3000aa90 <readline_into_buffer+0x1e4>
3000aa88:	e35e000b 	cmp	lr, #11	; 0xb
3000aa8c:	0a00005b 	beq	3000ac00 <readline_into_buffer+0x354>
3000aa90:	8a00000d 	bhi	3000aacc <readline_into_buffer+0x220>
3000aa94:	e35e0004 	cmp	lr, #4	; 0x4
3000aa98:	0a00003f 	beq	3000ab9c <readline_into_buffer+0x2f0>
3000aa9c:	8a000005 	bhi	3000aab8 <readline_into_buffer+0x20c>
3000aaa0:	e35e0002 	cmp	lr, #2	; 0x2
3000aaa4:	0a000033 	beq	3000ab78 <readline_into_buffer+0x2cc>
3000aaa8:	8a00014e 	bhi	3000afe8 <readline_into_buffer+0x73c>
3000aaac:	e35e0001 	cmp	lr, #1	; 0x1
3000aab0:	1a000104 	bne	3000aec8 <readline_into_buffer+0x61c>
3000aab4:	ea000020 	b	3000ab3c <readline_into_buffer+0x290>
3000aab8:	e35e0006 	cmp	lr, #6	; 0x6
3000aabc:	0a000023 	beq	3000ab50 <readline_into_buffer+0x2a4>
3000aac0:	3a000062 	bcc	3000ac50 <readline_into_buffer+0x3a4>
3000aac4:	e35e0008 	cmp	lr, #8	; 0x8
3000aac8:	ea000015 	b	3000ab24 <readline_into_buffer+0x278>
3000aacc:	e35e0015 	cmp	lr, #21	; 0x15
3000aad0:	0a00006c 	beq	3000ac88 <readline_into_buffer+0x3dc>
3000aad4:	8a000007 	bhi	3000aaf8 <readline_into_buffer+0x24c>
3000aad8:	e35e000f 	cmp	lr, #15	; 0xf
3000aadc:	02277001 	eoreq	r7, r7, #1	; 0x1
3000aae0:	0affffa5 	beq	3000a97c <readline_into_buffer+0xd0>
3000aae4:	e35e0010 	cmp	lr, #16	; 0x10
3000aae8:	0a00009b 	beq	3000ad5c <readline_into_buffer+0x4b0>
3000aaec:	e35e000e 	cmp	lr, #14	; 0xe
3000aaf0:	1a0000f4 	bne	3000aec8 <readline_into_buffer+0x61c>
3000aaf4:	ea0000ab 	b	3000ada8 <readline_into_buffer+0x4fc>
3000aaf8:	e35e001b 	cmp	lr, #27	; 0x1b
3000aafc:	05cde010 	strbeq	lr, [sp, #16]
3000ab00:	03a05001 	moveq	r5, #1	; 0x1
3000ab04:	0affff9c 	beq	3000a97c <readline_into_buffer+0xd0>
3000ab08:	8a000002 	bhi	3000ab18 <readline_into_buffer+0x26c>
3000ab0c:	e35e0018 	cmp	lr, #24	; 0x18
3000ab10:	1a0000ec 	bne	3000aec8 <readline_into_buffer+0x61c>
3000ab14:	ea00005b 	b	3000ac88 <readline_into_buffer+0x3dc>
3000ab18:	e35e007f 	cmp	lr, #127	; 0x7f
3000ab1c:	0a000071 	beq	3000ace8 <readline_into_buffer+0x43c>
3000ab20:	e35e00ff 	cmp	lr, #255	; 0xff
3000ab24:	1a0000e7 	bne	3000aec8 <readline_into_buffer+0x61c>
3000ab28:	ea00006e 	b	3000ace8 <readline_into_buffer+0x43c>
3000ab2c:	ebffee7b 	bl	30006520 <putc>
3000ab30:	e59d301c 	ldr	r3, [sp, #28]
3000ab34:	e2433001 	sub	r3, r3, #1	; 0x1
3000ab38:	e58d301c 	str	r3, [sp, #28]
3000ab3c:	e59d301c 	ldr	r3, [sp, #28]
3000ab40:	e3530000 	cmp	r3, #0	; 0x0
3000ab44:	e3a00008 	mov	r0, #8	; 0x8
3000ab48:	1afffff7 	bne	3000ab2c <readline_into_buffer+0x280>
3000ab4c:	eaffff8a 	b	3000a97c <readline_into_buffer+0xd0>
3000ab50:	e59d201c 	ldr	r2, [sp, #28]
3000ab54:	e59d3018 	ldr	r3, [sp, #24]
3000ab58:	e1520003 	cmp	r2, r3
3000ab5c:	2affff86 	bcs	3000a97c <readline_into_buffer+0xd0>
3000ab60:	e7d60002 	ldrb	r0, [r6, r2]
3000ab64:	ebffee6d 	bl	30006520 <putc>
3000ab68:	e59d301c 	ldr	r3, [sp, #28]
3000ab6c:	e2833001 	add	r3, r3, #1	; 0x1
3000ab70:	ea000007 	b	3000ab94 <readline_into_buffer+0x2e8>
3000ab74:	e3a05000 	mov	r5, #0	; 0x0
3000ab78:	e59d301c 	ldr	r3, [sp, #28]
3000ab7c:	e3530000 	cmp	r3, #0	; 0x0
3000ab80:	0affff7d 	beq	3000a97c <readline_into_buffer+0xd0>
3000ab84:	e3a00008 	mov	r0, #8	; 0x8
3000ab88:	ebffee64 	bl	30006520 <putc>
3000ab8c:	e59d301c 	ldr	r3, [sp, #28]
3000ab90:	e2433001 	sub	r3, r3, #1	; 0x1
3000ab94:	e58d301c 	str	r3, [sp, #28]
3000ab98:	eaffff77 	b	3000a97c <readline_into_buffer+0xd0>
3000ab9c:	e59d201c 	ldr	r2, [sp, #28]
3000aba0:	e59d3018 	ldr	r3, [sp, #24]
3000aba4:	e1520003 	cmp	r2, r3
3000aba8:	2affff73 	bcs	3000a97c <readline_into_buffer+0xd0>
3000abac:	e2433001 	sub	r3, r3, #1	; 0x1
3000abb0:	e0534002 	subs	r4, r3, r2
3000abb4:	0a000009 	beq	3000abe0 <readline_into_buffer+0x334>
3000abb8:	e2821001 	add	r1, r2, #1	; 0x1
3000abbc:	e0861001 	add	r1, r6, r1
3000abc0:	e0860002 	add	r0, r6, r2
3000abc4:	e1a02004 	mov	r2, r4
3000abc8:	eb000aef 	bl	3000d78c <memmove>
3000abcc:	e59d201c 	ldr	r2, [sp, #28]
3000abd0:	e59f0534 	ldr	r0, [pc, #1332]	; 3000b10c <readline_into_buffer+0x860>
3000abd4:	e0862002 	add	r2, r6, r2
3000abd8:	e1a01004 	mov	r1, r4
3000abdc:	ebffedc8 	bl	30006304 <printf>
3000abe0:	e3a00020 	mov	r0, #32	; 0x20
3000abe4:	ebffee4d 	bl	30006520 <putc>
3000abe8:	e2444001 	sub	r4, r4, #1	; 0x1
3000abec:	e3a00008 	mov	r0, #8	; 0x8
3000abf0:	ebffee4a 	bl	30006520 <putc>
3000abf4:	e3740001 	cmn	r4, #1	; 0x1
3000abf8:	1afffffa 	bne	3000abe8 <readline_into_buffer+0x33c>
3000abfc:	ea000052 	b	3000ad4c <readline_into_buffer+0x4a0>
3000ac00:	e59d201c 	ldr	r2, [sp, #28]
3000ac04:	e59d3018 	ldr	r3, [sp, #24]
3000ac08:	e1520003 	cmp	r2, r3
3000ac0c:	31a04002 	movcc	r4, r2
3000ac10:	3a000002 	bcc	3000ac20 <readline_into_buffer+0x374>
3000ac14:	eaffff58 	b	3000a97c <readline_into_buffer+0xd0>
3000ac18:	ebffee40 	bl	30006520 <putc>
3000ac1c:	e2844001 	add	r4, r4, #1	; 0x1
3000ac20:	e59d3018 	ldr	r3, [sp, #24]
3000ac24:	e1540003 	cmp	r4, r3
3000ac28:	e3a00020 	mov	r0, #32	; 0x20
3000ac2c:	3afffff9 	bcc	3000ac18 <readline_into_buffer+0x36c>
3000ac30:	ea000000 	b	3000ac38 <readline_into_buffer+0x38c>
3000ac34:	ebffee39 	bl	30006520 <putc>
3000ac38:	e59d201c 	ldr	r2, [sp, #28]
3000ac3c:	e1540002 	cmp	r4, r2
3000ac40:	e3a00008 	mov	r0, #8	; 0x8
3000ac44:	e2444001 	sub	r4, r4, #1	; 0x1
3000ac48:	8afffff9 	bhi	3000ac34 <readline_into_buffer+0x388>
3000ac4c:	ea000023 	b	3000ace0 <readline_into_buffer+0x434>
3000ac50:	e28d1018 	add	r1, sp, #24	; 0x18
3000ac54:	e891000a 	ldm	r1, {r1, r3}
3000ac58:	e1530001 	cmp	r3, r1
3000ac5c:	2affff46 	bcs	3000a97c <readline_into_buffer+0xd0>
3000ac60:	e0631001 	rsb	r1, r3, r1
3000ac64:	e0862003 	add	r2, r6, r3
3000ac68:	e59f049c 	ldr	r0, [pc, #1180]	; 3000b10c <readline_into_buffer+0x860>
3000ac6c:	ebffeda4 	bl	30006304 <printf>
3000ac70:	e59d3018 	ldr	r3, [sp, #24]
3000ac74:	eaffffc6 	b	3000ab94 <readline_into_buffer+0x2e8>
3000ac78:	ebffee28 	bl	30006520 <putc>
3000ac7c:	e59d301c 	ldr	r3, [sp, #28]
3000ac80:	e2433001 	sub	r3, r3, #1	; 0x1
3000ac84:	e58d301c 	str	r3, [sp, #28]
3000ac88:	e59d201c 	ldr	r2, [sp, #28]
3000ac8c:	e3520000 	cmp	r2, #0	; 0x0
3000ac90:	e3a00008 	mov	r0, #8	; 0x8
3000ac94:	1afffff7 	bne	3000ac78 <readline_into_buffer+0x3cc>
3000ac98:	e59d3018 	ldr	r3, [sp, #24]
3000ac9c:	e3530000 	cmp	r3, #0	; 0x0
3000aca0:	11a04002 	movne	r4, r2
3000aca4:	1a000002 	bne	3000acb4 <readline_into_buffer+0x408>
3000aca8:	eaffff33 	b	3000a97c <readline_into_buffer+0xd0>
3000acac:	ebffee1b 	bl	30006520 <putc>
3000acb0:	e2844001 	add	r4, r4, #1	; 0x1
3000acb4:	e59d3018 	ldr	r3, [sp, #24]
3000acb8:	e1540003 	cmp	r4, r3
3000acbc:	e3a00020 	mov	r0, #32	; 0x20
3000acc0:	3afffff9 	bcc	3000acac <readline_into_buffer+0x400>
3000acc4:	ea000000 	b	3000accc <readline_into_buffer+0x420>
3000acc8:	ebffee14 	bl	30006520 <putc>
3000accc:	e59d201c 	ldr	r2, [sp, #28]
3000acd0:	e1540002 	cmp	r4, r2
3000acd4:	e3a00008 	mov	r0, #8	; 0x8
3000acd8:	e2444001 	sub	r4, r4, #1	; 0x1
3000acdc:	8afffff9 	bhi	3000acc8 <readline_into_buffer+0x41c>
3000ace0:	e58d2018 	str	r2, [sp, #24]
3000ace4:	eaffff24 	b	3000a97c <readline_into_buffer+0xd0>
3000ace8:	e59d001c 	ldr	r0, [sp, #28]
3000acec:	e3500000 	cmp	r0, #0	; 0x0
3000acf0:	0affff21 	beq	3000a97c <readline_into_buffer+0xd0>
3000acf4:	e59d3018 	ldr	r3, [sp, #24]
3000acf8:	e0604003 	rsb	r4, r0, r3
3000acfc:	e2403001 	sub	r3, r0, #1	; 0x1
3000ad00:	e0861000 	add	r1, r6, r0
3000ad04:	e1a02004 	mov	r2, r4
3000ad08:	e0860003 	add	r0, r6, r3
3000ad0c:	e58d301c 	str	r3, [sp, #28]
3000ad10:	eb000a9d 	bl	3000d78c <memmove>
3000ad14:	e3a00008 	mov	r0, #8	; 0x8
3000ad18:	ebffee00 	bl	30006520 <putc>
3000ad1c:	e59d201c 	ldr	r2, [sp, #28]
3000ad20:	e59f03e4 	ldr	r0, [pc, #996]	; 3000b10c <readline_into_buffer+0x860>
3000ad24:	e0862002 	add	r2, r6, r2
3000ad28:	e1a01004 	mov	r1, r4
3000ad2c:	ebffed74 	bl	30006304 <printf>
3000ad30:	e3a00020 	mov	r0, #32	; 0x20
3000ad34:	ebffedf9 	bl	30006520 <putc>
3000ad38:	e2444001 	sub	r4, r4, #1	; 0x1
3000ad3c:	e3a00008 	mov	r0, #8	; 0x8
3000ad40:	ebffedf6 	bl	30006520 <putc>
3000ad44:	e3740001 	cmn	r4, #1	; 0x1
3000ad48:	1afffffa 	bne	3000ad38 <readline_into_buffer+0x48c>
3000ad4c:	e59d3018 	ldr	r3, [sp, #24]
3000ad50:	e2433001 	sub	r3, r3, #1	; 0x1
3000ad54:	e58d3018 	str	r3, [sp, #24]
3000ad58:	eaffff07 	b	3000a97c <readline_into_buffer+0xd0>
3000ad5c:	e59f23a0 	ldr	r2, [pc, #928]	; 3000b104 <readline_into_buffer+0x858>
3000ad60:	e5921010 	ldr	r1, [r2, #16]
3000ad64:	e3510000 	cmp	r1, #0	; 0x0
3000ad68:	ba00000c 	blt	3000ada0 <readline_into_buffer+0x4f4>
3000ad6c:	e2413001 	sub	r3, r1, #1	; 0x1
3000ad70:	e3730001 	cmn	r3, #1	; 0x1
3000ad74:	e5823010 	str	r3, [r2, #16]
3000ad78:	059f3380 	ldreq	r3, [pc, #896]	; 3000b100 <readline_into_buffer+0x854>
3000ad7c:	05933004 	ldreq	r3, [r3, #4]
3000ad80:	e59f037c 	ldr	r0, [pc, #892]	; 3000b104 <readline_into_buffer+0x858>
3000ad84:	05823010 	streq	r3, [r2, #16]
3000ad88:	e59f3370 	ldr	r3, [pc, #880]	; 3000b100 <readline_into_buffer+0x854>
3000ad8c:	e5902010 	ldr	r2, [r0, #16]
3000ad90:	e5933008 	ldr	r3, [r3, #8]
3000ad94:	e1520003 	cmp	r2, r3
3000ad98:	1a000017 	bne	3000adfc <readline_into_buffer+0x550>
3000ad9c:	e5801010 	str	r1, [r0, #16]
3000ada0:	e3a05000 	mov	r5, #0	; 0x0
3000ada4:	ea000019 	b	3000ae10 <readline_into_buffer+0x564>
3000ada8:	e59f0354 	ldr	r0, [pc, #852]	; 3000b104 <readline_into_buffer+0x858>
3000adac:	e5901010 	ldr	r1, [r0, #16]
3000adb0:	e3510000 	cmp	r1, #0	; 0x0
3000adb4:	bafffff9 	blt	3000ada0 <readline_into_buffer+0x4f4>
3000adb8:	e59f2340 	ldr	r2, [pc, #832]	; 3000b100 <readline_into_buffer+0x854>
3000adbc:	e5923008 	ldr	r3, [r2, #8]
3000adc0:	e1510003 	cmp	r1, r3
3000adc4:	0afffff5 	beq	3000ada0 <readline_into_buffer+0x4f4>
3000adc8:	e5922004 	ldr	r2, [r2, #4]
3000adcc:	e2813001 	add	r3, r1, #1	; 0x1
3000add0:	e1530002 	cmp	r3, r2
3000add4:	e5803010 	str	r3, [r0, #16]
3000add8:	c3a03000 	movgt	r3, #0	; 0x0
3000addc:	c5803010 	strgt	r3, [r0, #16]
3000ade0:	e59f331c 	ldr	r3, [pc, #796]	; 3000b104 <readline_into_buffer+0x858>
3000ade4:	e5932010 	ldr	r2, [r3, #16]
3000ade8:	e59f3310 	ldr	r3, [pc, #784]	; 3000b100 <readline_into_buffer+0x854>
3000adec:	e5933008 	ldr	r3, [r3, #8]
3000adf0:	e1520003 	cmp	r2, r3
3000adf4:	059f5314 	ldreq	r5, [pc, #788]	; 3000b110 <readline_into_buffer+0x864>
3000adf8:	0a00000b 	beq	3000ae2c <readline_into_buffer+0x580>
3000adfc:	e59f3310 	ldr	r3, [pc, #784]	; 3000b114 <readline_into_buffer+0x868>
3000ae00:	e0833102 	add	r3, r3, r2, lsl #2
3000ae04:	e5135be8 	ldr	r5, [r3, #-3048]
3000ae08:	e3550000 	cmp	r5, #0	; 0x0
3000ae0c:	1a000006 	bne	3000ae2c <readline_into_buffer+0x580>
3000ae10:	e3a00007 	mov	r0, #7	; 0x7
3000ae14:	ebffedc1 	bl	30006520 <putc>
3000ae18:	eafffed7 	b	3000a97c <readline_into_buffer+0xd0>
3000ae1c:	ebffedbf 	bl	30006520 <putc>
3000ae20:	e59d301c 	ldr	r3, [sp, #28]
3000ae24:	e2433001 	sub	r3, r3, #1	; 0x1
3000ae28:	e58d301c 	str	r3, [sp, #28]
3000ae2c:	e59d201c 	ldr	r2, [sp, #28]
3000ae30:	e3520000 	cmp	r2, #0	; 0x0
3000ae34:	e3a00008 	mov	r0, #8	; 0x8
3000ae38:	1afffff7 	bne	3000ae1c <readline_into_buffer+0x570>
3000ae3c:	e59d3018 	ldr	r3, [sp, #24]
3000ae40:	e3530000 	cmp	r3, #0	; 0x0
3000ae44:	11a04002 	movne	r4, r2
3000ae48:	1a000002 	bne	3000ae58 <readline_into_buffer+0x5ac>
3000ae4c:	ea00000d 	b	3000ae88 <readline_into_buffer+0x5dc>
3000ae50:	ebffedb2 	bl	30006520 <putc>
3000ae54:	e2844001 	add	r4, r4, #1	; 0x1
3000ae58:	e59d3018 	ldr	r3, [sp, #24]
3000ae5c:	e1540003 	cmp	r4, r3
3000ae60:	e3a00020 	mov	r0, #32	; 0x20
3000ae64:	3afffff9 	bcc	3000ae50 <readline_into_buffer+0x5a4>
3000ae68:	ea000000 	b	3000ae70 <readline_into_buffer+0x5c4>
3000ae6c:	ebffedab 	bl	30006520 <putc>
3000ae70:	e59d201c 	ldr	r2, [sp, #28]
3000ae74:	e1540002 	cmp	r4, r2
3000ae78:	e3a00008 	mov	r0, #8	; 0x8
3000ae7c:	e2444001 	sub	r4, r4, #1	; 0x1
3000ae80:	8afffff9 	bhi	3000ae6c <readline_into_buffer+0x5c0>
3000ae84:	e58d2018 	str	r2, [sp, #24]
3000ae88:	e1a01005 	mov	r1, r5
3000ae8c:	e1a00006 	mov	r0, r6
3000ae90:	eb00090f 	bl	3000d2d4 <strcpy>
3000ae94:	e1a00006 	mov	r0, r6
3000ae98:	eb000971 	bl	3000d464 <strlen>
3000ae9c:	e59d301c 	ldr	r3, [sp, #28]
3000aea0:	e1530000 	cmp	r3, r0
3000aea4:	e58d0018 	str	r0, [sp, #24]
3000aea8:	2afffeb2 	bcs	3000a978 <readline_into_buffer+0xcc>
3000aeac:	e0631000 	rsb	r1, r3, r0
3000aeb0:	e0862003 	add	r2, r6, r3
3000aeb4:	e59f0250 	ldr	r0, [pc, #592]	; 3000b10c <readline_into_buffer+0x860>
3000aeb8:	ebffed11 	bl	30006304 <printf>
3000aebc:	e59d3018 	ldr	r3, [sp, #24]
3000aec0:	e58d301c 	str	r3, [sp, #28]
3000aec4:	eafffeab 	b	3000a978 <readline_into_buffer+0xcc>
3000aec8:	e3a0cc01 	mov	ip, #256	; 0x100
3000aecc:	e1a0000e 	mov	r0, lr
3000aed0:	e1a01007 	mov	r1, r7
3000aed4:	e28d201c 	add	r2, sp, #28	; 0x1c
3000aed8:	e28d3018 	add	r3, sp, #24	; 0x18
3000aedc:	e88d1040 	stm	sp, {r6, ip}
3000aee0:	ebfffe22 	bl	3000a770 <cread_add_char>
3000aee4:	eafffea4 	b	3000a97c <readline_into_buffer+0xd0>
3000aee8:	e59f4210 	ldr	r4, [pc, #528]	; 3000b100 <readline_into_buffer+0x854>
3000aeec:	e59f3220 	ldr	r3, [pc, #544]	; 3000b114 <readline_into_buffer+0x868>
3000aef0:	e5942008 	ldr	r2, [r4, #8]
3000aef4:	e0833102 	add	r3, r3, r2, lsl #2
3000aef8:	e5130be8 	ldr	r0, [r3, #-3048]
3000aefc:	e1a01006 	mov	r1, r6
3000af00:	eb0008f3 	bl	3000d2d4 <strcpy>
3000af04:	e5943008 	ldr	r3, [r4, #8]
3000af08:	e2833001 	add	r3, r3, #1	; 0x1
3000af0c:	e5942004 	ldr	r2, [r4, #4]
3000af10:	e3530013 	cmp	r3, #19	; 0x13
3000af14:	c3a03000 	movgt	r3, #0	; 0x0
3000af18:	e1530002 	cmp	r3, r2
3000af1c:	e59f21dc 	ldr	r2, [pc, #476]	; 3000b100 <readline_into_buffer+0x854>
3000af20:	e5843008 	str	r3, [r4, #8]
3000af24:	c5843004 	strgt	r3, [r4, #4]
3000af28:	e592300c 	ldr	r3, [r2, #12]
3000af2c:	e2833001 	add	r3, r3, #1	; 0x1
3000af30:	e582300c 	str	r3, [r2, #12]
3000af34:	e59f31c4 	ldr	r3, [pc, #452]	; 3000b100 <readline_into_buffer+0x854>
3000af38:	e5932008 	ldr	r2, [r3, #8]
3000af3c:	e59f31c0 	ldr	r3, [pc, #448]	; 3000b104 <readline_into_buffer+0x858>
3000af40:	e1a00005 	mov	r0, r5
3000af44:	e5832010 	str	r2, [r3, #16]
3000af48:	ea00006a 	b	3000b0f8 <readline_into_buffer+0x84c>
3000af4c:	e3500000 	cmp	r0, #0	; 0x0
3000af50:	e58d3024 	str	r3, [sp, #36]
3000af54:	01a07000 	moveq	r7, r0
3000af58:	0a000003 	beq	3000af6c <readline_into_buffer+0x6c0>
3000af5c:	eb000940 	bl	3000d464 <strlen>
3000af60:	e1a07000 	mov	r7, r0
3000af64:	e1a00004 	mov	r0, r4
3000af68:	ebffecd3 	bl	300062bc <puts>
3000af6c:	e58d7020 	str	r7, [sp, #32]
3000af70:	e1a05006 	mov	r5, r6
3000af74:	ebffed76 	bl	30006554 <getc>
3000af78:	e20040ff 	and	r4, r0, #255	; 0xff
3000af7c:	e354000a 	cmp	r4, #10	; 0xa
3000af80:	0a000012 	beq	3000afd0 <readline_into_buffer+0x724>
3000af84:	8a000006 	bhi	3000afa4 <readline_into_buffer+0x6f8>
3000af88:	e3540003 	cmp	r4, #3	; 0x3
3000af8c:	0a000015 	beq	3000afe8 <readline_into_buffer+0x73c>
3000af90:	e3540008 	cmp	r4, #8	; 0x8
3000af94:	0a000034 	beq	3000b06c <readline_into_buffer+0x7c0>
3000af98:	e3540000 	cmp	r4, #0	; 0x0
3000af9c:	0afffff4 	beq	3000af74 <readline_into_buffer+0x6c8>
3000afa0:	ea000039 	b	3000b08c <readline_into_buffer+0x7e0>
3000afa4:	e3540015 	cmp	r4, #21	; 0x15
3000afa8:	0a000016 	beq	3000b008 <readline_into_buffer+0x75c>
3000afac:	8a000002 	bhi	3000afbc <readline_into_buffer+0x710>
3000afb0:	e354000d 	cmp	r4, #13	; 0xd
3000afb4:	1a000034 	bne	3000b08c <readline_into_buffer+0x7e0>
3000afb8:	ea000004 	b	3000afd0 <readline_into_buffer+0x724>
3000afbc:	e3540017 	cmp	r4, #23	; 0x17
3000afc0:	0a000017 	beq	3000b024 <readline_into_buffer+0x778>
3000afc4:	e354007f 	cmp	r4, #127	; 0x7f
3000afc8:	1a00002f 	bne	3000b08c <readline_into_buffer+0x7e0>
3000afcc:	ea000026 	b	3000b06c <readline_into_buffer+0x7c0>
3000afd0:	e3a03000 	mov	r3, #0	; 0x0
3000afd4:	e59f013c 	ldr	r0, [pc, #316]	; 3000b118 <readline_into_buffer+0x86c>
3000afd8:	e5c53000 	strb	r3, [r5]
3000afdc:	ebffecb6 	bl	300062bc <puts>
3000afe0:	e0660005 	rsb	r0, r6, r5
3000afe4:	ea000043 	b	3000b0f8 <readline_into_buffer+0x84c>
3000afe8:	e3a03000 	mov	r3, #0	; 0x0
3000afec:	e5c63000 	strb	r3, [r6]
3000aff0:	e3e00000 	mvn	r0, #0	; 0x0
3000aff4:	ea00003f 	b	3000b0f8 <readline_into_buffer+0x84c>
3000aff8:	ebffecaf 	bl	300062bc <puts>
3000affc:	e59d3020 	ldr	r3, [sp, #32]
3000b000:	e2433001 	sub	r3, r3, #1	; 0x1
3000b004:	e58d3020 	str	r3, [sp, #32]
3000b008:	e59d3020 	ldr	r3, [sp, #32]
3000b00c:	e1530007 	cmp	r3, r7
3000b010:	e59f00ec 	ldr	r0, [pc, #236]	; 3000b104 <readline_into_buffer+0x858>
3000b014:	cafffff7 	bgt	3000aff8 <readline_into_buffer+0x74c>
3000b018:	e3a03000 	mov	r3, #0	; 0x0
3000b01c:	e58d3024 	str	r3, [sp, #36]
3000b020:	eaffffd2 	b	3000af70 <readline_into_buffer+0x6c4>
3000b024:	e1a01005 	mov	r1, r5
3000b028:	e1a00006 	mov	r0, r6
3000b02c:	e28d2020 	add	r2, sp, #32	; 0x20
3000b030:	e28d3024 	add	r3, sp, #36	; 0x24
3000b034:	e58d7000 	str	r7, [sp]
3000b038:	ebfffd95 	bl	3000a694 <delete_char>
3000b03c:	e59dc024 	ldr	ip, [sp, #36]
3000b040:	e35c0000 	cmp	ip, #0	; 0x0
3000b044:	e1a05000 	mov	r5, r0
3000b048:	e1a01000 	mov	r1, r0
3000b04c:	e28d2020 	add	r2, sp, #32	; 0x20
3000b050:	e1a00006 	mov	r0, r6
3000b054:	e28d3024 	add	r3, sp, #36	; 0x24
3000b058:	daffffc5 	ble	3000af74 <readline_into_buffer+0x6c8>
3000b05c:	e5d5c000 	ldrb	ip, [r5]
3000b060:	e35c0020 	cmp	ip, #32	; 0x20
3000b064:	1afffff2 	bne	3000b034 <readline_into_buffer+0x788>
3000b068:	eaffffc1 	b	3000af74 <readline_into_buffer+0x6c8>
3000b06c:	e1a01005 	mov	r1, r5
3000b070:	e1a00006 	mov	r0, r6
3000b074:	e28d2020 	add	r2, sp, #32	; 0x20
3000b078:	e28d3024 	add	r3, sp, #36	; 0x24
3000b07c:	e58d7000 	str	r7, [sp]
3000b080:	ebfffd83 	bl	3000a694 <delete_char>
3000b084:	e1a05000 	mov	r5, r0
3000b088:	eaffffb9 	b	3000af74 <readline_into_buffer+0x6c8>
3000b08c:	e59d3024 	ldr	r3, [sp, #36]
3000b090:	e35300fd 	cmp	r3, #253	; 0xfd
3000b094:	ca000014 	bgt	3000b0ec <readline_into_buffer+0x840>
3000b098:	e3540009 	cmp	r4, #9	; 0x9
3000b09c:	e59d3020 	ldr	r3, [sp, #32]
3000b0a0:	1a000008 	bne	3000b0c8 <readline_into_buffer+0x81c>
3000b0a4:	e59f0070 	ldr	r0, [pc, #112]	; 3000b11c <readline_into_buffer+0x870>
3000b0a8:	e2033007 	and	r3, r3, #7	; 0x7
3000b0ac:	e0800003 	add	r0, r0, r3
3000b0b0:	ebffec81 	bl	300062bc <puts>
3000b0b4:	e59d3020 	ldr	r3, [sp, #32]
3000b0b8:	e3c33007 	bic	r3, r3, #7	; 0x7
3000b0bc:	e2833008 	add	r3, r3, #8	; 0x8
3000b0c0:	e58d3020 	str	r3, [sp, #32]
3000b0c4:	ea000003 	b	3000b0d8 <readline_into_buffer+0x82c>
3000b0c8:	e2833001 	add	r3, r3, #1	; 0x1
3000b0cc:	e1a00004 	mov	r0, r4
3000b0d0:	e58d3020 	str	r3, [sp, #32]
3000b0d4:	ebffed11 	bl	30006520 <putc>
3000b0d8:	e4c54001 	strb	r4, [r5], #1
3000b0dc:	e59d3024 	ldr	r3, [sp, #36]
3000b0e0:	e2833001 	add	r3, r3, #1	; 0x1
3000b0e4:	e58d3024 	str	r3, [sp, #36]
3000b0e8:	eaffffa1 	b	3000af74 <readline_into_buffer+0x6c8>
3000b0ec:	e3a00007 	mov	r0, #7	; 0x7
3000b0f0:	ebffed0a 	bl	30006520 <putc>
3000b0f4:	eaffff9e 	b	3000af74 <readline_into_buffer+0x6c8>
3000b0f8:	e28dd02c 	add	sp, sp, #44	; 0x2c
3000b0fc:	e8bd80f0 	pop	{r4, r5, r6, r7, pc}
3000b100:	3001c6c8 	.word	0x3001c6c8
3000b104:	3001bc10 	.word	0x3001bc10
3000b108:	3001dad8 	.word	0x3001dad8
3000b10c:	3001a6b3 	.word	0x3001a6b3
3000b110:	30018e0b 	.word	0x30018e0b
3000b114:	3001e6c0 	.word	0x3001e6c0
3000b118:	3001a6d3 	.word	0x3001a6d3
3000b11c:	3001bc14 	.word	0x3001bc14

3000b120 <readline>:
3000b120:	e59f2010 	ldr	r2, [pc, #16]	; 3000b138 <readline+0x18>
3000b124:	e2421eb9 	sub	r1, r2, #2960	; 0xb90
3000b128:	e3a03000 	mov	r3, #0	; 0x0
3000b12c:	e2411008 	sub	r1, r1, #8	; 0x8
3000b130:	e5423b98 	strb	r3, [r2, #-2968]
3000b134:	eafffddc 	b	3000a8ac <readline_into_buffer>
3000b138:	3001e6c0 	.word	0x3001e6c0

3000b13c <main_loop>:
3000b13c:	e92d41f0 	push	{r4, r5, r6, r7, r8, lr}
3000b140:	ebfff356 	bl	30007ea0 <u_boot_hush_start>
3000b144:	e59f00d8 	ldr	r0, [pc, #216]	; 3000b224 <main_loop+0xe8>
3000b148:	ebffe688 	bl	30004b70 <getenv>
3000b14c:	e3500000 	cmp	r0, #0	; 0x0
3000b150:	03a05003 	moveq	r5, #3	; 0x3
3000b154:	0a000003 	beq	3000b168 <main_loop+0x2c>
3000b158:	e3a01000 	mov	r1, #0	; 0x0
3000b15c:	e3a0200a 	mov	r2, #10	; 0xa
3000b160:	eb000a25 	bl	3000d9fc <simple_strtol>
3000b164:	e1a05000 	mov	r5, r0
3000b168:	e59f00b8 	ldr	r0, [pc, #184]	; 3000b228 <main_loop+0xec>
3000b16c:	ebffe67f 	bl	30004b70 <getenv>
3000b170:	e1e03005 	mvn	r3, r5
3000b174:	e1a03fa3 	lsr	r3, r3, #31
3000b178:	e3500000 	cmp	r0, #0	; 0x0
3000b17c:	03a03000 	moveq	r3, #0	; 0x0
3000b180:	e3530000 	cmp	r3, #0	; 0x0
3000b184:	e1a07000 	mov	r7, r0
3000b188:	0a000023 	beq	3000b21c <main_loop+0xe0>
3000b18c:	e59f0098 	ldr	r0, [pc, #152]	; 3000b22c <main_loop+0xf0>
3000b190:	e1a01005 	mov	r1, r5
3000b194:	ebffec5a 	bl	30006304 <printf>
3000b198:	e3a04000 	mov	r4, #0	; 0x0
3000b19c:	ea000011 	b	3000b1e8 <main_loop+0xac>
3000b1a0:	e3a04000 	mov	r4, #0	; 0x0
3000b1a4:	ebffece4 	bl	3000653c <tstc>
3000b1a8:	e2506000 	subs	r6, r0, #0	; 0x0
3000b1ac:	e2844001 	add	r4, r4, #1	; 0x1
3000b1b0:	e59f0078 	ldr	r0, [pc, #120]	; 3000b230 <main_loop+0xf4>
3000b1b4:	0a000003 	beq	3000b1c8 <main_loop+0x8c>
3000b1b8:	ebffece5 	bl	30006554 <getc>
3000b1bc:	e3a04001 	mov	r4, #1	; 0x1
3000b1c0:	e3a05000 	mov	r5, #0	; 0x0
3000b1c4:	ea000004 	b	3000b1dc <main_loop+0xa0>
3000b1c8:	eb001780 	bl	30010fd0 <udelay>
3000b1cc:	e3540064 	cmp	r4, #100	; 0x64
3000b1d0:	1afffff3 	bne	3000b1a4 <main_loop+0x68>
3000b1d4:	e2455001 	sub	r5, r5, #1	; 0x1
3000b1d8:	e1a04006 	mov	r4, r6
3000b1dc:	e59f0050 	ldr	r0, [pc, #80]	; 3000b234 <main_loop+0xf8>
3000b1e0:	e1a01005 	mov	r1, r5
3000b1e4:	ebffec46 	bl	30006304 <printf>
3000b1e8:	e3550000 	cmp	r5, #0	; 0x0
3000b1ec:	d3a03000 	movle	r3, #0	; 0x0
3000b1f0:	c3a03001 	movgt	r3, #1	; 0x1
3000b1f4:	e3540000 	cmp	r4, #0	; 0x0
3000b1f8:	13a03000 	movne	r3, #0	; 0x0
3000b1fc:	e3530000 	cmp	r3, #0	; 0x0
3000b200:	1affffe6 	bne	3000b1a0 <main_loop+0x64>
3000b204:	e3a0000a 	mov	r0, #10	; 0xa
3000b208:	ebffecc4 	bl	30006520 <putc>
3000b20c:	e3540000 	cmp	r4, #0	; 0x0
3000b210:	01a00007 	moveq	r0, r7
3000b214:	03a01003 	moveq	r1, #3	; 0x3
3000b218:	0bfff7c8 	bleq	30009140 <parse_string_outer>
3000b21c:	ebfff7b6 	bl	300090fc <parse_file_outer>
3000b220:	eafffffe 	b	3000b220 <main_loop+0xe4>
3000b224:	3001a6d6 	.word	0x3001a6d6
3000b228:	30017574 	.word	0x30017574
3000b22c:	3001a6e0 	.word	0x3001a6e0
3000b230:	00002710 	.word	0x00002710
3000b234:	3001a703 	.word	0x3001a703

3000b238 <hex1_bin>:
3000b238:	e2402030 	sub	r2, r0, #48	; 0x30
3000b23c:	e20230ff 	and	r3, r2, #255	; 0xff
3000b240:	e3530009 	cmp	r3, #9	; 0x9
3000b244:	91a00002 	movls	r0, r2
3000b248:	91a0f00e 	movls	pc, lr
3000b24c:	e2403061 	sub	r3, r0, #97	; 0x61
3000b250:	e3530005 	cmp	r3, #5	; 0x5
3000b254:	92400057 	subls	r0, r0, #87	; 0x57
3000b258:	91a0f00e 	movls	pc, lr
3000b25c:	e2403041 	sub	r3, r0, #65	; 0x41
3000b260:	e3530005 	cmp	r3, #5	; 0x5
3000b264:	83e00000 	mvnhi	r0, #0	; 0x0
3000b268:	92400037 	subls	r0, r0, #55	; 0x37
3000b26c:	e1a0f00e 	mov	pc, lr

3000b270 <hex2_bin>:
3000b270:	e92d4070 	push	{r4, r5, r6, lr}
3000b274:	e1a04000 	mov	r4, r0
3000b278:	e5d00000 	ldrb	r0, [r0]
3000b27c:	ebffffed 	bl	3000b238 <hex1_bin>
3000b280:	e2505000 	subs	r5, r0, #0	; 0x0
3000b284:	ba000004 	blt	3000b29c <hex2_bin+0x2c>
3000b288:	e5d40001 	ldrb	r0, [r4, #1]
3000b28c:	ebffffe9 	bl	3000b238 <hex1_bin>
3000b290:	e3500000 	cmp	r0, #0	; 0x0
3000b294:	a0800205 	addge	r0, r0, r5, lsl #4
3000b298:	a8bd8070 	popge	{r4, r5, r6, pc}
3000b29c:	e3e00000 	mvn	r0, #0	; 0x0
3000b2a0:	e8bd8070 	pop	{r4, r5, r6, pc}

3000b2a4 <srec_decode>:
3000b2a4:	e92d4ef3 	push	{r0, r1, r4, r5, r6, r7, r9, sl, fp, lr}
3000b2a8:	e1a0a001 	mov	sl, r1
3000b2ac:	e1a0b002 	mov	fp, r2
3000b2b0:	e58d3004 	str	r3, [sp, #4]
3000b2b4:	ea000003 	b	3000b2c8 <srec_decode+0x24>
3000b2b8:	e3530053 	cmp	r3, #83	; 0x53
3000b2bc:	01a00002 	moveq	r0, r2
3000b2c0:	0a000004 	beq	3000b2d8 <srec_decode+0x34>
3000b2c4:	e1a00002 	mov	r0, r2
3000b2c8:	e5d03000 	ldrb	r3, [r0]
3000b2cc:	e3530000 	cmp	r3, #0	; 0x0
3000b2d0:	e2802001 	add	r2, r0, #1	; 0x1
3000b2d4:	1afffff7 	bne	3000b2b8 <srec_decode+0x14>
3000b2d8:	e5d04000 	ldrb	r4, [r0]
3000b2dc:	e3540000 	cmp	r4, #0	; 0x0
3000b2e0:	03a0600a 	moveq	r6, #10	; 0xa
3000b2e4:	0a000087 	beq	3000b508 <srec_decode+0x264>
3000b2e8:	e2805001 	add	r5, r0, #1	; 0x1
3000b2ec:	e1a00005 	mov	r0, r5
3000b2f0:	ebffffde 	bl	3000b270 <hex2_bin>
3000b2f4:	e3500000 	cmp	r0, #0	; 0x0
3000b2f8:	e58a0000 	str	r0, [sl]
3000b2fc:	ba00007e 	blt	3000b4fc <srec_decode+0x258>
3000b300:	e2443030 	sub	r3, r4, #48	; 0x30
3000b304:	e3530009 	cmp	r3, #9	; 0x9
3000b308:	979ff103 	ldrls	pc, [pc, r3, lsl #2]
3000b30c:	ea00007c 	b	3000b504 <srec_decode+0x260>
3000b310:	3000b338 	.word	0x3000b338
3000b314:	3000b348 	.word	0x3000b348
3000b318:	3000b358 	.word	0x3000b358
3000b31c:	3000b368 	.word	0x3000b368
3000b320:	3000b504 	.word	0x3000b504
3000b324:	3000b378 	.word	0x3000b378
3000b328:	3000b504 	.word	0x3000b504
3000b32c:	3000b388 	.word	0x3000b388
3000b330:	3000b398 	.word	0x3000b398
3000b334:	3000b3a8 	.word	0x3000b3a8
3000b338:	e2403003 	sub	r3, r0, #3	; 0x3
3000b33c:	e58a3000 	str	r3, [sl]
3000b340:	e3a06000 	mov	r6, #0	; 0x0
3000b344:	ea00001a 	b	3000b3b4 <srec_decode+0x110>
3000b348:	e2403003 	sub	r3, r0, #3	; 0x3
3000b34c:	e58a3000 	str	r3, [sl]
3000b350:	e3a06001 	mov	r6, #1	; 0x1
3000b354:	ea000016 	b	3000b3b4 <srec_decode+0x110>
3000b358:	e2403004 	sub	r3, r0, #4	; 0x4
3000b35c:	e58a3000 	str	r3, [sl]
3000b360:	e3a06002 	mov	r6, #2	; 0x2
3000b364:	ea000012 	b	3000b3b4 <srec_decode+0x110>
3000b368:	e2403005 	sub	r3, r0, #5	; 0x5
3000b36c:	e58a3000 	str	r3, [sl]
3000b370:	e3a06003 	mov	r6, #3	; 0x3
3000b374:	ea00000e 	b	3000b3b4 <srec_decode+0x110>
3000b378:	e3a03000 	mov	r3, #0	; 0x0
3000b37c:	e58a3000 	str	r3, [sl]
3000b380:	e3a06005 	mov	r6, #5	; 0x5
3000b384:	ea00000a 	b	3000b3b4 <srec_decode+0x110>
3000b388:	e2403005 	sub	r3, r0, #5	; 0x5
3000b38c:	e58a3000 	str	r3, [sl]
3000b390:	e3a06007 	mov	r6, #7	; 0x7
3000b394:	ea000006 	b	3000b3b4 <srec_decode+0x110>
3000b398:	e2403004 	sub	r3, r0, #4	; 0x4
3000b39c:	e58a3000 	str	r3, [sl]
3000b3a0:	e3a06008 	mov	r6, #8	; 0x8
3000b3a4:	ea000002 	b	3000b3b4 <srec_decode+0x110>
3000b3a8:	e2403003 	sub	r3, r0, #3	; 0x3
3000b3ac:	e58a3000 	str	r3, [sl]
3000b3b0:	e3a06009 	mov	r6, #9	; 0x9
3000b3b4:	e2442030 	sub	r2, r4, #48	; 0x30
3000b3b8:	e20230ff 	and	r3, r2, #255	; 0xff
3000b3bc:	e3530009 	cmp	r3, #9	; 0x9
3000b3c0:	e3a03000 	mov	r3, #0	; 0x0
3000b3c4:	e58b3000 	str	r3, [fp]
3000b3c8:	e20070ff 	and	r7, r0, #255	; 0xff
3000b3cc:	e2854002 	add	r4, r5, #2	; 0x2
3000b3d0:	8a00004b 	bhi	3000b504 <srec_decode+0x260>
3000b3d4:	e1a03c02 	lsl	r3, r2, #24
3000b3d8:	e1a03c43 	asr	r3, r3, #24
3000b3dc:	e3a02001 	mov	r2, #1	; 0x1
3000b3e0:	e1a02312 	lsl	r2, r2, r3
3000b3e4:	e59f3124 	ldr	r3, [pc, #292]	; 3000b510 <srec_decode+0x26c>
3000b3e8:	e0023003 	and	r3, r2, r3
3000b3ec:	e3530000 	cmp	r3, #0	; 0x0
3000b3f0:	1a000016 	bne	3000b450 <srec_decode+0x1ac>
3000b3f4:	e3120088 	tst	r2, #136	; 0x88
3000b3f8:	1a000002 	bne	3000b408 <srec_decode+0x164>
3000b3fc:	e3120f41 	tst	r2, #260	; 0x104
3000b400:	1a000008 	bne	3000b428 <srec_decode+0x184>
3000b404:	ea00003e 	b	3000b504 <srec_decode+0x260>
3000b408:	e1a00004 	mov	r0, r4
3000b40c:	ebffff97 	bl	3000b270 <hex2_bin>
3000b410:	e3500000 	cmp	r0, #0	; 0x0
3000b414:	ba000038 	blt	3000b4fc <srec_decode+0x258>
3000b418:	e0873000 	add	r3, r7, r0
3000b41c:	e58b0000 	str	r0, [fp]
3000b420:	e20370ff 	and	r7, r3, #255	; 0xff
3000b424:	e2844002 	add	r4, r4, #2	; 0x2
3000b428:	e1a00004 	mov	r0, r4
3000b42c:	ebffff8f 	bl	3000b270 <hex2_bin>
3000b430:	e3500000 	cmp	r0, #0	; 0x0
3000b434:	ba000030 	blt	3000b4fc <srec_decode+0x258>
3000b438:	e59b3000 	ldr	r3, [fp]
3000b43c:	e0803403 	add	r3, r0, r3, lsl #8
3000b440:	e0872000 	add	r2, r7, r0
3000b444:	e58b3000 	str	r3, [fp]
3000b448:	e20270ff 	and	r7, r2, #255	; 0xff
3000b44c:	e2844002 	add	r4, r4, #2	; 0x2
3000b450:	e1a00004 	mov	r0, r4
3000b454:	ebffff85 	bl	3000b270 <hex2_bin>
3000b458:	e2505000 	subs	r5, r0, #0	; 0x0
3000b45c:	ba000026 	blt	3000b4fc <srec_decode+0x258>
3000b460:	e59b3000 	ldr	r3, [fp]
3000b464:	e2849002 	add	r9, r4, #2	; 0x2
3000b468:	e0854403 	add	r4, r5, r3, lsl #8
3000b46c:	e58b4000 	str	r4, [fp]
3000b470:	e1a00009 	mov	r0, r9
3000b474:	ebffff7d 	bl	3000b270 <hex2_bin>
3000b478:	e3500000 	cmp	r0, #0	; 0x0
3000b47c:	ba00001e 	blt	3000b4fc <srec_decode+0x258>
3000b480:	e0803005 	add	r3, r0, r5
3000b484:	e0802404 	add	r2, r0, r4, lsl #8
3000b488:	e0833007 	add	r3, r3, r7
3000b48c:	e58b2000 	str	r2, [fp]
3000b490:	e20370ff 	and	r7, r3, #255	; 0xff
3000b494:	e2895002 	add	r5, r9, #2	; 0x2
3000b498:	e3a04000 	mov	r4, #0	; 0x0
3000b49c:	ea000009 	b	3000b4c8 <srec_decode+0x224>
3000b4a0:	ebffff72 	bl	3000b270 <hex2_bin>
3000b4a4:	e3500000 	cmp	r0, #0	; 0x0
3000b4a8:	e20000ff 	and	r0, r0, #255	; 0xff
3000b4ac:	e0873000 	add	r3, r7, r0
3000b4b0:	e20370ff 	and	r7, r3, #255	; 0xff
3000b4b4:	e2855002 	add	r5, r5, #2	; 0x2
3000b4b8:	ba00000f 	blt	3000b4fc <srec_decode+0x258>
3000b4bc:	e59d3004 	ldr	r3, [sp, #4]
3000b4c0:	e7c30004 	strb	r0, [r3, r4]
3000b4c4:	e2844001 	add	r4, r4, #1	; 0x1
3000b4c8:	e59a3000 	ldr	r3, [sl]
3000b4cc:	e1540003 	cmp	r4, r3
3000b4d0:	e1a00005 	mov	r0, r5
3000b4d4:	bafffff1 	blt	3000b4a0 <srec_decode+0x1fc>
3000b4d8:	ebffff64 	bl	3000b270 <hex2_bin>
3000b4dc:	e3500000 	cmp	r0, #0	; 0x0
3000b4e0:	ba000005 	blt	3000b4fc <srec_decode+0x258>
3000b4e4:	e1e03007 	mvn	r3, r7
3000b4e8:	e20020ff 	and	r2, r0, #255	; 0xff
3000b4ec:	e20330ff 	and	r3, r3, #255	; 0xff
3000b4f0:	e1520003 	cmp	r2, r3
3000b4f4:	13e06002 	mvnne	r6, #2	; 0x2
3000b4f8:	ea000002 	b	3000b508 <srec_decode+0x264>
3000b4fc:	e3e06001 	mvn	r6, #1	; 0x1
3000b500:	ea000000 	b	3000b508 <srec_decode+0x264>
3000b504:	e3e06000 	mvn	r6, #0	; 0x0
3000b508:	e1a00006 	mov	r0, r6
3000b50c:	e8bd8efc 	pop	{r2, r3, r4, r5, r6, r7, r9, sl, fp, pc}
3000b510:	00000223 	.word	0x00000223

3000b514 <stdio_get_list>:
3000b514:	e59f0000 	ldr	r0, [pc, #0]	; 3000b51c <stdio_get_list+0x8>
3000b518:	e1a0f00e 	mov	pc, lr
3000b51c:	3001dc5c 	.word	0x3001dc5c

3000b520 <stdio_clone>:
3000b520:	e92d4070 	push	{r4, r5, r6, lr}
3000b524:	e2505000 	subs	r5, r0, #0	; 0x0
3000b528:	01a04005 	moveq	r4, r5
3000b52c:	0a00000b 	beq	3000b560 <stdio_clone+0x40>
3000b530:	e3a00001 	mov	r0, #1	; 0x1
3000b534:	e3a0103c 	mov	r1, #60	; 0x3c
3000b538:	ebffeee6 	bl	300070d8 <calloc>
3000b53c:	e2504000 	subs	r4, r0, #0	; 0x0
3000b540:	0a000006 	beq	3000b560 <stdio_clone+0x40>
3000b544:	e1a01005 	mov	r1, r5
3000b548:	e3a0203c 	mov	r2, #60	; 0x3c
3000b54c:	eb00086f 	bl	3000d710 <memcpy>
3000b550:	e2851008 	add	r1, r5, #8	; 0x8
3000b554:	e2840008 	add	r0, r4, #8	; 0x8
3000b558:	e3a02010 	mov	r2, #16	; 0x10
3000b55c:	eb000763 	bl	3000d2f0 <strncpy>
3000b560:	e1a00004 	mov	r0, r4
3000b564:	e8bd8070 	pop	{r4, r5, r6, pc}

3000b568 <stdio_register>:
3000b568:	e92d4010 	push	{r4, lr}
3000b56c:	ebffffeb 	bl	3000b520 <stdio_clone>
3000b570:	e250c000 	subs	ip, r0, #0	; 0x0
3000b574:	03e00000 	mvneq	r0, #0	; 0x0
3000b578:	08bd8010 	popeq	{r4, pc}
3000b57c:	e59f3020 	ldr	r3, [pc, #32]	; 3000b5a4 <stdio_register+0x3c>
3000b580:	e5930038 	ldr	r0, [r3, #56]
3000b584:	e28c1034 	add	r1, ip, #52	; 0x34
3000b588:	e2832034 	add	r2, r3, #52	; 0x34
3000b58c:	e58c2034 	str	r2, [ip, #52]
3000b590:	e5831038 	str	r1, [r3, #56]
3000b594:	e5801000 	str	r1, [r0]
3000b598:	e58c0038 	str	r0, [ip, #56]
3000b59c:	e3a00000 	mov	r0, #0	; 0x0
3000b5a0:	e8bd8010 	pop	{r4, pc}
3000b5a4:	3001dc28 	.word	0x3001dc28

3000b5a8 <stdio_init>:
3000b5a8:	e92d4010 	push	{r4, lr}
3000b5ac:	e59f3068 	ldr	r3, [pc, #104]	; 3000b61c <stdio_init+0x74>
3000b5b0:	e24dd040 	sub	sp, sp, #64	; 0x40
3000b5b4:	e283c034 	add	ip, r3, #52	; 0x34
3000b5b8:	e28d4004 	add	r4, sp, #4	; 0x4
3000b5bc:	e583c038 	str	ip, [r3, #56]
3000b5c0:	e583c034 	str	ip, [r3, #52]
3000b5c4:	e3a0203c 	mov	r2, #60	; 0x3c
3000b5c8:	e3a01000 	mov	r1, #0	; 0x0
3000b5cc:	e1a00004 	mov	r0, r4
3000b5d0:	eb000824 	bl	3000d668 <memset>
3000b5d4:	e59f1044 	ldr	r1, [pc, #68]	; 3000b620 <stdio_init+0x78>
3000b5d8:	e2840008 	add	r0, r4, #8	; 0x8
3000b5dc:	eb00073c 	bl	3000d2d4 <strcpy>
3000b5e0:	e3a0310e 	mov	r3, #-2147483645	; 0x80000003
3000b5e4:	e58d3004 	str	r3, [sp, #4]
3000b5e8:	e59f3034 	ldr	r3, [pc, #52]	; 3000b624 <stdio_init+0x7c>
3000b5ec:	e58d3024 	str	r3, [sp, #36]
3000b5f0:	e59f3030 	ldr	r3, [pc, #48]	; 3000b628 <stdio_init+0x80>
3000b5f4:	e58d3028 	str	r3, [sp, #40]
3000b5f8:	e59f302c 	ldr	r3, [pc, #44]	; 3000b62c <stdio_init+0x84>
3000b5fc:	e58d3030 	str	r3, [sp, #48]
3000b600:	e59f3028 	ldr	r3, [pc, #40]	; 3000b630 <stdio_init+0x88>
3000b604:	e1a00004 	mov	r0, r4
3000b608:	e58d302c 	str	r3, [sp, #44]
3000b60c:	ebffffd5 	bl	3000b568 <stdio_register>
3000b610:	e3a00000 	mov	r0, #0	; 0x0
3000b614:	e28dd040 	add	sp, sp, #64	; 0x40
3000b618:	e8bd8010 	pop	{r4, pc}
3000b61c:	3001dc28 	.word	0x3001dc28
3000b620:	3001a70b 	.word	0x3001a70b
3000b624:	3000076c 	.word	0x3000076c
3000b628:	300007f4 	.word	0x300007f4
3000b62c:	30000764 	.word	0x30000764
3000b630:	300007bc 	.word	0x300007bc

3000b634 <stdio_get_by_name>:
3000b634:	e92d4070 	push	{r4, r5, r6, lr}
3000b638:	e2506000 	subs	r6, r0, #0	; 0x0
3000b63c:	159f303c 	ldrne	r3, [pc, #60]	; 3000b680 <stdio_get_by_name+0x4c>
3000b640:	15934034 	ldrne	r4, [r3, #52]
3000b644:	0a00000a 	beq	3000b674 <stdio_get_by_name+0x40>
3000b648:	ea000003 	b	3000b65c <stdio_get_by_name+0x28>
3000b64c:	eb000757 	bl	3000d3b0 <strcmp>
3000b650:	e3500000 	cmp	r0, #0	; 0x0
3000b654:	0a000007 	beq	3000b678 <stdio_get_by_name+0x44>
3000b658:	e5944000 	ldr	r4, [r4]
3000b65c:	e59f3020 	ldr	r3, [pc, #32]	; 3000b684 <stdio_get_by_name+0x50>
3000b660:	e2445034 	sub	r5, r4, #52	; 0x34
3000b664:	e1540003 	cmp	r4, r3
3000b668:	e2850008 	add	r0, r5, #8	; 0x8
3000b66c:	e1a01006 	mov	r1, r6
3000b670:	1afffff5 	bne	3000b64c <stdio_get_by_name+0x18>
3000b674:	e3a05000 	mov	r5, #0	; 0x0
3000b678:	e1a00005 	mov	r0, r5
3000b67c:	e8bd8070 	pop	{r4, r5, r6, pc}
3000b680:	3001dc28 	.word	0x3001dc28
3000b684:	3001dc5c 	.word	0x3001dc5c

3000b688 <parse_num>:
3000b688:	e92d44f0 	push	{r4, r5, r6, r7, sl, lr}
3000b68c:	e1a0a001 	mov	sl, r1
3000b690:	e1a07002 	mov	r7, r2
3000b694:	e1a06003 	mov	r6, r3
3000b698:	ea000000 	b	3000b6a0 <parse_num+0x18>
3000b69c:	e2800001 	add	r0, r0, #1	; 0x1
3000b6a0:	e5d03000 	ldrb	r3, [r0]
3000b6a4:	e3530020 	cmp	r3, #32	; 0x20
3000b6a8:	0afffffb 	beq	3000b69c <parse_num+0x14>
3000b6ac:	ea000032 	b	3000b77c <parse_num+0xf4>
3000b6b0:	e3520000 	cmp	r2, #0	; 0x0
3000b6b4:	0a000009 	beq	3000b6e0 <parse_num+0x58>
3000b6b8:	e3530030 	cmp	r3, #48	; 0x30
3000b6bc:	1a000007 	bne	3000b6e0 <parse_num+0x58>
3000b6c0:	e5d02001 	ldrb	r2, [r0, #1]
3000b6c4:	e2423041 	sub	r3, r2, #65	; 0x41
3000b6c8:	e3530019 	cmp	r3, #25	; 0x19
3000b6cc:	92823020 	addls	r3, r2, #32	; 0x20
3000b6d0:	920320ff 	andls	r2, r3, #255	; 0xff
3000b6d4:	e3520078 	cmp	r2, #120	; 0x78
3000b6d8:	02800002 	addeq	r0, r0, #2	; 0x2
3000b6dc:	03a04010 	moveq	r4, #16	; 0x10
3000b6e0:	e4d0c001 	ldrb	ip, [r0], #1
3000b6e4:	e24c3030 	sub	r3, ip, #48	; 0x30
3000b6e8:	e24c2041 	sub	r2, ip, #65	; 0x41
3000b6ec:	e3530009 	cmp	r3, #9	; 0x9
3000b6f0:	83a01000 	movhi	r1, #0	; 0x0
3000b6f4:	93a01001 	movls	r1, #1	; 0x1
3000b6f8:	e3520005 	cmp	r2, #5	; 0x5
3000b6fc:	83a02000 	movhi	r2, #0	; 0x0
3000b700:	93a02001 	movls	r2, #1	; 0x1
3000b704:	e1913002 	orrs	r3, r1, r2
3000b708:	1a000002 	bne	3000b718 <parse_num+0x90>
3000b70c:	e24c3061 	sub	r3, ip, #97	; 0x61
3000b710:	e3530005 	cmp	r3, #5	; 0x5
3000b714:	8a00000e 	bhi	3000b754 <parse_num+0xcc>
3000b718:	e3510000 	cmp	r1, #0	; 0x0
3000b71c:	124c2030 	subne	r2, ip, #48	; 0x30
3000b720:	1a000006 	bne	3000b740 <parse_num+0xb8>
3000b724:	e24c3061 	sub	r3, ip, #97	; 0x61
3000b728:	e3530005 	cmp	r3, #5	; 0x5
3000b72c:	924c2057 	subls	r2, ip, #87	; 0x57
3000b730:	9a000002 	bls	3000b740 <parse_num+0xb8>
3000b734:	e3520000 	cmp	r2, #0	; 0x0
3000b738:	0a000002 	beq	3000b748 <parse_num+0xc0>
3000b73c:	e24c2037 	sub	r2, ip, #55	; 0x37
3000b740:	e1520004 	cmp	r2, r4
3000b744:	aa000002 	bge	3000b754 <parse_num+0xcc>
3000b748:	e0252594 	mla	r5, r4, r5, r2
3000b74c:	e3a02000 	mov	r2, #0	; 0x0
3000b750:	ea00000c 	b	3000b788 <parse_num+0x100>
3000b754:	e3560000 	cmp	r6, #0	; 0x0
3000b758:	0a000012 	beq	3000b7a8 <parse_num+0x120>
3000b75c:	e3a03000 	mov	r3, #0	; 0x0
3000b760:	e7d62003 	ldrb	r2, [r6, r3]
3000b764:	e3520000 	cmp	r2, #0	; 0x0
3000b768:	e2833001 	add	r3, r3, #1	; 0x1
3000b76c:	0a00000d 	beq	3000b7a8 <parse_num+0x120>
3000b770:	e15c0002 	cmp	ip, r2
3000b774:	1afffff9 	bne	3000b760 <parse_num+0xd8>
3000b778:	ea000005 	b	3000b794 <parse_num+0x10c>
3000b77c:	e3a02001 	mov	r2, #1	; 0x1
3000b780:	e3a0400a 	mov	r4, #10	; 0xa
3000b784:	e3a05000 	mov	r5, #0	; 0x0
3000b788:	e5d03000 	ldrb	r3, [r0]
3000b78c:	e3530000 	cmp	r3, #0	; 0x0
3000b790:	1affffc6 	bne	3000b6b0 <parse_num+0x28>
3000b794:	e3570000 	cmp	r7, #0	; 0x0
3000b798:	15870000 	strne	r0, [r7]
3000b79c:	e58a5000 	str	r5, [sl]
3000b7a0:	e3a00001 	mov	r0, #1	; 0x1
3000b7a4:	e8bd84f0 	pop	{r4, r5, r6, r7, sl, pc}
3000b7a8:	e3a00000 	mov	r0, #0	; 0x0
3000b7ac:	e8bd84f0 	pop	{r4, r5, r6, r7, sl, pc}

3000b7b0 <xyzModem_error>:
3000b7b0:	e2800008 	add	r0, r0, #8	; 0x8
3000b7b4:	e3500007 	cmp	r0, #7	; 0x7
3000b7b8:	979ff100 	ldrls	pc, [pc, r0, lsl #2]
3000b7bc:	ea000017 	b	3000b820 <xyzModem_error+0x70>
3000b7c0:	3000b818 	.word	0x3000b818
3000b7c4:	3000b810 	.word	0x3000b810
3000b7c8:	3000b808 	.word	0x3000b808
3000b7cc:	3000b800 	.word	0x3000b800
3000b7d0:	3000b7f8 	.word	0x3000b7f8
3000b7d4:	3000b7f0 	.word	0x3000b7f0
3000b7d8:	3000b7e0 	.word	0x3000b7e0
3000b7dc:	3000b7e8 	.word	0x3000b7e8
3000b7e0:	e59f0040 	ldr	r0, [pc, #64]	; 3000b828 <xyzModem_error+0x78>
3000b7e4:	e1a0f00e 	mov	pc, lr
3000b7e8:	e59f003c 	ldr	r0, [pc, #60]	; 3000b82c <xyzModem_error+0x7c>
3000b7ec:	e1a0f00e 	mov	pc, lr
3000b7f0:	e59f0038 	ldr	r0, [pc, #56]	; 3000b830 <xyzModem_error+0x80>
3000b7f4:	e1a0f00e 	mov	pc, lr
3000b7f8:	e59f0034 	ldr	r0, [pc, #52]	; 3000b834 <xyzModem_error+0x84>
3000b7fc:	e1a0f00e 	mov	pc, lr
3000b800:	e59f0030 	ldr	r0, [pc, #48]	; 3000b838 <xyzModem_error+0x88>
3000b804:	e1a0f00e 	mov	pc, lr
3000b808:	e59f002c 	ldr	r0, [pc, #44]	; 3000b83c <xyzModem_error+0x8c>
3000b80c:	e1a0f00e 	mov	pc, lr
3000b810:	e59f0028 	ldr	r0, [pc, #40]	; 3000b840 <xyzModem_error+0x90>
3000b814:	e1a0f00e 	mov	pc, lr
3000b818:	e59f0024 	ldr	r0, [pc, #36]	; 3000b844 <xyzModem_error+0x94>
3000b81c:	e1a0f00e 	mov	pc, lr
3000b820:	e59f0020 	ldr	r0, [pc, #32]	; 3000b848 <xyzModem_error+0x98>
3000b824:	e1a0f00e 	mov	pc, lr
3000b828:	3001a712 	.word	0x3001a712
3000b82c:	3001a732 	.word	0x3001a732
3000b830:	3001a744 	.word	0x3001a744
3000b834:	3001a74e 	.word	0x3001a74e
3000b838:	3001a75a 	.word	0x3001a75a
3000b83c:	3001a764 	.word	0x3001a764
3000b840:	3001a774 	.word	0x3001a774
3000b844:	3001a787 	.word	0x3001a787
3000b848:	3001a79c 	.word	0x3001a79c

3000b84c <xyzModem_stream_close>:
3000b84c:	e92d4007 	push	{r0, r1, r2, lr}
3000b850:	e59f2030 	ldr	r2, [pc, #48]	; 3000b888 <xyzModem_stream_close+0x3c>
3000b854:	e5920428 	ldr	r0, [r2, #1064]
3000b858:	e59f302c 	ldr	r3, [pc, #44]	; 3000b88c <xyzModem_stream_close+0x40>
3000b85c:	e592c424 	ldr	ip, [r2, #1060]
3000b860:	e592e418 	ldr	lr, [r2, #1048]
3000b864:	e3500000 	cmp	r0, #0	; 0x0
3000b868:	e59f1020 	ldr	r1, [pc, #32]	; 3000b890 <xyzModem_stream_close+0x44>
3000b86c:	e59f0020 	ldr	r0, [pc, #32]	; 3000b894 <xyzModem_stream_close+0x48>
3000b870:	01a01003 	moveq	r1, r3
3000b874:	e5923420 	ldr	r3, [r2, #1056]
3000b878:	e592241c 	ldr	r2, [r2, #1052]
3000b87c:	e88d5000 	stm	sp, {ip, lr}
3000b880:	ebffea9f 	bl	30006304 <printf>
3000b884:	e8bd800e 	pop	{r1, r2, r3, pc}
3000b888:	3001dc70 	.word	0x3001dc70
3000b88c:	3001a7aa 	.word	0x3001a7aa
3000b890:	3001a7b0 	.word	0x3001a7b0
3000b894:	3001a7b4 	.word	0x3001a7b4

3000b898 <CYGACC_COMM_IF_PUTC>:
3000b898:	e1a00001 	mov	r0, r1
3000b89c:	eaffeb1f 	b	30006520 <putc>

3000b8a0 <CYGACC_COMM_IF_GETC_TIMEOUT>:
3000b8a0:	e92d4070 	push	{r4, r5, r6, lr}
3000b8a4:	e1a05001 	mov	r5, r1
3000b8a8:	e3a04000 	mov	r4, #0	; 0x0
3000b8ac:	ea000000 	b	3000b8b4 <CYGACC_COMM_IF_GETC_TIMEOUT+0x14>
3000b8b0:	eb0015c6 	bl	30010fd0 <udelay>
3000b8b4:	ebffeb20 	bl	3000653c <tstc>
3000b8b8:	e3500000 	cmp	r0, #0	; 0x0
3000b8bc:	e3a00014 	mov	r0, #20	; 0x14
3000b8c0:	1a000003 	bne	3000b8d4 <CYGACC_COMM_IF_GETC_TIMEOUT+0x34>
3000b8c4:	e59f3024 	ldr	r3, [pc, #36]	; 3000b8f0 <CYGACC_COMM_IF_GETC_TIMEOUT+0x50>
3000b8c8:	e1540003 	cmp	r4, r3
3000b8cc:	e2844001 	add	r4, r4, #1	; 0x1
3000b8d0:	1afffff6 	bne	3000b8b0 <CYGACC_COMM_IF_GETC_TIMEOUT+0x10>
3000b8d4:	ebffeb18 	bl	3000653c <tstc>
3000b8d8:	e3500000 	cmp	r0, #0	; 0x0
3000b8dc:	08bd8070 	popeq	{r4, r5, r6, pc}
3000b8e0:	ebffeb1b 	bl	30006554 <getc>
3000b8e4:	e5c50000 	strb	r0, [r5]
3000b8e8:	e3a00001 	mov	r0, #1	; 0x1
3000b8ec:	e8bd8070 	pop	{r4, r5, r6, pc}
3000b8f0:	000186a0 	.word	0x000186a0

3000b8f4 <xyzModem_flush>:
3000b8f4:	e92d4007 	push	{r0, r1, r2, lr}
3000b8f8:	e59f3018 	ldr	r3, [pc, #24]	; 3000b918 <xyzModem_flush+0x24>
3000b8fc:	e5933000 	ldr	r3, [r3]
3000b900:	e28d1007 	add	r1, sp, #7	; 0x7
3000b904:	e5d30000 	ldrb	r0, [r3]
3000b908:	ebffffe4 	bl	3000b8a0 <CYGACC_COMM_IF_GETC_TIMEOUT>
3000b90c:	e3500000 	cmp	r0, #0	; 0x0
3000b910:	1afffff8 	bne	3000b8f8 <xyzModem_flush+0x4>
3000b914:	e8bd800e 	pop	{r1, r2, r3, pc}
3000b918:	3001dc70 	.word	0x3001dc70

3000b91c <xyzModem_stream_terminate>:
3000b91c:	e3500000 	cmp	r0, #0	; 0x0
3000b920:	e92d4010 	push	{r4, lr}
3000b924:	e1a04001 	mov	r4, r1
3000b928:	0a000028 	beq	3000b9d0 <xyzModem_stream_terminate+0xb4>
3000b92c:	e59f40b8 	ldr	r4, [pc, #184]	; 3000b9ec <xyzModem_stream_terminate+0xd0>
3000b930:	e5943414 	ldr	r3, [r4, #1044]
3000b934:	e2433001 	sub	r3, r3, #1	; 0x1
3000b938:	e3530001 	cmp	r3, #1	; 0x1
3000b93c:	88bd8010 	pophi	{r4, pc}
3000b940:	e5943000 	ldr	r3, [r4]
3000b944:	e3a01018 	mov	r1, #24	; 0x18
3000b948:	e5d30000 	ldrb	r0, [r3]
3000b94c:	ebffffd1 	bl	3000b898 <CYGACC_COMM_IF_PUTC>
3000b950:	e5943000 	ldr	r3, [r4]
3000b954:	e3a01018 	mov	r1, #24	; 0x18
3000b958:	e5d30000 	ldrb	r0, [r3]
3000b95c:	ebffffcd 	bl	3000b898 <CYGACC_COMM_IF_PUTC>
3000b960:	e5943000 	ldr	r3, [r4]
3000b964:	e3a01018 	mov	r1, #24	; 0x18
3000b968:	e5d30000 	ldrb	r0, [r3]
3000b96c:	ebffffc9 	bl	3000b898 <CYGACC_COMM_IF_PUTC>
3000b970:	e5943000 	ldr	r3, [r4]
3000b974:	e3a01018 	mov	r1, #24	; 0x18
3000b978:	e5d30000 	ldrb	r0, [r3]
3000b97c:	ebffffc5 	bl	3000b898 <CYGACC_COMM_IF_PUTC>
3000b980:	e5943000 	ldr	r3, [r4]
3000b984:	e3a01008 	mov	r1, #8	; 0x8
3000b988:	e5d30000 	ldrb	r0, [r3]
3000b98c:	ebffffc1 	bl	3000b898 <CYGACC_COMM_IF_PUTC>
3000b990:	e5943000 	ldr	r3, [r4]
3000b994:	e3a01008 	mov	r1, #8	; 0x8
3000b998:	e5d30000 	ldrb	r0, [r3]
3000b99c:	ebffffbd 	bl	3000b898 <CYGACC_COMM_IF_PUTC>
3000b9a0:	e5943000 	ldr	r3, [r4]
3000b9a4:	e3a01008 	mov	r1, #8	; 0x8
3000b9a8:	e5d30000 	ldrb	r0, [r3]
3000b9ac:	ebffffb9 	bl	3000b898 <CYGACC_COMM_IF_PUTC>
3000b9b0:	e5943000 	ldr	r3, [r4]
3000b9b4:	e3a01008 	mov	r1, #8	; 0x8
3000b9b8:	e5d30000 	ldrb	r0, [r3]
3000b9bc:	ebffffb5 	bl	3000b898 <CYGACC_COMM_IF_PUTC>
3000b9c0:	ebffffcb 	bl	3000b8f4 <xyzModem_flush>
3000b9c4:	e3a03001 	mov	r3, #1	; 0x1
3000b9c8:	e584342c 	str	r3, [r4, #1068]
3000b9cc:	e8bd8010 	pop	{r4, pc}
3000b9d0:	e1a0e00f 	mov	lr, pc
3000b9d4:	e1a0f004 	mov	pc, r4
3000b9d8:	e3500000 	cmp	r0, #0	; 0x0
3000b9dc:	aafffffb 	bge	3000b9d0 <xyzModem_stream_terminate+0xb4>
3000b9e0:	e59f0008 	ldr	r0, [pc, #8]	; 3000b9f0 <xyzModem_stream_terminate+0xd4>
3000b9e4:	e8bd4010 	pop	{r4, lr}
3000b9e8:	ea001578 	b	30010fd0 <udelay>
3000b9ec:	3001dc70 	.word	0x3001dc70
3000b9f0:	0003d090 	.word	0x0003d090

3000b9f4 <xyzModem_get_hdr>:
3000b9f4:	e92d4073 	push	{r0, r1, r4, r5, r6, lr}
3000b9f8:	e59f4260 	ldr	r4, [pc, #608]	; 3000bc60 <xyzModem_get_hdr+0x26c>
3000b9fc:	e5943430 	ldr	r3, [r4, #1072]
3000ba00:	e3530000 	cmp	r3, #0	; 0x0
3000ba04:	0a000005 	beq	3000ba20 <xyzModem_get_hdr+0x2c>
3000ba08:	e5943000 	ldr	r3, [r4]
3000ba0c:	e3a01006 	mov	r1, #6	; 0x6
3000ba10:	e5d30000 	ldrb	r0, [r3]
3000ba14:	ebffff9f 	bl	3000b898 <CYGACC_COMM_IF_PUTC>
3000ba18:	e3a03000 	mov	r3, #0	; 0x0
3000ba1c:	e5843430 	str	r3, [r4, #1072]
3000ba20:	e3a05000 	mov	r5, #0	; 0x0
3000ba24:	e1a06005 	mov	r6, r5
3000ba28:	e59f4230 	ldr	r4, [pc, #560]	; 3000bc60 <xyzModem_get_hdr+0x26c>
3000ba2c:	e5943000 	ldr	r3, [r4]
3000ba30:	e28d1007 	add	r1, sp, #7	; 0x7
3000ba34:	e5d30000 	ldrb	r0, [r3]
3000ba38:	ebffff98 	bl	3000b8a0 <CYGACC_COMM_IF_GETC_TIMEOUT>
3000ba3c:	e3500000 	cmp	r0, #0	; 0x0
3000ba40:	0a000024 	beq	3000bad8 <xyzModem_get_hdr+0xe4>
3000ba44:	e5dd3007 	ldrb	r3, [sp, #7]
3000ba48:	e3530002 	cmp	r3, #2	; 0x2
3000ba4c:	e2866001 	add	r6, r6, #1	; 0x1
3000ba50:	0a00000c 	beq	3000ba88 <xyzModem_get_hdr+0x94>
3000ba54:	8a000002 	bhi	3000ba64 <xyzModem_get_hdr+0x70>
3000ba58:	e3530001 	cmp	r3, #1	; 0x1
3000ba5c:	1afffff1 	bne	3000ba28 <xyzModem_get_hdr+0x34>
3000ba60:	ea000004 	b	3000ba78 <xyzModem_get_hdr+0x84>
3000ba64:	e3530004 	cmp	r3, #4	; 0x4
3000ba68:	0a000012 	beq	3000bab8 <xyzModem_get_hdr+0xc4>
3000ba6c:	e3530018 	cmp	r3, #24	; 0x18
3000ba70:	1affffec 	bne	3000ba28 <xyzModem_get_hdr+0x34>
3000ba74:	ea000007 	b	3000ba98 <xyzModem_get_hdr+0xa4>
3000ba78:	e594341c 	ldr	r3, [r4, #1052]
3000ba7c:	e2833001 	add	r3, r3, #1	; 0x1
3000ba80:	e584341c 	str	r3, [r4, #1052]
3000ba84:	ea00006d 	b	3000bc40 <xyzModem_get_hdr+0x24c>
3000ba88:	e5943420 	ldr	r3, [r4, #1056]
3000ba8c:	e2833001 	add	r3, r3, #1	; 0x1
3000ba90:	e5843420 	str	r3, [r4, #1056]
3000ba94:	ea000069 	b	3000bc40 <xyzModem_get_hdr+0x24c>
3000ba98:	e5943424 	ldr	r3, [r4, #1060]
3000ba9c:	e2855001 	add	r5, r5, #1	; 0x1
3000baa0:	e2833001 	add	r3, r3, #1	; 0x1
3000baa4:	e3550003 	cmp	r5, #3	; 0x3
3000baa8:	e5843424 	str	r3, [r4, #1060]
3000baac:	1affffdd 	bne	3000ba28 <xyzModem_get_hdr+0x34>
3000bab0:	e3e00004 	mvn	r0, #4	; 0x4
3000bab4:	ea000060 	b	3000bc3c <xyzModem_get_hdr+0x248>
3000bab8:	e3560001 	cmp	r6, #1	; 0x1
3000babc:	1affffd9 	bne	3000ba28 <xyzModem_get_hdr+0x34>
3000bac0:	e5943000 	ldr	r3, [r4]
3000bac4:	e3a01006 	mov	r1, #6	; 0x6
3000bac8:	e5d30000 	ldrb	r0, [r3]
3000bacc:	ebffff71 	bl	3000b898 <CYGACC_COMM_IF_PUTC>
3000bad0:	e3e00003 	mvn	r0, #3	; 0x3
3000bad4:	ea000058 	b	3000bc3c <xyzModem_get_hdr+0x248>
3000bad8:	ebffff85 	bl	3000b8f4 <xyzModem_flush>
3000badc:	e59f0180 	ldr	r0, [pc, #384]	; 3000bc64 <xyzModem_get_hdr+0x270>
3000bae0:	eb00153a 	bl	30010fd0 <udelay>
3000bae4:	ea000051 	b	3000bc30 <xyzModem_get_hdr+0x23c>
3000bae8:	e5943000 	ldr	r3, [r4]
3000baec:	e59f1174 	ldr	r1, [pc, #372]	; 3000bc68 <xyzModem_get_hdr+0x274>
3000baf0:	e5d30000 	ldrb	r0, [r3]
3000baf4:	ebffff69 	bl	3000b8a0 <CYGACC_COMM_IF_GETC_TIMEOUT>
3000baf8:	e3500000 	cmp	r0, #0	; 0x0
3000bafc:	0a00004b 	beq	3000bc30 <xyzModem_get_hdr+0x23c>
3000bb00:	e5dd3007 	ldrb	r3, [sp, #7]
3000bb04:	e3530001 	cmp	r3, #1	; 0x1
3000bb08:	e2842004 	add	r2, r4, #4	; 0x4
3000bb0c:	03a03080 	moveq	r3, #128	; 0x80
3000bb10:	13a03b01 	movne	r3, #1024	; 0x400
3000bb14:	e5842404 	str	r2, [r4, #1028]
3000bb18:	e5843410 	str	r3, [r4, #1040]
3000bb1c:	e3a04000 	mov	r4, #0	; 0x0
3000bb20:	ea000008 	b	3000bb48 <xyzModem_get_hdr+0x154>
3000bb24:	e5953000 	ldr	r3, [r5]
3000bb28:	e5d30000 	ldrb	r0, [r3]
3000bb2c:	ebffff5b 	bl	3000b8a0 <CYGACC_COMM_IF_GETC_TIMEOUT>
3000bb30:	e3500000 	cmp	r0, #0	; 0x0
3000bb34:	e0852004 	add	r2, r5, r4
3000bb38:	e2844001 	add	r4, r4, #1	; 0x1
3000bb3c:	0a00003b 	beq	3000bc30 <xyzModem_get_hdr+0x23c>
3000bb40:	e5dd3007 	ldrb	r3, [sp, #7]
3000bb44:	e5c23004 	strb	r3, [r2, #4]
3000bb48:	e59f5110 	ldr	r5, [pc, #272]	; 3000bc60 <xyzModem_get_hdr+0x26c>
3000bb4c:	e5953410 	ldr	r3, [r5, #1040]
3000bb50:	e1540003 	cmp	r4, r3
3000bb54:	e28d1007 	add	r1, sp, #7	; 0x7
3000bb58:	bafffff1 	blt	3000bb24 <xyzModem_get_hdr+0x130>
3000bb5c:	e5953000 	ldr	r3, [r5]
3000bb60:	e59f1104 	ldr	r1, [pc, #260]	; 3000bc6c <xyzModem_get_hdr+0x278>
3000bb64:	e5d30000 	ldrb	r0, [r3]
3000bb68:	ebffff4c 	bl	3000b8a0 <CYGACC_COMM_IF_GETC_TIMEOUT>
3000bb6c:	e3500000 	cmp	r0, #0	; 0x0
3000bb70:	0a00002e 	beq	3000bc30 <xyzModem_get_hdr+0x23c>
3000bb74:	e5953428 	ldr	r3, [r5, #1064]
3000bb78:	e3530000 	cmp	r3, #0	; 0x0
3000bb7c:	0a000005 	beq	3000bb98 <xyzModem_get_hdr+0x1a4>
3000bb80:	e5953000 	ldr	r3, [r5]
3000bb84:	e59f10e4 	ldr	r1, [pc, #228]	; 3000bc70 <xyzModem_get_hdr+0x27c>
3000bb88:	e5d30000 	ldrb	r0, [r3]
3000bb8c:	ebffff43 	bl	3000b8a0 <CYGACC_COMM_IF_GETC_TIMEOUT>
3000bb90:	e3500000 	cmp	r0, #0	; 0x0
3000bb94:	0a000025 	beq	3000bc30 <xyzModem_get_hdr+0x23c>
3000bb98:	e59f40c0 	ldr	r4, [pc, #192]	; 3000bc60 <xyzModem_get_hdr+0x26c>
3000bb9c:	e5d43409 	ldrb	r3, [r4, #1033]
3000bba0:	e5d42408 	ldrb	r2, [r4, #1032]
3000bba4:	e0233002 	eor	r3, r3, r2
3000bba8:	e35300ff 	cmp	r3, #255	; 0xff
3000bbac:	0a000002 	beq	3000bbbc <xyzModem_get_hdr+0x1c8>
3000bbb0:	ebffff4f 	bl	3000b8f4 <xyzModem_flush>
3000bbb4:	e3e00005 	mvn	r0, #5	; 0x5
3000bbb8:	ea00001f 	b	3000bc3c <xyzModem_get_hdr+0x248>
3000bbbc:	e5943428 	ldr	r3, [r4, #1064]
3000bbc0:	e3530000 	cmp	r3, #0	; 0x0
3000bbc4:	01a02003 	moveq	r2, r3
3000bbc8:	05940410 	ldreq	r0, [r4, #1040]
3000bbcc:	01a01002 	moveq	r1, r2
3000bbd0:	0a00000b 	beq	3000bc04 <xyzModem_get_hdr+0x210>
3000bbd4:	e2840004 	add	r0, r4, #4	; 0x4
3000bbd8:	e5941410 	ldr	r1, [r4, #1040]
3000bbdc:	eb000301 	bl	3000c7e8 <cyg_crc16>
3000bbe0:	e5d4340b 	ldrb	r3, [r4, #1035]
3000bbe4:	e5d4240a 	ldrb	r2, [r4, #1034]
3000bbe8:	e1833402 	orr	r3, r3, r2, lsl #8
3000bbec:	e1500003 	cmp	r0, r3
3000bbf0:	ea00000b 	b	3000bc24 <xyzModem_get_hdr+0x230>
3000bbf4:	e5d33004 	ldrb	r3, [r3, #4]
3000bbf8:	e0813003 	add	r3, r1, r3
3000bbfc:	e1a03803 	lsl	r3, r3, #16
3000bc00:	e1a01823 	lsr	r1, r3, #16
3000bc04:	e59fc054 	ldr	ip, [pc, #84]	; 3000bc60 <xyzModem_get_hdr+0x26c>
3000bc08:	e1520000 	cmp	r2, r0
3000bc0c:	e08c3002 	add	r3, ip, r2
3000bc10:	e2822001 	add	r2, r2, #1	; 0x1
3000bc14:	bafffff6 	blt	3000bbf4 <xyzModem_get_hdr+0x200>
3000bc18:	e5dc240a 	ldrb	r2, [ip, #1034]
3000bc1c:	e20130ff 	and	r3, r1, #255	; 0xff
3000bc20:	e1520003 	cmp	r2, r3
3000bc24:	13e00006 	mvnne	r0, #6	; 0x6
3000bc28:	1a000003 	bne	3000bc3c <xyzModem_get_hdr+0x248>
3000bc2c:	ea000001 	b	3000bc38 <xyzModem_get_hdr+0x244>
3000bc30:	e3e00002 	mvn	r0, #2	; 0x2
3000bc34:	ea000000 	b	3000bc3c <xyzModem_get_hdr+0x248>
3000bc38:	e3a00000 	mov	r0, #0	; 0x0
3000bc3c:	e8bd807c 	pop	{r2, r3, r4, r5, r6, pc}
3000bc40:	e59f4018 	ldr	r4, [pc, #24]	; 3000bc60 <xyzModem_get_hdr+0x26c>
3000bc44:	e5943000 	ldr	r3, [r4]
3000bc48:	e59f1024 	ldr	r1, [pc, #36]	; 3000bc74 <xyzModem_get_hdr+0x280>
3000bc4c:	e5d30000 	ldrb	r0, [r3]
3000bc50:	ebffff12 	bl	3000b8a0 <CYGACC_COMM_IF_GETC_TIMEOUT>
3000bc54:	e3500000 	cmp	r0, #0	; 0x0
3000bc58:	0afffff4 	beq	3000bc30 <xyzModem_get_hdr+0x23c>
3000bc5c:	eaffffa1 	b	3000bae8 <xyzModem_get_hdr+0xf4>
3000bc60:	3001dc70 	.word	0x3001dc70
3000bc64:	0003d090 	.word	0x0003d090
3000bc68:	3001e079 	.word	0x3001e079
3000bc6c:	3001e07a 	.word	0x3001e07a
3000bc70:	3001e07b 	.word	0x3001e07b
3000bc74:	3001e078 	.word	0x3001e078

3000bc78 <xyzModem_stream_read>:
3000bc78:	e92d4ef0 	push	{r4, r5, r6, r7, r9, sl, fp, lr}
3000bc7c:	e1a0a000 	mov	sl, r0
3000bc80:	e1a07001 	mov	r7, r1
3000bc84:	e1a0b002 	mov	fp, r2
3000bc88:	e3e06004 	mvn	r6, #4	; 0x4
3000bc8c:	e3a09000 	mov	r9, #0	; 0x0
3000bc90:	ea000090 	b	3000bed8 <xyzModem_stream_read+0x260>
3000bc94:	e5923410 	ldr	r3, [r2, #1040]
3000bc98:	e3530000 	cmp	r3, #0	; 0x0
3000bc9c:	03a04014 	moveq	r4, #20	; 0x14
3000bca0:	0a00006d 	beq	3000be5c <xyzModem_stream_read+0x1e4>
3000bca4:	ea000076 	b	3000be84 <xyzModem_stream_read+0x20c>
3000bca8:	ebffff51 	bl	3000b9f4 <xyzModem_get_hdr>
3000bcac:	e2506000 	subs	r6, r0, #0	; 0x0
3000bcb0:	e59fc248 	ldr	ip, [pc, #584]	; 3000bf00 <xyzModem_stream_read+0x288>
3000bcb4:	1a00003e 	bne	3000bdb4 <xyzModem_stream_read+0x13c>
3000bcb8:	e5dc240c 	ldrb	r2, [ip, #1036]
3000bcbc:	e5dc1408 	ldrb	r1, [ip, #1032]
3000bcc0:	e2423001 	sub	r3, r2, #1	; 0x1
3000bcc4:	e1510002 	cmp	r1, r2
3000bcc8:	e20330ff 	and	r3, r3, #255	; 0xff
3000bccc:	1a000030 	bne	3000bd94 <xyzModem_stream_read+0x11c>
3000bcd0:	e59ce414 	ldr	lr, [ip, #1044]
3000bcd4:	e2812001 	add	r2, r1, #1	; 0x1
3000bcd8:	e3a03001 	mov	r3, #1	; 0x1
3000bcdc:	e35e0001 	cmp	lr, #1	; 0x1
3000bce0:	e58c3430 	str	r3, [ip, #1072]
3000bce4:	e5cc240c 	strb	r2, [ip, #1036]
3000bce8:	0a000002 	beq	3000bcf8 <xyzModem_stream_read+0x80>
3000bcec:	e59c3434 	ldr	r3, [ip, #1076]
3000bcf0:	e3530000 	cmp	r3, #0	; 0x0
3000bcf4:	1a000019 	bne	3000bd60 <xyzModem_stream_read+0xe8>
3000bcf8:	e59f3200 	ldr	r3, [pc, #512]	; 3000bf00 <xyzModem_stream_read+0x288>
3000bcfc:	e5932410 	ldr	r2, [r3, #1040]
3000bd00:	e593c404 	ldr	ip, [r3, #1028]
3000bd04:	e08c2002 	add	r2, ip, r2
3000bd08:	e5523001 	ldrb	r3, [r2, #-1]
3000bd0c:	e353001a 	cmp	r3, #26	; 0x1a
3000bd10:	1a000010 	bne	3000bd58 <xyzModem_stream_read+0xe0>
3000bd14:	e5523002 	ldrb	r3, [r2, #-2]
3000bd18:	e353001a 	cmp	r3, #26	; 0x1a
3000bd1c:	1a00000d 	bne	3000bd58 <xyzModem_stream_read+0xe0>
3000bd20:	e5523003 	ldrb	r3, [r2, #-3]
3000bd24:	e353001a 	cmp	r3, #26	; 0x1a
3000bd28:	1a00000a 	bne	3000bd58 <xyzModem_stream_read+0xe0>
3000bd2c:	ea000000 	b	3000bd34 <xyzModem_stream_read+0xbc>
3000bd30:	e5801410 	str	r1, [r0, #1040]
3000bd34:	e59f01c4 	ldr	r0, [pc, #452]	; 3000bf00 <xyzModem_stream_read+0x288>
3000bd38:	e5903410 	ldr	r3, [r0, #1040]
3000bd3c:	e3530000 	cmp	r3, #0	; 0x0
3000bd40:	e08c2003 	add	r2, ip, r3
3000bd44:	e2431001 	sub	r1, r3, #1	; 0x1
3000bd48:	0a000002 	beq	3000bd58 <xyzModem_stream_read+0xe0>
3000bd4c:	e5523001 	ldrb	r3, [r2, #-1]
3000bd50:	e353001a 	cmp	r3, #26	; 0x1a
3000bd54:	0afffff5 	beq	3000bd30 <xyzModem_stream_read+0xb8>
3000bd58:	e35e0001 	cmp	lr, #1	; 0x1
3000bd5c:	0a000048 	beq	3000be84 <xyzModem_stream_read+0x20c>
3000bd60:	e59fc198 	ldr	ip, [pc, #408]	; 3000bf00 <xyzModem_stream_read+0x288>
3000bd64:	e59c1434 	ldr	r1, [ip, #1076]
3000bd68:	e3510000 	cmp	r1, #0	; 0x0
3000bd6c:	0a000044 	beq	3000be84 <xyzModem_stream_read+0x20c>
3000bd70:	e59c3438 	ldr	r3, [ip, #1080]
3000bd74:	e59c0410 	ldr	r0, [ip, #1040]
3000bd78:	e0802003 	add	r2, r0, r3
3000bd7c:	e1520001 	cmp	r2, r1
3000bd80:	80803001 	addhi	r3, r0, r1
3000bd84:	80623003 	rsbhi	r3, r2, r3
3000bd88:	e58c2438 	str	r2, [ip, #1080]
3000bd8c:	858c3410 	strhi	r3, [ip, #1040]
3000bd90:	ea00003b 	b	3000be84 <xyzModem_stream_read+0x20c>
3000bd94:	e1510003 	cmp	r1, r3
3000bd98:	13e06007 	mvnne	r6, #7	; 0x7
3000bd9c:	1a000024 	bne	3000be34 <xyzModem_stream_read+0x1bc>
3000bda0:	e59c3000 	ldr	r3, [ip]
3000bda4:	e3a01006 	mov	r1, #6	; 0x6
3000bda8:	e5d30000 	ldrb	r0, [r3]
3000bdac:	ebfffeb9 	bl	3000b898 <CYGACC_COMM_IF_PUTC>
3000bdb0:	ea000029 	b	3000be5c <xyzModem_stream_read+0x1e4>
3000bdb4:	e3760005 	cmn	r6, #5	; 0x5
3000bdb8:	0a00002c 	beq	3000be70 <xyzModem_stream_read+0x1f8>
3000bdbc:	e3760004 	cmn	r6, #4	; 0x4
3000bdc0:	1a00001b 	bne	3000be34 <xyzModem_stream_read+0x1bc>
3000bdc4:	e59f4134 	ldr	r4, [pc, #308]	; 3000bf00 <xyzModem_stream_read+0x288>
3000bdc8:	e5943000 	ldr	r3, [r4]
3000bdcc:	e3a01006 	mov	r1, #6	; 0x6
3000bdd0:	e5d30000 	ldrb	r0, [r3]
3000bdd4:	ebfffeaf 	bl	3000b898 <CYGACC_COMM_IF_PUTC>
3000bdd8:	e5943414 	ldr	r3, [r4, #1044]
3000bddc:	e3530002 	cmp	r3, #2	; 0x2
3000bde0:	1a00000f 	bne	3000be24 <xyzModem_stream_read+0x1ac>
3000bde4:	e5941428 	ldr	r1, [r4, #1064]
3000bde8:	e5943000 	ldr	r3, [r4]
3000bdec:	e3510000 	cmp	r1, #0	; 0x0
3000bdf0:	13a01043 	movne	r1, #67	; 0x43
3000bdf4:	03a01015 	moveq	r1, #21	; 0x15
3000bdf8:	e5d30000 	ldrb	r0, [r3]
3000bdfc:	ebfffea5 	bl	3000b898 <CYGACC_COMM_IF_PUTC>
3000be00:	e5943418 	ldr	r3, [r4, #1048]
3000be04:	e2833001 	add	r3, r3, #1	; 0x1
3000be08:	e5843418 	str	r3, [r4, #1048]
3000be0c:	ebfffef8 	bl	3000b9f4 <xyzModem_get_hdr>
3000be10:	e5943000 	ldr	r3, [r4]
3000be14:	e1a06000 	mov	r6, r0
3000be18:	e3a01006 	mov	r1, #6	; 0x6
3000be1c:	e5d30000 	ldrb	r0, [r3]
3000be20:	ebfffe9c 	bl	3000b898 <CYGACC_COMM_IF_PUTC>
3000be24:	e59f30d4 	ldr	r3, [pc, #212]	; 3000bf00 <xyzModem_stream_read+0x288>
3000be28:	e3a02001 	mov	r2, #1	; 0x1
3000be2c:	e583242c 	str	r2, [r3, #1068]
3000be30:	ea00000c 	b	3000be68 <xyzModem_stream_read+0x1f0>
3000be34:	e5951428 	ldr	r1, [r5, #1064]
3000be38:	e5953000 	ldr	r3, [r5]
3000be3c:	e3510000 	cmp	r1, #0	; 0x0
3000be40:	e5d30000 	ldrb	r0, [r3]
3000be44:	13a01043 	movne	r1, #67	; 0x43
3000be48:	03a01015 	moveq	r1, #21	; 0x15
3000be4c:	ebfffe91 	bl	3000b898 <CYGACC_COMM_IF_PUTC>
3000be50:	e5953418 	ldr	r3, [r5, #1048]
3000be54:	e2833001 	add	r3, r3, #1	; 0x1
3000be58:	e5853418 	str	r3, [r5, #1048]
3000be5c:	e2544001 	subs	r4, r4, #1	; 0x1
3000be60:	e59f5098 	ldr	r5, [pc, #152]	; 3000bf00 <xyzModem_stream_read+0x288>
3000be64:	2affff8f 	bcs	3000bca8 <xyzModem_stream_read+0x30>
3000be68:	e3560000 	cmp	r6, #0	; 0x0
3000be6c:	aa000004 	bge	3000be84 <xyzModem_stream_read+0x20c>
3000be70:	e59f3088 	ldr	r3, [pc, #136]	; 3000bf00 <xyzModem_stream_read+0x288>
3000be74:	e3e02000 	mvn	r2, #0	; 0x0
3000be78:	e58b6000 	str	r6, [fp]
3000be7c:	e5832410 	str	r2, [r3, #1040]
3000be80:	ea00001c 	b	3000bef8 <xyzModem_stream_read+0x280>
3000be84:	e59f5074 	ldr	r5, [pc, #116]	; 3000bf00 <xyzModem_stream_read+0x288>
3000be88:	e595342c 	ldr	r3, [r5, #1068]
3000be8c:	e3530000 	cmp	r3, #0	; 0x0
3000be90:	1a000010 	bne	3000bed8 <xyzModem_stream_read+0x260>
3000be94:	e5954410 	ldr	r4, [r5, #1040]
3000be98:	e1570004 	cmp	r7, r4
3000be9c:	b1a04007 	movlt	r4, r7
3000bea0:	a1a04004 	movge	r4, r4
3000bea4:	e1a0000a 	mov	r0, sl
3000bea8:	e1a02004 	mov	r2, r4
3000beac:	e5951404 	ldr	r1, [r5, #1028]
3000beb0:	eb000616 	bl	3000d710 <memcpy>
3000beb4:	e5952410 	ldr	r2, [r5, #1040]
3000beb8:	e5953404 	ldr	r3, [r5, #1028]
3000bebc:	e0642002 	rsb	r2, r4, r2
3000bec0:	e0833004 	add	r3, r3, r4
3000bec4:	e5853404 	str	r3, [r5, #1028]
3000bec8:	e5852410 	str	r2, [r5, #1040]
3000becc:	e0647007 	rsb	r7, r4, r7
3000bed0:	e08aa004 	add	sl, sl, r4
3000bed4:	e0899004 	add	r9, r9, r4
3000bed8:	e59f2020 	ldr	r2, [pc, #32]	; 3000bf00 <xyzModem_stream_read+0x288>
3000bedc:	e592342c 	ldr	r3, [r2, #1068]
3000bee0:	e2733001 	rsbs	r3, r3, #1	; 0x1
3000bee4:	33a03000 	movcc	r3, #0	; 0x0
3000bee8:	e3570000 	cmp	r7, #0	; 0x0
3000beec:	d3a03000 	movle	r3, #0	; 0x0
3000bef0:	e3530000 	cmp	r3, #0	; 0x0
3000bef4:	1affff66 	bne	3000bc94 <xyzModem_stream_read+0x1c>
3000bef8:	e1a00009 	mov	r0, r9
3000befc:	e8bd8ef0 	pop	{r4, r5, r6, r7, r9, sl, fp, pc}
3000bf00:	3001dc70 	.word	0x3001dc70

3000bf04 <xyzModem_stream_open>:
3000bf04:	e92d44f3 	push	{r0, r1, r4, r5, r6, r7, sl, lr}
3000bf08:	e59f4148 	ldr	r4, [pc, #328]	; 3000c058 <xyzModem_stream_open+0x154>
3000bf0c:	e3a05000 	mov	r5, #0	; 0x0
3000bf10:	e28d3008 	add	r3, sp, #8	; 0x8
3000bf14:	e3a02001 	mov	r2, #1	; 0x1
3000bf18:	e5235004 	str	r5, [r3, #-4]!
3000bf1c:	e5842428 	str	r2, [r4, #1064]
3000bf20:	e5845410 	str	r5, [r4, #1040]
3000bf24:	e584542c 	str	r5, [r4, #1068]
3000bf28:	e5845430 	str	r5, [r4, #1072]
3000bf2c:	e5902004 	ldr	r2, [r0, #4]
3000bf30:	e5843000 	str	r3, [r4]
3000bf34:	e1a00005 	mov	r0, r5
3000bf38:	e5842414 	str	r2, [r4, #1044]
3000bf3c:	e5845418 	str	r5, [r4, #1048]
3000bf40:	e584541c 	str	r5, [r4, #1052]
3000bf44:	e5845420 	str	r5, [r4, #1056]
3000bf48:	e5845424 	str	r5, [r4, #1060]
3000bf4c:	e5845438 	str	r5, [r4, #1080]
3000bf50:	e5845434 	str	r5, [r4, #1076]
3000bf54:	e1a0a001 	mov	sl, r1
3000bf58:	e3a01043 	mov	r1, #67	; 0x43
3000bf5c:	ebfffe4d 	bl	3000b898 <CYGACC_COMM_IF_PUTC>
3000bf60:	e5943414 	ldr	r3, [r4, #1044]
3000bf64:	e3530001 	cmp	r3, #1	; 0x1
3000bf68:	11a04005 	movne	r4, r5
3000bf6c:	13a07014 	movne	r7, #20	; 0x14
3000bf70:	13a0600a 	movne	r6, #10	; 0xa
3000bf74:	05c4340c 	strbeq	r3, [r4, #1036]
3000bf78:	01a00005 	moveq	r0, r5
3000bf7c:	1a000030 	bne	3000c044 <xyzModem_stream_open+0x140>
3000bf80:	ea000033 	b	3000c054 <xyzModem_stream_open+0x150>
3000bf84:	ebfffe9a 	bl	3000b9f4 <xyzModem_get_hdr>
3000bf88:	e2504000 	subs	r4, r0, #0	; 0x0
3000bf8c:	1a000015 	bne	3000bfe8 <xyzModem_stream_open+0xe4>
3000bf90:	e59f30c0 	ldr	r3, [pc, #192]	; 3000c058 <xyzModem_stream_open+0x154>
3000bf94:	e5d33408 	ldrb	r3, [r3, #1032]
3000bf98:	e3530000 	cmp	r3, #0	; 0x0
3000bf9c:	1a00000a 	bne	3000bfcc <xyzModem_stream_open+0xc8>
3000bfa0:	e59f40b0 	ldr	r4, [pc, #176]	; 3000c058 <xyzModem_stream_open+0x154>
3000bfa4:	e5940404 	ldr	r0, [r4, #1028]
3000bfa8:	e4d02001 	ldrb	r2, [r0], #1
3000bfac:	e3520000 	cmp	r2, #0	; 0x0
3000bfb0:	e5840404 	str	r0, [r4, #1028]
3000bfb4:	1afffff9 	bne	3000bfa0 <xyzModem_stream_open+0x9c>
3000bfb8:	e59f309c 	ldr	r3, [pc, #156]	; 3000c05c <xyzModem_stream_open+0x158>
3000bfbc:	e59f109c 	ldr	r1, [pc, #156]	; 3000c060 <xyzModem_stream_open+0x15c>
3000bfc0:	ebfffdb0 	bl	3000b688 <parse_num>
3000bfc4:	e3a03001 	mov	r3, #1	; 0x1
3000bfc8:	e5843430 	str	r3, [r4, #1072]
3000bfcc:	e59f3084 	ldr	r3, [pc, #132]	; 3000c058 <xyzModem_stream_open+0x154>
3000bfd0:	e3a01000 	mov	r1, #0	; 0x0
3000bfd4:	e3a02001 	mov	r2, #1	; 0x1
3000bfd8:	e5c3240c 	strb	r2, [r3, #1036]
3000bfdc:	e5831410 	str	r1, [r3, #1040]
3000bfe0:	e1a00001 	mov	r0, r1
3000bfe4:	ea00001a 	b	3000c054 <xyzModem_stream_open+0x150>
3000bfe8:	e3740003 	cmn	r4, #3	; 0x3
3000bfec:	1a000012 	bne	3000c03c <xyzModem_stream_open+0x138>
3000bff0:	e59f5060 	ldr	r5, [pc, #96]	; 3000c058 <xyzModem_stream_open+0x154>
3000bff4:	e2466001 	sub	r6, r6, #1	; 0x1
3000bff8:	e3560000 	cmp	r6, #0	; 0x0
3000bffc:	d3a02000 	movle	r2, #0	; 0x0
3000c000:	d1a03005 	movle	r3, r5
3000c004:	d5832428 	strle	r2, [r3, #1064]
3000c008:	e59f0054 	ldr	r0, [pc, #84]	; 3000c064 <xyzModem_stream_open+0x160>
3000c00c:	eb0013ef 	bl	30010fd0 <udelay>
3000c010:	e5951428 	ldr	r1, [r5, #1064]
3000c014:	e5953000 	ldr	r3, [r5]
3000c018:	e3510000 	cmp	r1, #0	; 0x0
3000c01c:	e5d30000 	ldrb	r0, [r3]
3000c020:	13a01043 	movne	r1, #67	; 0x43
3000c024:	03a01015 	moveq	r1, #21	; 0x15
3000c028:	ebfffe1a 	bl	3000b898 <CYGACC_COMM_IF_PUTC>
3000c02c:	e5953418 	ldr	r3, [r5, #1048]
3000c030:	e2833001 	add	r3, r3, #1	; 0x1
3000c034:	e5853418 	str	r3, [r5, #1048]
3000c038:	ea000001 	b	3000c044 <xyzModem_stream_open+0x140>
3000c03c:	e3740005 	cmn	r4, #5	; 0x5
3000c040:	0a000001 	beq	3000c04c <xyzModem_stream_open+0x148>
3000c044:	e2577001 	subs	r7, r7, #1	; 0x1
3000c048:	2affffcd 	bcs	3000bf84 <xyzModem_stream_open+0x80>
3000c04c:	e58a4000 	str	r4, [sl]
3000c050:	e3e00000 	mvn	r0, #0	; 0x0
3000c054:	e8bd84fc 	pop	{r2, r3, r4, r5, r6, r7, sl, pc}
3000c058:	3001dc70 	.word	0x3001dc70
3000c05c:	3001b05e 	.word	0x3001b05e
3000c060:	3001e0a4 	.word	0x3001e0a4
3000c064:	0007a120 	.word	0x0007a120

3000c068 <delay>:
3000c068:	e2500001 	subs	r0, r0, #1	; 0x1
3000c06c:	1afffffd 	bne	3000c068 <delay>
3000c070:	e1a0f00e 	mov	pc, lr

3000c074 <dram_init>:
3000c074:	e5982000 	ldr	r2, [r8]
3000c078:	e3a03203 	mov	r3, #805306368	; 0x30000000
3000c07c:	e5981000 	ldr	r1, [r8]
3000c080:	e5823014 	str	r3, [r2, #20]
3000c084:	e2833335 	add	r3, r3, #-738197504	; 0xd4000000
3000c088:	e5813018 	str	r3, [r1, #24]
3000c08c:	e3a00000 	mov	r0, #0	; 0x0
3000c090:	e1a0f00e 	mov	pc, lr

3000c094 <board_eth_init>:
3000c094:	e59f1004 	ldr	r1, [pc, #4]	; 3000c0a0 <board_eth_init+0xc>
3000c098:	e3a00000 	mov	r0, #0	; 0x0
3000c09c:	ea0024f1 	b	30015468 <cs8900_initialize>
3000c0a0:	19000300 	.word	0x19000300

3000c0a4 <board_init>:
3000c0a4:	e92d4010 	push	{r4, lr}
3000c0a8:	e3e034ff 	mvn	r3, #-16777216	; 0xff000000
3000c0ac:	e3a04313 	mov	r4, #1275068416	; 0x4c000000
3000c0b0:	e5843000 	str	r3, [r4]
3000c0b4:	e59f30b4 	ldr	r3, [pc, #180]	; 3000c170 <board_init+0xcc>
3000c0b8:	e3a00efa 	mov	r0, #4000	; 0xfa0
3000c0bc:	e5843004 	str	r3, [r4, #4]
3000c0c0:	ebffffe8 	bl	3000c068 <delay>
3000c0c4:	e59f30a8 	ldr	r3, [pc, #168]	; 3000c174 <board_init+0xd0>
3000c0c8:	e3a00d7d 	mov	r0, #8000	; 0x1f40
3000c0cc:	e5843008 	str	r3, [r4, #8]
3000c0d0:	ebffffe4 	bl	3000c068 <delay>
3000c0d4:	e59f209c 	ldr	r2, [pc, #156]	; 3000c178 <board_init+0xd4>
3000c0d8:	e3a03456 	mov	r3, #1442840576	; 0x56000000
3000c0dc:	e5832000 	str	r2, [r3]
3000c0e0:	e59f2094 	ldr	r2, [pc, #148]	; 3000c17c <board_init+0xd8>
3000c0e4:	e59f0094 	ldr	r0, [pc, #148]	; 3000c180 <board_init+0xdc>
3000c0e8:	e5832010 	str	r2, [r3, #16]
3000c0ec:	e59f1090 	ldr	r1, [pc, #144]	; 3000c184 <board_init+0xe0>
3000c0f0:	e59f4090 	ldr	r4, [pc, #144]	; 3000c188 <board_init+0xe4>
3000c0f4:	e59f2090 	ldr	r2, [pc, #144]	; 3000c18c <board_init+0xe8>
3000c0f8:	e5834018 	str	r4, [r3, #24]
3000c0fc:	e5831020 	str	r1, [r3, #32]
3000c100:	e5830028 	str	r0, [r3, #40]
3000c104:	e5831030 	str	r1, [r3, #48]
3000c108:	e5830038 	str	r0, [r3, #56]
3000c10c:	e5831040 	str	r1, [r3, #64]
3000c110:	e5830048 	str	r0, [r3, #72]
3000c114:	e5832050 	str	r2, [r3, #80]
3000c118:	e3a020ff 	mov	r2, #255	; 0xff
3000c11c:	e5832058 	str	r2, [r3, #88]
3000c120:	e59f2068 	ldr	r2, [pc, #104]	; 3000c190 <board_init+0xec>
3000c124:	e59fc068 	ldr	ip, [pc, #104]	; 3000c194 <board_init+0xf0>
3000c128:	e5832060 	str	r2, [r3, #96]
3000c12c:	e59f2064 	ldr	r2, [pc, #100]	; 3000c198 <board_init+0xf4>
3000c130:	e5830068 	str	r0, [r3, #104]
3000c134:	e5832070 	str	r2, [r3, #112]
3000c138:	e5834078 	str	r4, [r3, #120]
3000c13c:	e583c088 	str	ip, [r3, #136]
3000c140:	e583c08c 	str	ip, [r3, #140]
3000c144:	e583c090 	str	ip, [r3, #144]
3000c148:	e5982000 	ldr	r2, [r8]
3000c14c:	e3a030c1 	mov	r3, #193	; 0xc1
3000c150:	e5981000 	ldr	r1, [r8]
3000c154:	e582300c 	str	r3, [r2, #12]
3000c158:	e59f303c 	ldr	r3, [pc, #60]	; 3000c19c <board_init+0xf8>
3000c15c:	e5813010 	str	r3, [r1, #16]
3000c160:	eb00146c 	bl	30011318 <icache_enable>
3000c164:	eb001474 	bl	3001133c <dcache_enable>
3000c168:	e3a00000 	mov	r0, #0	; 0x0
3000c16c:	e8bd8010 	pop	{r4, pc}
3000c170:	0005c040 	.word	0x0005c040
3000c174:	00048032 	.word	0x00048032
3000c178:	007fffff 	.word	0x007fffff
3000c17c:	00044556 	.word	0x00044556
3000c180:	0000ffff 	.word	0x0000ffff
3000c184:	aaaaaaaa 	.word	0xaaaaaaaa
3000c188:	000007ff 	.word	0x000007ff
3000c18c:	000055aa 	.word	0x000055aa
3000c190:	ff95ff3a 	.word	0xff95ff3a
3000c194:	22222222 	.word	0x22222222
3000c198:	0016faaa 	.word	0x0016faaa
3000c19c:	30000100 	.word	0x30000100

3000c1a0 <write_hword>:
3000c1a0:	e1d130b0 	ldrh	r3, [r1]
3000c1a4:	e92d47f0 	push	{r4, r5, r6, r7, r8, r9, sl, lr}
3000c1a8:	e0035002 	and	r5, r3, r2
3000c1ac:	e1550002 	cmp	r5, r2
3000c1b0:	e1a04001 	mov	r4, r1
3000c1b4:	e1a07002 	mov	r7, r2
3000c1b8:	13a04002 	movne	r4, #2	; 0x2
3000c1bc:	1a000030 	bne	3000c284 <write_hword+0xe4>
3000c1c0:	eb001458 	bl	30011328 <icache_status>
3000c1c4:	e1a09000 	mov	r9, r0
3000c1c8:	eb001454 	bl	30011320 <icache_disable>
3000c1cc:	ebffd0c2 	bl	300004dc <disable_interrupts>
3000c1d0:	e3a02c0a 	mov	r2, #2560	; 0xa00
3000c1d4:	e3a010aa 	mov	r1, #170	; 0xaa
3000c1d8:	e1c21aba 	strh	r1, [r2, #170]
3000c1dc:	e3a03c05 	mov	r3, #1280	; 0x500
3000c1e0:	e3a01055 	mov	r1, #85	; 0x55
3000c1e4:	e1c315b4 	strh	r1, [r3, #84]
3000c1e8:	e3a03020 	mov	r3, #32	; 0x20
3000c1ec:	e3a010a0 	mov	r1, #160	; 0xa0
3000c1f0:	e1c23aba 	strh	r3, [r2, #170]
3000c1f4:	e1c410b0 	strh	r1, [r4]
3000c1f8:	e1c450b0 	strh	r5, [r4]
3000c1fc:	e1a0a000 	mov	sl, r0
3000c200:	eb001328 	bl	30010ea8 <reset_timer_masked>
3000c204:	e1d430b0 	ldrh	r3, [r4]
3000c208:	e1a06003 	mov	r6, r3
3000c20c:	eb00135e 	bl	30010f8c <get_timer_masked>
3000c210:	e59f3074 	ldr	r3, [pc, #116]	; 3000c28c <write_hword+0xec>
3000c214:	e1500003 	cmp	r0, r3
3000c218:	e0252006 	eor	r2, r5, r6
3000c21c:	8a00000a 	bhi	3000c24c <write_hword+0xac>
3000c220:	e3120080 	tst	r2, #128	; 0x80
3000c224:	03a03001 	moveq	r3, #1	; 0x1
3000c228:	0a000008 	beq	3000c250 <write_hword+0xb0>
3000c22c:	e3160020 	tst	r6, #32	; 0x20
3000c230:	0afffff3 	beq	3000c204 <write_hword+0x64>
3000c234:	e1d430b0 	ldrh	r3, [r4]
3000c238:	e0253003 	eor	r3, r5, r3
3000c23c:	e3130080 	tst	r3, #128	; 0x80
3000c240:	03a03001 	moveq	r3, #1	; 0x1
3000c244:	13a03002 	movne	r3, #2	; 0x2
3000c248:	ea000000 	b	3000c250 <write_hword+0xb0>
3000c24c:	e3a03006 	mov	r3, #6	; 0x6
3000c250:	e3530002 	cmp	r3, #2	; 0x2
3000c254:	e3a030f0 	mov	r3, #240	; 0xf0
3000c258:	e1c430b0 	strh	r3, [r4]
3000c25c:	0a000003 	beq	3000c270 <write_hword+0xd0>
3000c260:	e1d430b0 	ldrh	r3, [r4]
3000c264:	e1530007 	cmp	r3, r7
3000c268:	03a04000 	moveq	r4, #0	; 0x0
3000c26c:	0a000000 	beq	3000c274 <write_hword+0xd4>
3000c270:	e3a04080 	mov	r4, #128	; 0x80
3000c274:	e35a0000 	cmp	sl, #0	; 0x0
3000c278:	1bffd096 	blne	300004d8 <enable_interrupts>
3000c27c:	e3590000 	cmp	r9, #0	; 0x0
3000c280:	1b001424 	blne	30011318 <icache_enable>
3000c284:	e1a00004 	mov	r0, r4
3000c288:	e8bd87f0 	pop	{r4, r5, r6, r7, r8, r9, sl, pc}
3000c28c:	00001388 	.word	0x00001388

3000c290 <write_buff>:
3000c290:	e92d44f0 	push	{r4, r5, r6, r7, sl, lr}
3000c294:	e2127001 	ands	r7, r2, #1	; 0x1
3000c298:	e1a06001 	mov	r6, r1
3000c29c:	13a01000 	movne	r1, #0	; 0x0
3000c2a0:	e3c25001 	bic	r5, r2, #1	; 0x1
3000c2a4:	e1a0a000 	mov	sl, r0
3000c2a8:	e1a04003 	mov	r4, r3
3000c2ac:	11a02001 	movne	r2, r1
3000c2b0:	1a000004 	bne	3000c2c8 <write_buff+0x38>
3000c2b4:	ea00002f 	b	3000c378 <write_buff+0xe8>
3000c2b8:	e7d13005 	ldrb	r3, [r1, r5]
3000c2bc:	e1a03403 	lsl	r3, r3, #8
3000c2c0:	e1832422 	orr	r2, r3, r2, lsr #8
3000c2c4:	e2811001 	add	r1, r1, #1	; 0x1
3000c2c8:	e1510007 	cmp	r1, r7
3000c2cc:	e081c005 	add	ip, r1, r5
3000c2d0:	bafffff8 	blt	3000c2b8 <write_buff+0x28>
3000c2d4:	e1a00006 	mov	r0, r6
3000c2d8:	ea000005 	b	3000c2f4 <write_buff+0x64>
3000c2dc:	e5503001 	ldrb	r3, [r0, #-1]
3000c2e0:	e1a03403 	lsl	r3, r3, #8
3000c2e4:	e1832422 	orr	r2, r3, r2, lsr #8
3000c2e8:	e2444001 	sub	r4, r4, #1	; 0x1
3000c2ec:	e28cc001 	add	ip, ip, #1	; 0x1
3000c2f0:	e2811001 	add	r1, r1, #1	; 0x1
3000c2f4:	e3510001 	cmp	r1, #1	; 0x1
3000c2f8:	c3a03000 	movgt	r3, #0	; 0x0
3000c2fc:	d3a03001 	movle	r3, #1	; 0x1
3000c300:	e3540000 	cmp	r4, #0	; 0x0
3000c304:	03a03000 	moveq	r3, #0	; 0x0
3000c308:	e3530000 	cmp	r3, #0	; 0x0
3000c30c:	e1a06000 	mov	r6, r0
3000c310:	e2800001 	add	r0, r0, #1	; 0x1
3000c314:	1afffff0 	bne	3000c2dc <write_buff+0x4c>
3000c318:	e1a00001 	mov	r0, r1
3000c31c:	ea000002 	b	3000c32c <write_buff+0x9c>
3000c320:	e7d3300c 	ldrb	r3, [r3, ip]
3000c324:	e1a03403 	lsl	r3, r3, #8
3000c328:	e1832422 	orr	r2, r3, r2, lsr #8
3000c32c:	e3510001 	cmp	r1, #1	; 0x1
3000c330:	d3540000 	cmple	r4, #0	; 0x0
3000c334:	e0603001 	rsb	r3, r0, r1
3000c338:	e2811001 	add	r1, r1, #1	; 0x1
3000c33c:	0afffff7 	beq	3000c320 <write_buff+0x90>
3000c340:	e1a01005 	mov	r1, r5
3000c344:	e1a0000a 	mov	r0, sl
3000c348:	ebffff94 	bl	3000c1a0 <write_hword>
3000c34c:	e3500000 	cmp	r0, #0	; 0x0
3000c350:	02855002 	addeq	r5, r5, #2	; 0x2
3000c354:	0a000007 	beq	3000c378 <write_buff+0xe8>
3000c358:	e8bd84f0 	pop	{r4, r5, r6, r7, sl, pc}
3000c35c:	e1d620b0 	ldrh	r2, [r6]
3000c360:	ebffff8e 	bl	3000c1a0 <write_hword>
3000c364:	e3500000 	cmp	r0, #0	; 0x0
3000c368:	18bd84f0 	popne	{r4, r5, r6, r7, sl, pc}
3000c36c:	e2866002 	add	r6, r6, #2	; 0x2
3000c370:	e2855002 	add	r5, r5, #2	; 0x2
3000c374:	e2444002 	sub	r4, r4, #2	; 0x2
3000c378:	e3540001 	cmp	r4, #1	; 0x1
3000c37c:	e1a01005 	mov	r1, r5
3000c380:	e1a0000a 	mov	r0, sl
3000c384:	8afffff4 	bhi	3000c35c <write_buff+0xcc>
3000c388:	e3540000 	cmp	r4, #0	; 0x0
3000c38c:	13a01000 	movne	r1, #0	; 0x0
3000c390:	01a00004 	moveq	r0, r4
3000c394:	11a02001 	movne	r2, r1
3000c398:	1a000004 	bne	3000c3b0 <write_buff+0x120>
3000c39c:	e8bd84f0 	pop	{r4, r5, r6, r7, sl, pc}
3000c3a0:	e7d63001 	ldrb	r3, [r6, r1]
3000c3a4:	e1a03403 	lsl	r3, r3, #8
3000c3a8:	e1832422 	orr	r2, r3, r2, lsr #8
3000c3ac:	e2811001 	add	r1, r1, #1	; 0x1
3000c3b0:	e3510001 	cmp	r1, #1	; 0x1
3000c3b4:	c3a03000 	movgt	r3, #0	; 0x0
3000c3b8:	d3a03001 	movle	r3, #1	; 0x1
3000c3bc:	e1540001 	cmp	r4, r1
3000c3c0:	03a03000 	moveq	r3, #0	; 0x0
3000c3c4:	e3530000 	cmp	r3, #0	; 0x0
3000c3c8:	e081c005 	add	ip, r1, r5
3000c3cc:	1afffff3 	bne	3000c3a0 <write_buff+0x110>
3000c3d0:	e1a00001 	mov	r0, r1
3000c3d4:	ea000002 	b	3000c3e4 <write_buff+0x154>
3000c3d8:	e7d3300c 	ldrb	r3, [r3, ip]
3000c3dc:	e1a03403 	lsl	r3, r3, #8
3000c3e0:	e1832422 	orr	r2, r3, r2, lsr #8
3000c3e4:	e3510001 	cmp	r1, #1	; 0x1
3000c3e8:	e0603001 	rsb	r3, r0, r1
3000c3ec:	e2811001 	add	r1, r1, #1	; 0x1
3000c3f0:	dafffff8 	ble	3000c3d8 <write_buff+0x148>
3000c3f4:	e1a0000a 	mov	r0, sl
3000c3f8:	e1a01005 	mov	r1, r5
3000c3fc:	e8bd44f0 	pop	{r4, r5, r6, r7, sl, lr}
3000c400:	eaffff66 	b	3000c1a0 <write_hword>

3000c404 <flash_print_info>:
3000c404:	e1d030ba 	ldrh	r3, [r0, #10]
3000c408:	e3530001 	cmp	r3, #1	; 0x1
3000c40c:	e92d41f0 	push	{r4, r5, r6, r7, r8, lr}
3000c410:	e1a04000 	mov	r4, r0
3000c414:	059f00c0 	ldreq	r0, [pc, #192]	; 3000c4dc <flash_print_info+0xd8>
3000c418:	159f00c0 	ldrne	r0, [pc, #192]	; 3000c4e0 <flash_print_info+0xdc>
3000c41c:	ebffe7b8 	bl	30006304 <printf>
3000c420:	e1d420b8 	ldrh	r2, [r4, #8]
3000c424:	e59f30b8 	ldr	r3, [pc, #184]	; 3000c4e4 <flash_print_info+0xe0>
3000c428:	e1520003 	cmp	r2, r3
3000c42c:	0a000004 	beq	3000c444 <flash_print_info+0x40>
3000c430:	e283305f 	add	r3, r3, #95	; 0x5f
3000c434:	e1520003 	cmp	r2, r3
3000c438:	059f00a8 	ldreq	r0, [pc, #168]	; 3000c4e8 <flash_print_info+0xe4>
3000c43c:	1a00000d 	bne	3000c478 <flash_print_info+0x74>
3000c440:	ea000000 	b	3000c448 <flash_print_info+0x44>
3000c444:	e59f00a0 	ldr	r0, [pc, #160]	; 3000c4ec <flash_print_info+0xe8>
3000c448:	ebffe7ad 	bl	30006304 <printf>
3000c44c:	e5941000 	ldr	r1, [r4]
3000c450:	e59f0098 	ldr	r0, [pc, #152]	; 3000c4f0 <flash_print_info+0xec>
3000c454:	e1a01a21 	lsr	r1, r1, #20
3000c458:	e1d420b4 	ldrh	r2, [r4, #4]
3000c45c:	ebffe7a8 	bl	30006304 <printf>
3000c460:	e59f008c 	ldr	r0, [pc, #140]	; 3000c4f4 <flash_print_info+0xf0>
3000c464:	ebffe7a6 	bl	30006304 <printf>
3000c468:	e1a07004 	mov	r7, r4
3000c46c:	e1a06004 	mov	r6, r4
3000c470:	e3a05000 	mov	r5, #0	; 0x0
3000c474:	ea00000f 	b	3000c4b8 <flash_print_info+0xb4>
3000c478:	e59f0078 	ldr	r0, [pc, #120]	; 3000c4f8 <flash_print_info+0xf4>
3000c47c:	ea000014 	b	3000c4d4 <flash_print_info+0xd0>
3000c480:	eb00269e 	bl	30015f00 <__aeabi_idivmod>
3000c484:	e3510000 	cmp	r1, #0	; 0x0
3000c488:	059f006c 	ldreq	r0, [pc, #108]	; 3000c4fc <flash_print_info+0xf8>
3000c48c:	0bffe79c 	bleq	30006304 <printf>
3000c490:	e5d71058 	ldrb	r1, [r7, #88]
3000c494:	e59f3064 	ldr	r3, [pc, #100]	; 3000c500 <flash_print_info+0xfc>
3000c498:	e3510000 	cmp	r1, #0	; 0x0
3000c49c:	e59f2060 	ldr	r2, [pc, #96]	; 3000c504 <flash_print_info+0x100>
3000c4a0:	e596100c 	ldr	r1, [r6, #12]
3000c4a4:	01a02003 	moveq	r2, r3
3000c4a8:	e59f0058 	ldr	r0, [pc, #88]	; 3000c508 <flash_print_info+0x104>
3000c4ac:	ebffe794 	bl	30006304 <printf>
3000c4b0:	e2866004 	add	r6, r6, #4	; 0x4
3000c4b4:	e2877001 	add	r7, r7, #1	; 0x1
3000c4b8:	e1d430b4 	ldrh	r3, [r4, #4]
3000c4bc:	e1550003 	cmp	r5, r3
3000c4c0:	e1a00005 	mov	r0, r5
3000c4c4:	e3a01005 	mov	r1, #5	; 0x5
3000c4c8:	e2855001 	add	r5, r5, #1	; 0x1
3000c4cc:	baffffeb 	blt	3000c480 <flash_print_info+0x7c>
3000c4d0:	e59f0034 	ldr	r0, [pc, #52]	; 3000c50c <flash_print_info+0x108>
3000c4d4:	e8bd41f0 	pop	{r4, r5, r6, r7, r8, lr}
3000c4d8:	eaffe789 	b	30006304 <printf>
3000c4dc:	3001a7f5 	.word	0x3001a7f5
3000c4e0:	3001a7fb 	.word	0x3001a7fb
3000c4e4:	0000225b 	.word	0x0000225b
3000c4e8:	3001a80b 	.word	0x3001a80b
3000c4ec:	3001a824 	.word	0x3001a824
3000c4f0:	3001a850 	.word	0x3001a850
3000c4f4:	3001a86e 	.word	0x3001a86e
3000c4f8:	3001a83d 	.word	0x3001a83d
3000c4fc:	3001a888 	.word	0x3001a888
3000c500:	3001a299 	.word	0x3001a299
3000c504:	3001a88d 	.word	0x3001a88d
3000c508:	3001a893 	.word	0x3001a893
3000c50c:	3001a096 	.word	0x3001a096

3000c510 <flash_erase>:
3000c510:	e92d4ef3 	push	{r0, r1, r4, r5, r6, r7, r9, sl, fp, lr}
3000c514:	e59f31d0 	ldr	r3, [pc, #464]	; 3000c6ec <flash_erase+0x1dc>
3000c518:	e1a05000 	mov	r5, r0
3000c51c:	e5900008 	ldr	r0, [r0, #8]
3000c520:	e1500003 	cmp	r0, r3
3000c524:	e1a04001 	mov	r4, r1
3000c528:	e1a09002 	mov	r9, r2
3000c52c:	03a04040 	moveq	r4, #64	; 0x40
3000c530:	0a00006b 	beq	3000c6e4 <flash_erase+0x1d4>
3000c534:	e1540002 	cmp	r4, r2
3000c538:	d3a03000 	movle	r3, #0	; 0x0
3000c53c:	c3a03001 	movgt	r3, #1	; 0x1
3000c540:	e1932fa4 	orrs	r2, r3, r4, lsr #31
3000c544:	13a04008 	movne	r4, #8	; 0x8
3000c548:	1a000065 	bne	3000c6e4 <flash_erase+0x1d4>
3000c54c:	e1a03820 	lsr	r3, r0, #16
3000c550:	e1a03803 	lsl	r3, r3, #16
3000c554:	e3530801 	cmp	r3, #65536	; 0x10000
3000c558:	13a04020 	movne	r4, #32	; 0x20
3000c55c:	1a000060 	bne	3000c6e4 <flash_erase+0x1d4>
3000c560:	e2843058 	add	r3, r4, #88	; 0x58
3000c564:	e085a003 	add	sl, r5, r3
3000c568:	e1a00002 	mov	r0, r2
3000c56c:	e1a01004 	mov	r1, r4
3000c570:	e1a0200a 	mov	r2, sl
3000c574:	e5d23000 	ldrb	r3, [r2]
3000c578:	e2811001 	add	r1, r1, #1	; 0x1
3000c57c:	e3530000 	cmp	r3, #0	; 0x0
3000c580:	12800001 	addne	r0, r0, #1	; 0x1
3000c584:	e1510009 	cmp	r1, r9
3000c588:	e2822001 	add	r2, r2, #1	; 0x1
3000c58c:	dafffff8 	ble	3000c574 <flash_erase+0x64>
3000c590:	e3500000 	cmp	r0, #0	; 0x0
3000c594:	13a04004 	movne	r4, #4	; 0x4
3000c598:	1a000051 	bne	3000c6e4 <flash_erase+0x1d4>
3000c59c:	eb001361 	bl	30011328 <icache_status>
3000c5a0:	e58d0004 	str	r0, [sp, #4]
3000c5a4:	eb00135d 	bl	30011320 <icache_disable>
3000c5a8:	ebffcfcb 	bl	300004dc <disable_interrupts>
3000c5ac:	e0853104 	add	r3, r5, r4, lsl #2
3000c5b0:	e1a0b000 	mov	fp, r0
3000c5b4:	e283700c 	add	r7, r3, #12	; 0xc
3000c5b8:	e1a05004 	mov	r5, r4
3000c5bc:	ea000037 	b	3000c6a0 <flash_erase+0x190>
3000c5c0:	e59f0128 	ldr	r0, [pc, #296]	; 3000c6f0 <flash_erase+0x1e0>
3000c5c4:	e1a01005 	mov	r1, r5
3000c5c8:	ebffe74d 	bl	30006304 <printf>
3000c5cc:	eb001235 	bl	30010ea8 <reset_timer_masked>
3000c5d0:	e5da3000 	ldrb	r3, [sl]
3000c5d4:	e3530000 	cmp	r3, #0	; 0x0
3000c5d8:	1a000029 	bne	3000c684 <flash_erase+0x174>
3000c5dc:	e2833c0a 	add	r3, r3, #2560	; 0xa00
3000c5e0:	e3a010aa 	mov	r1, #170	; 0xaa
3000c5e4:	e1c31aba 	strh	r1, [r3, #170]
3000c5e8:	e3a02c05 	mov	r2, #1280	; 0x500
3000c5ec:	e3a01055 	mov	r1, #85	; 0x55
3000c5f0:	e1c215b4 	strh	r1, [r2, #84]
3000c5f4:	e3a01080 	mov	r1, #128	; 0x80
3000c5f8:	e1c31aba 	strh	r1, [r3, #170]
3000c5fc:	e5976000 	ldr	r6, [r7]
3000c600:	e3a010aa 	mov	r1, #170	; 0xaa
3000c604:	e1c31aba 	strh	r1, [r3, #170]
3000c608:	e3a03055 	mov	r3, #85	; 0x55
3000c60c:	e3a01030 	mov	r1, #48	; 0x30
3000c610:	e1c235b4 	strh	r3, [r2, #84]
3000c614:	e1c610b0 	strh	r1, [r6]
3000c618:	e1d630b0 	ldrh	r3, [r6]
3000c61c:	e1a04003 	mov	r4, r3
3000c620:	eb001259 	bl	30010f8c <get_timer_masked>
3000c624:	e59f30c8 	ldr	r3, [pc, #200]	; 3000c6f4 <flash_erase+0x1e4>
3000c628:	e1500003 	cmp	r0, r3
3000c62c:	83a020f0 	movhi	r2, #240	; 0xf0
3000c630:	83a03c0a 	movhi	r3, #2560	; 0xa00
3000c634:	81c32aba 	strhhi	r2, [r3, #170]
3000c638:	83a02004 	movhi	r2, #4	; 0x4
3000c63c:	8a000005 	bhi	3000c658 <flash_erase+0x148>
3000c640:	e3140080 	tst	r4, #128	; 0x80
3000c644:	13a02001 	movne	r2, #1	; 0x1
3000c648:	1a000002 	bne	3000c658 <flash_erase+0x148>
3000c64c:	e3140020 	tst	r4, #32	; 0x20
3000c650:	0afffff0 	beq	3000c618 <flash_erase+0x108>
3000c654:	e3a02002 	mov	r2, #2	; 0x2
3000c658:	e3a03c0a 	mov	r3, #2560	; 0xa00
3000c65c:	e3a010f0 	mov	r1, #240	; 0xf0
3000c660:	e3520002 	cmp	r2, #2	; 0x2
3000c664:	e1c31aba 	strh	r1, [r3, #170]
3000c668:	03a04080 	moveq	r4, #128	; 0x80
3000c66c:	0a000015 	beq	3000c6c8 <flash_erase+0x1b8>
3000c670:	e3520004 	cmp	r2, #4	; 0x4
3000c674:	03a04001 	moveq	r4, #1	; 0x1
3000c678:	0a000012 	beq	3000c6c8 <flash_erase+0x1b8>
3000c67c:	e59f0074 	ldr	r0, [pc, #116]	; 3000c6f8 <flash_erase+0x1e8>
3000c680:	ea000000 	b	3000c688 <flash_erase+0x178>
3000c684:	e59f0070 	ldr	r0, [pc, #112]	; 3000c6fc <flash_erase+0x1ec>
3000c688:	e2855001 	add	r5, r5, #1	; 0x1
3000c68c:	ebffe71c 	bl	30006304 <printf>
3000c690:	e1550009 	cmp	r5, r9
3000c694:	e28aa001 	add	sl, sl, #1	; 0x1
3000c698:	e2877004 	add	r7, r7, #4	; 0x4
3000c69c:	ca000002 	bgt	3000c6ac <flash_erase+0x19c>
3000c6a0:	ebffe7b1 	bl	3000656c <ctrlc>
3000c6a4:	e3500000 	cmp	r0, #0	; 0x0
3000c6a8:	0affffc4 	beq	3000c5c0 <flash_erase+0xb0>
3000c6ac:	ebffe7ae 	bl	3000656c <ctrlc>
3000c6b0:	e3500000 	cmp	r0, #0	; 0x0
3000c6b4:	01a04000 	moveq	r4, r0
3000c6b8:	0a000002 	beq	3000c6c8 <flash_erase+0x1b8>
3000c6bc:	e59f003c 	ldr	r0, [pc, #60]	; 3000c700 <flash_erase+0x1f0>
3000c6c0:	ebffe70f 	bl	30006304 <printf>
3000c6c4:	e3a04000 	mov	r4, #0	; 0x0
3000c6c8:	e59f0034 	ldr	r0, [pc, #52]	; 3000c704 <flash_erase+0x1f4>
3000c6cc:	eb001211 	bl	30010f18 <udelay_masked>
3000c6d0:	e35b0000 	cmp	fp, #0	; 0x0
3000c6d4:	1bffcf7f 	blne	300004d8 <enable_interrupts>
3000c6d8:	e59d2004 	ldr	r2, [sp, #4]
3000c6dc:	e3520000 	cmp	r2, #0	; 0x0
3000c6e0:	1b00130c 	blne	30011318 <icache_enable>
3000c6e4:	e1a00004 	mov	r0, r4
3000c6e8:	e8bd8efc 	pop	{r2, r3, r4, r5, r6, r7, r9, sl, fp, pc}
3000c6ec:	0000ffff 	.word	0x0000ffff
3000c6f0:	3001a89c 	.word	0x3001a89c
3000c6f4:	00001388 	.word	0x00001388
3000c6f8:	3001a8b4 	.word	0x3001a8b4
3000c6fc:	3001a8b9 	.word	0x3001a8b9
3000c700:	3001a8c5 	.word	0x3001a8c5
3000c704:	00002710 	.word	0x00002710

3000c708 <flash_init>:
3000c708:	e92d4070 	push	{r4, r5, r6, lr}
3000c70c:	e59f30c0 	ldr	r3, [pc, #192]	; 3000c7d4 <flash_init+0xcc>
3000c710:	e59f40c0 	ldr	r4, [pc, #192]	; 3000c7d8 <flash_init+0xd0>
3000c714:	e5843008 	str	r3, [r4, #8]
3000c718:	e3a03601 	mov	r3, #1048576	; 0x100000
3000c71c:	e5843000 	str	r3, [r4]
3000c720:	e3a03013 	mov	r3, #19	; 0x13
3000c724:	e3a01000 	mov	r1, #0	; 0x0
3000c728:	e2840058 	add	r0, r4, #88	; 0x58
3000c72c:	e3a02013 	mov	r2, #19	; 0x13
3000c730:	e1c430b4 	strh	r3, [r4, #4]
3000c734:	eb0003cb 	bl	3000d668 <memset>
3000c738:	e3a01000 	mov	r1, #0	; 0x0
3000c73c:	e59fc098 	ldr	ip, [pc, #152]	; 3000c7dc <flash_init+0xd4>
3000c740:	e3a00a02 	mov	r0, #8192	; 0x2000
3000c744:	ea00000e 	b	3000c784 <flash_init+0x7c>
3000c748:	e3510003 	cmp	r1, #3	; 0x3
3000c74c:	c584c00c 	strgt	ip, [r4, #12]
3000c750:	ca000007 	bgt	3000c774 <flash_init+0x6c>
3000c754:	e3510000 	cmp	r1, #0	; 0x0
3000c758:	0585100c 	streq	r1, [r5, #12]
3000c75c:	e3520001 	cmp	r2, #1	; 0x1
3000c760:	9584000c 	strls	r0, [r4, #12]
3000c764:	e3510003 	cmp	r1, #3	; 0x3
3000c768:	059f3068 	ldreq	r3, [pc, #104]	; 3000c7d8 <flash_init+0xd0>
3000c76c:	03a02902 	moveq	r2, #32768	; 0x8000
3000c770:	05832018 	streq	r2, [r3, #24]
3000c774:	e2811001 	add	r1, r1, #1	; 0x1
3000c778:	e2844004 	add	r4, r4, #4	; 0x4
3000c77c:	e28cc801 	add	ip, ip, #65536	; 0x10000
3000c780:	e2800a02 	add	r0, r0, #8192	; 0x2000
3000c784:	e59f504c 	ldr	r5, [pc, #76]	; 3000c7d8 <flash_init+0xd0>
3000c788:	e1d530b4 	ldrh	r3, [r5, #4]
3000c78c:	e1510003 	cmp	r1, r3
3000c790:	e2412001 	sub	r2, r1, #1	; 0x1
3000c794:	baffffeb 	blt	3000c748 <flash_init+0x40>
3000c798:	e59f3040 	ldr	r3, [pc, #64]	; 3000c7e0 <flash_init+0xd8>
3000c79c:	e5932000 	ldr	r2, [r3]
3000c7a0:	e5954000 	ldr	r4, [r5]
3000c7a4:	e1a03005 	mov	r3, r5
3000c7a8:	e2422001 	sub	r2, r2, #1	; 0x1
3000c7ac:	e3a00001 	mov	r0, #1	; 0x1
3000c7b0:	e3a01000 	mov	r1, #0	; 0x0
3000c7b4:	ebffec41 	bl	300078c0 <flash_protect>
3000c7b8:	e1a03005 	mov	r3, r5
3000c7bc:	e3a00001 	mov	r0, #1	; 0x1
3000c7c0:	e3a0180f 	mov	r1, #983040	; 0xf0000
3000c7c4:	e59f2018 	ldr	r2, [pc, #24]	; 3000c7e4 <flash_init+0xdc>
3000c7c8:	ebffec3c 	bl	300078c0 <flash_protect>
3000c7cc:	e1a00004 	mov	r0, r4
3000c7d0:	e8bd8070 	pop	{r4, r5, r6, pc}
3000c7d4:	0001225b 	.word	0x0001225b
3000c7d8:	3001e0ac 	.word	0x3001e0ac
3000c7dc:	fffd0000 	.word	0xfffd0000
3000c7e0:	3001c280 	.word	0x3001c280
3000c7e4:	000fffff 	.word	0x000fffff

3000c7e8 <cyg_crc16>:
3000c7e8:	e3a0c000 	mov	ip, #0	; 0x0
3000c7ec:	e92d4010 	push	{r4, lr}
3000c7f0:	e1a04000 	mov	r4, r0
3000c7f4:	e1a0000c 	mov	r0, ip
3000c7f8:	ea000008 	b	3000c820 <cyg_crc16+0x38>
3000c7fc:	e7d4300c 	ldrb	r3, [r4, ip]
3000c800:	e59f2024 	ldr	r2, [pc, #36]	; 3000c82c <cyg_crc16+0x44>
3000c804:	e0233420 	eor	r3, r3, r0, lsr #8
3000c808:	e1a03083 	lsl	r3, r3, #1
3000c80c:	e19230b3 	ldrh	r3, [r2, r3]
3000c810:	e0233400 	eor	r3, r3, r0, lsl #8
3000c814:	e1a03803 	lsl	r3, r3, #16
3000c818:	e1a00823 	lsr	r0, r3, #16
3000c81c:	e28cc001 	add	ip, ip, #1	; 0x1
3000c820:	e15c0001 	cmp	ip, r1
3000c824:	bafffff4 	blt	3000c7fc <cyg_crc16+0x14>
3000c828:	e8bd8010 	pop	{r4, pc}
3000c82c:	30016e0c 	.word	0x30016e0c

3000c830 <crc32>:
3000c830:	e92d40f0 	push	{r4, r5, r6, r7, lr}
3000c834:	e1e00000 	mvn	r0, r0
3000c838:	e1a07001 	mov	r7, r1
3000c83c:	e1a05002 	mov	r5, r2
3000c840:	e1a0c001 	mov	ip, r1
3000c844:	e1a06002 	mov	r6, r2
3000c848:	ea000027 	b	3000c8ec <crc32+0xbc>
3000c84c:	e55c3008 	ldrb	r3, [ip, #-8]
3000c850:	e0203003 	eor	r3, r0, r3
3000c854:	e20330ff 	and	r3, r3, #255	; 0xff
3000c858:	e7942103 	ldr	r2, [r4, r3, lsl #2]
3000c85c:	e55c3007 	ldrb	r3, [ip, #-7]
3000c860:	e0222420 	eor	r2, r2, r0, lsr #8
3000c864:	e0223003 	eor	r3, r2, r3
3000c868:	e20330ff 	and	r3, r3, #255	; 0xff
3000c86c:	e7941103 	ldr	r1, [r4, r3, lsl #2]
3000c870:	e55c3006 	ldrb	r3, [ip, #-6]
3000c874:	e0211422 	eor	r1, r1, r2, lsr #8
3000c878:	e0213003 	eor	r3, r1, r3
3000c87c:	e20330ff 	and	r3, r3, #255	; 0xff
3000c880:	e7942103 	ldr	r2, [r4, r3, lsl #2]
3000c884:	e55c3005 	ldrb	r3, [ip, #-5]
3000c888:	e0222421 	eor	r2, r2, r1, lsr #8
3000c88c:	e0223003 	eor	r3, r2, r3
3000c890:	e20330ff 	and	r3, r3, #255	; 0xff
3000c894:	e7941103 	ldr	r1, [r4, r3, lsl #2]
3000c898:	e55c3004 	ldrb	r3, [ip, #-4]
3000c89c:	e0211422 	eor	r1, r1, r2, lsr #8
3000c8a0:	e0213003 	eor	r3, r1, r3
3000c8a4:	e20330ff 	and	r3, r3, #255	; 0xff
3000c8a8:	e7942103 	ldr	r2, [r4, r3, lsl #2]
3000c8ac:	e55c3003 	ldrb	r3, [ip, #-3]
3000c8b0:	e0222421 	eor	r2, r2, r1, lsr #8
3000c8b4:	e0223003 	eor	r3, r2, r3
3000c8b8:	e20330ff 	and	r3, r3, #255	; 0xff
3000c8bc:	e7941103 	ldr	r1, [r4, r3, lsl #2]
3000c8c0:	e55c3002 	ldrb	r3, [ip, #-2]
3000c8c4:	e0211422 	eor	r1, r1, r2, lsr #8
3000c8c8:	e0213003 	eor	r3, r1, r3
3000c8cc:	e20330ff 	and	r3, r3, #255	; 0xff
3000c8d0:	e7942103 	ldr	r2, [r4, r3, lsl #2]
3000c8d4:	e55c3001 	ldrb	r3, [ip, #-1]
3000c8d8:	e0222421 	eor	r2, r2, r1, lsr #8
3000c8dc:	e0223003 	eor	r3, r2, r3
3000c8e0:	e20330ff 	and	r3, r3, #255	; 0xff
3000c8e4:	e7943103 	ldr	r3, [r4, r3, lsl #2]
3000c8e8:	e0230422 	eor	r0, r3, r2, lsr #8
3000c8ec:	e3560007 	cmp	r6, #7	; 0x7
3000c8f0:	e59f4048 	ldr	r4, [pc, #72]	; 3000c940 <crc32+0x110>
3000c8f4:	e2466008 	sub	r6, r6, #8	; 0x8
3000c8f8:	e28cc008 	add	ip, ip, #8	; 0x8
3000c8fc:	8affffd2 	bhi	3000c84c <crc32+0x1c>
3000c900:	e3c53007 	bic	r3, r5, #7	; 0x7
3000c904:	e2154007 	ands	r4, r5, #7	; 0x7
3000c908:	e0871003 	add	r1, r7, r3
3000c90c:	0a000009 	beq	3000c938 <crc32+0x108>
3000c910:	e3a0c000 	mov	ip, #0	; 0x0
3000c914:	e7d1300c 	ldrb	r3, [r1, ip]
3000c918:	e59f2020 	ldr	r2, [pc, #32]	; 3000c940 <crc32+0x110>
3000c91c:	e0203003 	eor	r3, r0, r3
3000c920:	e20330ff 	and	r3, r3, #255	; 0xff
3000c924:	e7923103 	ldr	r3, [r2, r3, lsl #2]
3000c928:	e28cc001 	add	ip, ip, #1	; 0x1
3000c92c:	e154000c 	cmp	r4, ip
3000c930:	e0230420 	eor	r0, r3, r0, lsr #8
3000c934:	1afffff6 	bne	3000c914 <crc32+0xe4>
3000c938:	e1e00000 	mvn	r0, r0
3000c93c:	e8bd80f0 	pop	{r4, r5, r6, r7, pc}
3000c940:	30016010 	.word	0x30016010

3000c944 <crc32_wd>:
3000c944:	eaffffb9 	b	3000c830 <crc32>

3000c948 <print_size>:
3000c948:	e3700107 	cmn	r0, #-1073741823	; 0xc0000001
3000c94c:	e92d44f0 	push	{r4, r5, r6, r7, sl, lr}
3000c950:	e1a05000 	mov	r5, r0
3000c954:	e1a0a001 	mov	sl, r1
3000c958:	83a04101 	movhi	r4, #1073741824	; 0x40000000
3000c95c:	83a07047 	movhi	r7, #71	; 0x47
3000c960:	8a000005 	bhi	3000c97c <print_size+0x34>
3000c964:	e59f3094 	ldr	r3, [pc, #148]	; 3000ca00 <print_size+0xb8>
3000c968:	e1500003 	cmp	r0, r3
3000c96c:	83a0704d 	movhi	r7, #77	; 0x4d
3000c970:	93a0706b 	movls	r7, #107	; 0x6b
3000c974:	83a04601 	movhi	r4, #1048576	; 0x100000
3000c978:	93a04b01 	movls	r4, #1024	; 0x400
3000c97c:	e1a01004 	mov	r1, r4
3000c980:	e1a00005 	mov	r0, r5
3000c984:	eb002452 	bl	30015ad4 <__aeabi_uidiv>
3000c988:	e1a01004 	mov	r1, r4
3000c98c:	e1a06000 	mov	r6, r0
3000c990:	e1a00005 	mov	r0, r5
3000c994:	eb0024c9 	bl	30015cc0 <__aeabi_uidivmod>
3000c998:	e2510000 	subs	r0, r1, #0	; 0x0
3000c99c:	01a04000 	moveq	r4, r0
3000c9a0:	0a00000a 	beq	3000c9d0 <print_size+0x88>
3000c9a4:	e0030694 	mul	r3, r4, r6
3000c9a8:	e1a010a4 	lsr	r1, r4, #1
3000c9ac:	e0633005 	rsb	r3, r3, r5
3000c9b0:	e3a0200a 	mov	r2, #10	; 0xa
3000c9b4:	e0201392 	mla	r0, r2, r3, r1
3000c9b8:	e1a01004 	mov	r1, r4
3000c9bc:	eb002444 	bl	30015ad4 <__aeabi_uidiv>
3000c9c0:	e3500009 	cmp	r0, #9	; 0x9
3000c9c4:	e1a04000 	mov	r4, r0
3000c9c8:	82866001 	addhi	r6, r6, #1	; 0x1
3000c9cc:	8240400a 	subhi	r4, r0, #10	; 0xa
3000c9d0:	e1a01006 	mov	r1, r6
3000c9d4:	e59f0028 	ldr	r0, [pc, #40]	; 3000ca04 <print_size+0xbc>
3000c9d8:	ebffe649 	bl	30006304 <printf>
3000c9dc:	e3540000 	cmp	r4, #0	; 0x0
3000c9e0:	11a01004 	movne	r1, r4
3000c9e4:	159f001c 	ldrne	r0, [pc, #28]	; 3000ca08 <print_size+0xc0>
3000c9e8:	1bffe645 	blne	30006304 <printf>
3000c9ec:	e59f0018 	ldr	r0, [pc, #24]	; 3000ca0c <print_size+0xc4>
3000c9f0:	e1a01007 	mov	r1, r7
3000c9f4:	e1a0200a 	mov	r2, sl
3000c9f8:	e8bd44f0 	pop	{r4, r5, r6, r7, sl, lr}
3000c9fc:	eaffe640 	b	30006304 <printf>
3000ca00:	000fffff 	.word	0x000fffff
3000ca04:	3001a8d6 	.word	0x3001a8d6
3000ca08:	3001a8db 	.word	0x3001a8db
3000ca0c:	3001a8e0 	.word	0x3001a8e0

3000ca10 <display_options>:
3000ca10:	e92d4010 	push	{r4, lr}
3000ca14:	e59f000c 	ldr	r0, [pc, #12]	; 3000ca28 <display_options+0x18>
3000ca18:	e59f100c 	ldr	r1, [pc, #12]	; 3000ca2c <display_options+0x1c>
3000ca1c:	ebffe638 	bl	30006304 <printf>
3000ca20:	e3a00000 	mov	r0, #0	; 0x0
3000ca24:	e8bd8010 	pop	{r4, pc}
3000ca28:	3001709b 	.word	0x3001709b
3000ca2c:	3001700c 	.word	0x3001700c

3000ca30 <print_buffer>:
3000ca30:	e92d4ef0 	push	{r4, r5, r6, r7, r9, sl, fp, lr}
3000ca34:	e24dd040 	sub	sp, sp, #64	; 0x40
3000ca38:	e59d5060 	ldr	r5, [sp, #96]
3000ca3c:	e1a07002 	mov	r7, r2
3000ca40:	e0020597 	mul	r2, r7, r5
3000ca44:	e3520040 	cmp	r2, #64	; 0x40
3000ca48:	e1a0b000 	mov	fp, r0
3000ca4c:	e1a09001 	mov	r9, r1
3000ca50:	e1a0a003 	mov	sl, r3
3000ca54:	9a000003 	bls	3000ca68 <print_buffer+0x38>
3000ca58:	e3a00040 	mov	r0, #64	; 0x40
3000ca5c:	e1a01007 	mov	r1, r7
3000ca60:	eb00241b 	bl	30015ad4 <__aeabi_uidiv>
3000ca64:	e1a05000 	mov	r5, r0
3000ca68:	e3550000 	cmp	r5, #0	; 0x0
3000ca6c:	1a00003c 	bne	3000cb64 <print_buffer+0x134>
3000ca70:	e3a00010 	mov	r0, #16	; 0x10
3000ca74:	e1a01007 	mov	r1, r7
3000ca78:	eb002415 	bl	30015ad4 <__aeabi_uidiv>
3000ca7c:	e1a05000 	mov	r5, r0
3000ca80:	ea000037 	b	3000cb64 <print_buffer+0x134>
3000ca84:	e59f00ec 	ldr	r0, [pc, #236]	; 3000cb78 <print_buffer+0x148>
3000ca88:	e1a0100b 	mov	r1, fp
3000ca8c:	ebffe61c 	bl	30006304 <printf>
3000ca90:	e155000a 	cmp	r5, sl
3000ca94:	21a0500a 	movcs	r5, sl
3000ca98:	e1a06009 	mov	r6, r9
3000ca9c:	e3a04000 	mov	r4, #0	; 0x0
3000caa0:	ea000012 	b	3000caf0 <print_buffer+0xc0>
3000caa4:	e3570004 	cmp	r7, #4	; 0x4
3000caa8:	05962000 	ldreq	r2, [r6]
3000caac:	059f00c8 	ldreq	r0, [pc, #200]	; 3000cb7c <print_buffer+0x14c>
3000cab0:	01a01002 	moveq	r1, r2
3000cab4:	078d2104 	streq	r2, [sp, r4, lsl #2]
3000cab8:	0a000009 	beq	3000cae4 <print_buffer+0xb4>
3000cabc:	e3570002 	cmp	r7, #2	; 0x2
3000cac0:	15d63000 	ldrbne	r3, [r6]
3000cac4:	01d630b0 	ldrheq	r3, [r6]
3000cac8:	120330ff 	andne	r3, r3, #255	; 0xff
3000cacc:	01a02084 	lsleq	r2, r4, #1
3000cad0:	059f00a8 	ldreq	r0, [pc, #168]	; 3000cb80 <print_buffer+0x150>
3000cad4:	018d30b2 	strheq	r3, [sp, r2]
3000cad8:	17cd3004 	strbne	r3, [sp, r4]
3000cadc:	01a01003 	moveq	r1, r3
3000cae0:	11a01003 	movne	r1, r3
3000cae4:	ebffe606 	bl	30006304 <printf>
3000cae8:	e0866007 	add	r6, r6, r7
3000caec:	e2844001 	add	r4, r4, #1	; 0x1
3000caf0:	e1540005 	cmp	r4, r5
3000caf4:	e59f0088 	ldr	r0, [pc, #136]	; 3000cb84 <print_buffer+0x154>
3000caf8:	3affffe9 	bcc	3000caa4 <print_buffer+0x74>
3000cafc:	e0060597 	mul	r6, r7, r5
3000cb00:	e59f0080 	ldr	r0, [pc, #128]	; 3000cb88 <print_buffer+0x158>
3000cb04:	e0899006 	add	r9, r9, r6
3000cb08:	ebffe5eb 	bl	300062bc <puts>
3000cb0c:	e3a04000 	mov	r4, #0	; 0x0
3000cb10:	ea000009 	b	3000cb3c <print_buffer+0x10c>
3000cb14:	e7dd0004 	ldrb	r0, [sp, r4]
3000cb18:	e59f306c 	ldr	r3, [pc, #108]	; 3000cb8c <print_buffer+0x15c>
3000cb1c:	e7d33000 	ldrb	r3, [r3, r0]
3000cb20:	e3130097 	tst	r3, #151	; 0x97
3000cb24:	e2844001 	add	r4, r4, #1	; 0x1
3000cb28:	0a000001 	beq	3000cb34 <print_buffer+0x104>
3000cb2c:	e3100080 	tst	r0, #128	; 0x80
3000cb30:	0a000000 	beq	3000cb38 <print_buffer+0x108>
3000cb34:	e3a0002e 	mov	r0, #46	; 0x2e
3000cb38:	ebffe678 	bl	30006520 <putc>
3000cb3c:	e1540006 	cmp	r4, r6
3000cb40:	3afffff3 	bcc	3000cb14 <print_buffer+0xe4>
3000cb44:	e3a0000a 	mov	r0, #10	; 0xa
3000cb48:	ebffe674 	bl	30006520 <putc>
3000cb4c:	ebffe686 	bl	3000656c <ctrlc>
3000cb50:	e3500000 	cmp	r0, #0	; 0x0
3000cb54:	13e00000 	mvnne	r0, #0	; 0x0
3000cb58:	1a000004 	bne	3000cb70 <print_buffer+0x140>
3000cb5c:	e08bb006 	add	fp, fp, r6
3000cb60:	e065a00a 	rsb	sl, r5, sl
3000cb64:	e35a0000 	cmp	sl, #0	; 0x0
3000cb68:	1affffc5 	bne	3000ca84 <print_buffer+0x54>
3000cb6c:	e1a0000a 	mov	r0, sl
3000cb70:	e28dd040 	add	sp, sp, #64	; 0x40
3000cb74:	e8bd8ef0 	pop	{r4, r5, r6, r7, r9, sl, fp, pc}
3000cb78:	30018f47 	.word	0x30018f47
3000cb7c:	30018f4e 	.word	0x30018f4e
3000cb80:	30018f54 	.word	0x30018f54
3000cb84:	30018f5a 	.word	0x30018f5a
3000cb88:	3001a29a 	.word	0x3001a29a
3000cb8c:	3001bc30 	.word	0x3001bc30

3000cb90 <zunzip>:
3000cb90:	e92d46f0 	push	{r4, r5, r6, r7, r9, sl, lr}
3000cb94:	e59fc0d4 	ldr	ip, [pc, #212]	; 3000cc70 <zunzip+0xe0>
3000cb98:	e24dd044 	sub	sp, sp, #68	; 0x44
3000cb9c:	e58dc024 	str	ip, [sp, #36]
3000cba0:	e59fc0cc 	ldr	ip, [pc, #204]	; 3000cc74 <zunzip+0xe4>
3000cba4:	e28d5004 	add	r5, sp, #4	; 0x4
3000cba8:	e58dc028 	str	ip, [sp, #40]
3000cbac:	e1a0a000 	mov	sl, r0
3000cbb0:	e3a0c000 	mov	ip, #0	; 0x0
3000cbb4:	e1a09001 	mov	r9, r1
3000cbb8:	e1a06002 	mov	r6, r2
3000cbbc:	e1a07003 	mov	r7, r3
3000cbc0:	e1a00005 	mov	r0, r5
3000cbc4:	e3e0100e 	mvn	r1, #14	; 0xe
3000cbc8:	e59f20a8 	ldr	r2, [pc, #168]	; 3000cc78 <zunzip+0xe8>
3000cbcc:	e3a0303c 	mov	r3, #60	; 0x3c
3000cbd0:	e58dc034 	str	ip, [sp, #52]
3000cbd4:	e59d4064 	ldr	r4, [sp, #100]
3000cbd8:	eb00096f 	bl	3000f19c <inflateInit2_>
3000cbdc:	e3500000 	cmp	r0, #0	; 0x0
3000cbe0:	0a000003 	beq	3000cbf4 <zunzip+0x64>
3000cbe4:	e1a01000 	mov	r1, r0
3000cbe8:	e59f008c 	ldr	r0, [pc, #140]	; 3000cc7c <zunzip+0xec>
3000cbec:	ebffe5c4 	bl	30006304 <printf>
3000cbf0:	ea000014 	b	3000cc48 <zunzip+0xb8>
3000cbf4:	e5973000 	ldr	r3, [r7]
3000cbf8:	e0862004 	add	r2, r6, r4
3000cbfc:	e0643003 	rsb	r3, r4, r3
3000cc00:	e1a00005 	mov	r0, r5
3000cc04:	e3a01004 	mov	r1, #4	; 0x4
3000cc08:	e98d000c 	stmib	sp, {r2, r3}
3000cc0c:	e58d9014 	str	r9, [sp, #20]
3000cc10:	e58da010 	str	sl, [sp, #16]
3000cc14:	eb000a9b 	bl	3000f688 <inflate>
3000cc18:	e59d3060 	ldr	r3, [sp, #96]
3000cc1c:	e2504001 	subs	r4, r0, #1	; 0x1
3000cc20:	13a04001 	movne	r4, #1	; 0x1
3000cc24:	e3530001 	cmp	r3, #1	; 0x1
3000cc28:	13a04000 	movne	r4, #0	; 0x0
3000cc2c:	e3540000 	cmp	r4, #0	; 0x0
3000cc30:	0a000006 	beq	3000cc50 <zunzip+0xc0>
3000cc34:	e1a01000 	mov	r1, r0
3000cc38:	e59f0040 	ldr	r0, [pc, #64]	; 3000cc80 <zunzip+0xf0>
3000cc3c:	ebffe5b0 	bl	30006304 <printf>
3000cc40:	e1a00005 	mov	r0, r5
3000cc44:	eb00099a 	bl	3000f2b4 <inflateEnd>
3000cc48:	e3e00000 	mvn	r0, #0	; 0x0
3000cc4c:	ea000005 	b	3000cc68 <zunzip+0xd8>
3000cc50:	e59d3010 	ldr	r3, [sp, #16]
3000cc54:	e06a3003 	rsb	r3, sl, r3
3000cc58:	e5873000 	str	r3, [r7]
3000cc5c:	e1a00005 	mov	r0, r5
3000cc60:	eb000993 	bl	3000f2b4 <inflateEnd>
3000cc64:	e1a00004 	mov	r0, r4
3000cc68:	e28dd044 	add	sp, sp, #68	; 0x44
3000cc6c:	e8bd86f0 	pop	{r4, r5, r6, r7, r9, sl, pc}
3000cc70:	3000cd54 	.word	0x3000cd54
3000cc74:	3000cd4c 	.word	0x3000cd4c
3000cc78:	3001a8e7 	.word	0x3001a8e7
3000cc7c:	3001a8ed 	.word	0x3001a8ed
3000cc80:	3001a910 	.word	0x3001a910

3000cc84 <gunzip>:
3000cc84:	e92d4037 	push	{r0, r1, r2, r4, r5, lr}
3000cc88:	e1a0c002 	mov	ip, r2
3000cc8c:	e5d22002 	ldrb	r2, [r2, #2]
3000cc90:	e3520008 	cmp	r2, #8	; 0x8
3000cc94:	e1a05001 	mov	r5, r1
3000cc98:	e1a04003 	mov	r4, r3
3000cc9c:	e5dc1003 	ldrb	r1, [ip, #3]
3000cca0:	1a000001 	bne	3000ccac <gunzip+0x28>
3000cca4:	e31100e0 	tst	r1, #224	; 0xe0
3000cca8:	0a000001 	beq	3000ccb4 <gunzip+0x30>
3000ccac:	e59f0090 	ldr	r0, [pc, #144]	; 3000cd44 <gunzip+0xc0>
3000ccb0:	ea000019 	b	3000cd1c <gunzip+0x98>
3000ccb4:	e3110004 	tst	r1, #4	; 0x4
3000ccb8:	15dc300a 	ldrbne	r3, [ip, #10]
3000ccbc:	15dc200b 	ldrbne	r2, [ip, #11]
3000ccc0:	1283300c 	addne	r3, r3, #12	; 0xc
3000ccc4:	03a0e00a 	moveq	lr, #10	; 0xa
3000ccc8:	1083e402 	addne	lr, r3, r2, lsl #8
3000cccc:	e3110008 	tst	r1, #8	; 0x8
3000ccd0:	0a000004 	beq	3000cce8 <gunzip+0x64>
3000ccd4:	e08c200e 	add	r2, ip, lr
3000ccd8:	e4d23001 	ldrb	r3, [r2], #1
3000ccdc:	e3530000 	cmp	r3, #0	; 0x0
3000cce0:	e28ee001 	add	lr, lr, #1	; 0x1
3000cce4:	1afffffb 	bne	3000ccd8 <gunzip+0x54>
3000cce8:	e3110010 	tst	r1, #16	; 0x10
3000ccec:	0a000004 	beq	3000cd04 <gunzip+0x80>
3000ccf0:	e08c200e 	add	r2, ip, lr
3000ccf4:	e4d23001 	ldrb	r3, [r2], #1
3000ccf8:	e3530000 	cmp	r3, #0	; 0x0
3000ccfc:	e28ee001 	add	lr, lr, #1	; 0x1
3000cd00:	1afffffb 	bne	3000ccf4 <gunzip+0x70>
3000cd04:	e3110002 	tst	r1, #2	; 0x2
3000cd08:	e5943000 	ldr	r3, [r4]
3000cd0c:	128ee002 	addne	lr, lr, #2	; 0x2
3000cd10:	e15e0003 	cmp	lr, r3
3000cd14:	3a000003 	bcc	3000cd28 <gunzip+0xa4>
3000cd18:	e59f0028 	ldr	r0, [pc, #40]	; 3000cd48 <gunzip+0xc4>
3000cd1c:	ebffe566 	bl	300062bc <puts>
3000cd20:	e3e00000 	mvn	r0, #0	; 0x0
3000cd24:	ea000005 	b	3000cd40 <gunzip+0xbc>
3000cd28:	e1a0200c 	mov	r2, ip
3000cd2c:	e1a01005 	mov	r1, r5
3000cd30:	e3a0c001 	mov	ip, #1	; 0x1
3000cd34:	e1a03004 	mov	r3, r4
3000cd38:	e88d5000 	stm	sp, {ip, lr}
3000cd3c:	ebffff93 	bl	3000cb90 <zunzip>
3000cd40:	e8bd803e 	pop	{r1, r2, r3, r4, r5, pc}
3000cd44:	3001a92e 	.word	0x3001a92e
3000cd48:	3001a947 	.word	0x3001a947

3000cd4c <zfree>:
3000cd4c:	e1a00001 	mov	r0, r1
3000cd50:	eaffe659 	b	300066bc <free>

3000cd54 <zalloc>:
3000cd54:	e0000291 	mul	r0, r1, r2
3000cd58:	e280000f 	add	r0, r0, #15	; 0xf
3000cd5c:	e3c0000f 	bic	r0, r0, #15	; 0xf
3000cd60:	eaffe6e5 	b	300068fc <malloc>

3000cd64 <lmb_dump_all>:
3000cd64:	e1a0f00e 	mov	pc, lr

3000cd68 <lmb_addrs_adjacent>:
3000cd68:	e0811000 	add	r1, r1, r0
3000cd6c:	e1520001 	cmp	r2, r1
3000cd70:	03a00001 	moveq	r0, #1	; 0x1
3000cd74:	01a0f00e 	moveq	pc, lr
3000cd78:	e0833002 	add	r3, r3, r2
3000cd7c:	e1500003 	cmp	r0, r3
3000cd80:	03e00000 	mvneq	r0, #0	; 0x0
3000cd84:	13a00000 	movne	r0, #0	; 0x0
3000cd88:	e1a0f00e 	mov	pc, lr

3000cd8c <lmb_remove_region>:
3000cd8c:	e2813002 	add	r3, r1, #2	; 0x2
3000cd90:	e080c183 	add	ip, r0, r3, lsl #3
3000cd94:	ea000003 	b	3000cda8 <lmb_remove_region+0x1c>
3000cd98:	e51c3008 	ldr	r3, [ip, #-8]
3000cd9c:	e51c2004 	ldr	r2, [ip, #-4]
3000cda0:	e50c3010 	str	r3, [ip, #-16]
3000cda4:	e50c200c 	str	r2, [ip, #-12]
3000cda8:	e5903000 	ldr	r3, [r0]
3000cdac:	e2433001 	sub	r3, r3, #1	; 0x1
3000cdb0:	e1510003 	cmp	r1, r3
3000cdb4:	e28cc008 	add	ip, ip, #8	; 0x8
3000cdb8:	e2811001 	add	r1, r1, #1	; 0x1
3000cdbc:	3afffff5 	bcc	3000cd98 <lmb_remove_region+0xc>
3000cdc0:	e5803000 	str	r3, [r0]
3000cdc4:	e1a0f00e 	mov	pc, lr

3000cdc8 <lmb_init>:
3000cdc8:	e3a03000 	mov	r3, #0	; 0x0
3000cdcc:	e3a02001 	mov	r2, #1	; 0x1
3000cdd0:	e5803054 	str	r3, [r0, #84]
3000cdd4:	e5802050 	str	r2, [r0, #80]
3000cdd8:	e5803008 	str	r3, [r0, #8]
3000cddc:	e580300c 	str	r3, [r0, #12]
3000cde0:	e880000c 	stm	r0, {r2, r3}
3000cde4:	e5803058 	str	r3, [r0, #88]
3000cde8:	e580305c 	str	r3, [r0, #92]
3000cdec:	e1a0f00e 	mov	pc, lr

3000cdf0 <lmb_add_region>:
3000cdf0:	e92d4eff 	push	{r0, r1, r2, r3, r4, r5, r6, r7, r9, sl, fp, lr}
3000cdf4:	e590b000 	ldr	fp, [r0]
3000cdf8:	e35b0001 	cmp	fp, #1	; 0x1
3000cdfc:	e1a04000 	mov	r4, r0
3000ce00:	e58d1008 	str	r1, [sp, #8]
3000ce04:	e1a09002 	mov	r9, r2
3000ce08:	0a000002 	beq	3000ce18 <lmb_add_region+0x28>
3000ce0c:	e1a07004 	mov	r7, r4
3000ce10:	e3a0a000 	mov	sl, #0	; 0x0
3000ce14:	ea000022 	b	3000cea4 <lmb_add_region+0xb4>
3000ce18:	e590000c 	ldr	r0, [r0, #12]
3000ce1c:	e3500000 	cmp	r0, #0	; 0x0
3000ce20:	059d1008 	ldreq	r1, [sp, #8]
3000ce24:	0584200c 	streq	r2, [r4, #12]
3000ce28:	05841008 	streq	r1, [r4, #8]
3000ce2c:	1afffff6 	bne	3000ce0c <lmb_add_region+0x1c>
3000ce30:	ea00005e 	b	3000cfb0 <lmb_add_region+0x1c0>
3000ce34:	e5976008 	ldr	r6, [r7, #8]
3000ce38:	e597500c 	ldr	r5, [r7, #12]
3000ce3c:	e59dc008 	ldr	ip, [sp, #8]
3000ce40:	e156000c 	cmp	r6, ip
3000ce44:	01550009 	cmpeq	r5, r9
3000ce48:	e1a02006 	mov	r2, r6
3000ce4c:	e1a03005 	mov	r3, r5
3000ce50:	e2877008 	add	r7, r7, #8	; 0x8
3000ce54:	0a000054 	beq	3000cfac <lmb_add_region+0x1bc>
3000ce58:	ebffffc2 	bl	3000cd68 <lmb_addrs_adjacent>
3000ce5c:	e3500000 	cmp	r0, #0	; 0x0
3000ce60:	e28a3001 	add	r3, sl, #1	; 0x1
3000ce64:	da000007 	ble	3000ce88 <lmb_add_region+0x98>
3000ce68:	e0842183 	add	r2, r4, r3, lsl #3
3000ce6c:	e1a00003 	mov	r0, r3
3000ce70:	e5923004 	ldr	r3, [r2, #4]
3000ce74:	e0691006 	rsb	r1, r9, r6
3000ce78:	e0893003 	add	r3, r9, r3
3000ce7c:	e5823004 	str	r3, [r2, #4]
3000ce80:	e7841180 	str	r1, [r4, r0, lsl #3]
3000ce84:	ea000003 	b	3000ce98 <lmb_add_region+0xa8>
3000ce88:	0a000004 	beq	3000cea0 <lmb_add_region+0xb0>
3000ce8c:	e0842183 	add	r2, r4, r3, lsl #3
3000ce90:	e0853009 	add	r3, r5, r9
3000ce94:	e5823004 	str	r3, [r2, #4]
3000ce98:	e3a07001 	mov	r7, #1	; 0x1
3000ce9c:	ea000005 	b	3000ceb8 <lmb_add_region+0xc8>
3000cea0:	e1a0a003 	mov	sl, r3
3000cea4:	e15a000b 	cmp	sl, fp
3000cea8:	e59d0008 	ldr	r0, [sp, #8]
3000ceac:	e1a01009 	mov	r1, r9
3000ceb0:	3affffdf 	bcc	3000ce34 <lmb_add_region+0x44>
3000ceb4:	e3a07000 	mov	r7, #0	; 0x0
3000ceb8:	e5946000 	ldr	r6, [r4]
3000cebc:	e2461001 	sub	r1, r6, #1	; 0x1
3000cec0:	e15a0001 	cmp	sl, r1
3000cec4:	e58d100c 	str	r1, [sp, #12]
3000cec8:	2a000015 	bcs	3000cf24 <lmb_add_region+0x134>
3000cecc:	e28a5001 	add	r5, sl, #1	; 0x1
3000ced0:	e2852001 	add	r2, r5, #1	; 0x1
3000ced4:	e0843182 	add	r3, r4, r2, lsl #3
3000ced8:	e084c185 	add	ip, r4, r5, lsl #3
3000cedc:	e59ca004 	ldr	sl, [ip, #4]
3000cee0:	e593b004 	ldr	fp, [r3, #4]
3000cee4:	e7942182 	ldr	r2, [r4, r2, lsl #3]
3000cee8:	e7940185 	ldr	r0, [r4, r5, lsl #3]
3000ceec:	e1a0100a 	mov	r1, sl
3000cef0:	e1a0300b 	mov	r3, fp
3000cef4:	e58dc004 	str	ip, [sp, #4]
3000cef8:	ebffff9a 	bl	3000cd68 <lmb_addrs_adjacent>
3000cefc:	e3500000 	cmp	r0, #0	; 0x0
3000cf00:	0a000007 	beq	3000cf24 <lmb_add_region+0x134>
3000cf04:	e59d1004 	ldr	r1, [sp, #4]
3000cf08:	e08b300a 	add	r3, fp, sl
3000cf0c:	e5813004 	str	r3, [r1, #4]
3000cf10:	e1a00004 	mov	r0, r4
3000cf14:	e1a01005 	mov	r1, r5
3000cf18:	ebffff9b 	bl	3000cd8c <lmb_remove_region>
3000cf1c:	e2870001 	add	r0, r7, #1	; 0x1
3000cf20:	ea000022 	b	3000cfb0 <lmb_add_region+0x1c0>
3000cf24:	e3570000 	cmp	r7, #0	; 0x0
3000cf28:	13a00001 	movne	r0, #1	; 0x1
3000cf2c:	1a00001f 	bne	3000cfb0 <lmb_add_region+0x1c0>
3000cf30:	e3560007 	cmp	r6, #7	; 0x7
3000cf34:	83e00000 	mvnhi	r0, #0	; 0x0
3000cf38:	8a00001c 	bhi	3000cfb0 <lmb_add_region+0x1c0>
3000cf3c:	e2863001 	add	r3, r6, #1	; 0x1
3000cf40:	e59d200c 	ldr	r2, [sp, #12]
3000cf44:	e0841183 	add	r1, r4, r3, lsl #3
3000cf48:	ea00000d 	b	3000cf84 <lmb_add_region+0x194>
3000cf4c:	e5310008 	ldr	r0, [r1, #-8]!
3000cf50:	e59d3008 	ldr	r3, [sp, #8]
3000cf54:	e1530000 	cmp	r3, r0
3000cf58:	35913004 	ldrcc	r3, [r1, #4]
3000cf5c:	35810008 	strcc	r0, [r1, #8]
3000cf60:	3581300c 	strcc	r3, [r1, #12]
3000cf64:	32422001 	subcc	r2, r2, #1	; 0x1
3000cf68:	3a000005 	bcc	3000cf84 <lmb_add_region+0x194>
3000cf6c:	e2822002 	add	r2, r2, #2	; 0x2
3000cf70:	e59dc008 	ldr	ip, [sp, #8]
3000cf74:	e0843182 	add	r3, r4, r2, lsl #3
3000cf78:	e5839004 	str	r9, [r3, #4]
3000cf7c:	e784c182 	str	ip, [r4, r2, lsl #3]
3000cf80:	ea000001 	b	3000cf8c <lmb_add_region+0x19c>
3000cf84:	e3520000 	cmp	r2, #0	; 0x0
3000cf88:	aaffffef 	bge	3000cf4c <lmb_add_region+0x15c>
3000cf8c:	e5943008 	ldr	r3, [r4, #8]
3000cf90:	e59d1008 	ldr	r1, [sp, #8]
3000cf94:	e1510003 	cmp	r1, r3
3000cf98:	e5943000 	ldr	r3, [r4]
3000cf9c:	e2833001 	add	r3, r3, #1	; 0x1
3000cfa0:	35841008 	strcc	r1, [r4, #8]
3000cfa4:	3584900c 	strcc	r9, [r4, #12]
3000cfa8:	e5843000 	str	r3, [r4]
3000cfac:	e3a00000 	mov	r0, #0	; 0x0
3000cfb0:	e28dd010 	add	sp, sp, #16	; 0x10
3000cfb4:	e8bd8ef0 	pop	{r4, r5, r6, r7, r9, sl, fp, pc}

3000cfb8 <lmb_add>:
3000cfb8:	eaffff8c 	b	3000cdf0 <lmb_add_region>

3000cfbc <lmb_free>:
3000cfbc:	e92d47f0 	push	{r4, r5, r6, r7, r8, r9, sl, lr}
3000cfc0:	e3a0c000 	mov	ip, #0	; 0x0
3000cfc4:	e1a04000 	mov	r4, r0
3000cfc8:	e0827001 	add	r7, r2, r1
3000cfcc:	e1a06001 	mov	r6, r1
3000cfd0:	e1a0a002 	mov	sl, r2
3000cfd4:	e5900050 	ldr	r0, [r0, #80]
3000cfd8:	e1a02004 	mov	r2, r4
3000cfdc:	e1a0500c 	mov	r5, ip
3000cfe0:	e1a0100c 	mov	r1, ip
3000cfe4:	ea000007 	b	3000d008 <lmb_free+0x4c>
3000cfe8:	e592c058 	ldr	ip, [r2, #88]
3000cfec:	e592305c 	ldr	r3, [r2, #92]
3000cff0:	e08c5003 	add	r5, ip, r3
3000cff4:	e15c0006 	cmp	ip, r6
3000cff8:	91570005 	cmpls	r7, r5
3000cffc:	e2822008 	add	r2, r2, #8	; 0x8
3000d000:	9a000002 	bls	3000d010 <lmb_free+0x54>
3000d004:	e2811001 	add	r1, r1, #1	; 0x1
3000d008:	e1510000 	cmp	r1, r0
3000d00c:	3afffff5 	bcc	3000cfe8 <lmb_free+0x2c>
3000d010:	e1510000 	cmp	r1, r0
3000d014:	03e00000 	mvneq	r0, #0	; 0x0
3000d018:	08bd87f0 	popeq	{r4, r5, r6, r7, r8, r9, sl, pc}
3000d01c:	e15c0006 	cmp	ip, r6
3000d020:	13a00000 	movne	r0, #0	; 0x0
3000d024:	03a00001 	moveq	r0, #1	; 0x1
3000d028:	e1550007 	cmp	r5, r7
3000d02c:	13a03000 	movne	r3, #0	; 0x0
3000d030:	03a03001 	moveq	r3, #1	; 0x1
3000d034:	e0109003 	ands	r9, r0, r3
3000d038:	e284c050 	add	ip, r4, #80	; 0x50
3000d03c:	0a000003 	beq	3000d050 <lmb_free+0x94>
3000d040:	e1a0000c 	mov	r0, ip
3000d044:	ebffff50 	bl	3000cd8c <lmb_remove_region>
3000d048:	e3a00000 	mov	r0, #0	; 0x0
3000d04c:	e8bd87f0 	pop	{r4, r5, r6, r7, r8, r9, sl, pc}
3000d050:	e3500000 	cmp	r0, #0	; 0x0
3000d054:	0a000007 	beq	3000d078 <lmb_free+0xbc>
3000d058:	e281100b 	add	r1, r1, #11	; 0xb
3000d05c:	e0842181 	add	r2, r4, r1, lsl #3
3000d060:	e5923004 	ldr	r3, [r2, #4]
3000d064:	e06a3003 	rsb	r3, sl, r3
3000d068:	e5823004 	str	r3, [r2, #4]
3000d06c:	e7847181 	str	r7, [r4, r1, lsl #3]
3000d070:	e1a00009 	mov	r0, r9
3000d074:	e8bd87f0 	pop	{r4, r5, r6, r7, r8, r9, sl, pc}
3000d078:	e3530000 	cmp	r3, #0	; 0x0
3000d07c:	e281200b 	add	r2, r1, #11	; 0xb
3000d080:	0a000004 	beq	3000d098 <lmb_free+0xdc>
3000d084:	e0842182 	add	r2, r4, r2, lsl #3
3000d088:	e5923004 	ldr	r3, [r2, #4]
3000d08c:	e06a3003 	rsb	r3, sl, r3
3000d090:	e5823004 	str	r3, [r2, #4]
3000d094:	e8bd87f0 	pop	{r4, r5, r6, r7, r8, r9, sl, pc}
3000d098:	e7943182 	ldr	r3, [r4, r2, lsl #3]
3000d09c:	e0842182 	add	r2, r4, r2, lsl #3
3000d0a0:	e0633006 	rsb	r3, r3, r6
3000d0a4:	e5823004 	str	r3, [r2, #4]
3000d0a8:	e1a01007 	mov	r1, r7
3000d0ac:	e1a0000c 	mov	r0, ip
3000d0b0:	e0672005 	rsb	r2, r7, r5
3000d0b4:	e8bd47f0 	pop	{r4, r5, r6, r7, r8, r9, sl, lr}
3000d0b8:	eaffff4c 	b	3000cdf0 <lmb_add_region>

3000d0bc <lmb_reserve>:
3000d0bc:	e2800050 	add	r0, r0, #80	; 0x50
3000d0c0:	eaffff4a 	b	3000cdf0 <lmb_add_region>

3000d0c4 <lmb_overlaps_region>:
3000d0c4:	e92d4070 	push	{r4, r5, r6, lr}
3000d0c8:	e1a0c000 	mov	ip, r0
3000d0cc:	e5905000 	ldr	r5, [r0]
3000d0d0:	e1a04001 	mov	r4, r1
3000d0d4:	e1a06002 	mov	r6, r2
3000d0d8:	e3a00000 	mov	r0, #0	; 0x0
3000d0dc:	ea000008 	b	3000d104 <lmb_overlaps_region+0x40>
3000d0e0:	e28c2008 	add	r2, ip, #8	; 0x8
3000d0e4:	e892000c 	ldm	r2, {r2, r3}
3000d0e8:	e0823003 	add	r3, r2, r3
3000d0ec:	e1540003 	cmp	r4, r3
3000d0f0:	e28cc008 	add	ip, ip, #8	; 0x8
3000d0f4:	2a000007 	bcs	3000d118 <lmb_overlaps_region+0x54>
3000d0f8:	e1520001 	cmp	r2, r1
3000d0fc:	2a000005 	bcs	3000d118 <lmb_overlaps_region+0x54>
3000d100:	e8bd8070 	pop	{r4, r5, r6, pc}
3000d104:	e1500005 	cmp	r0, r5
3000d108:	e0861004 	add	r1, r6, r4
3000d10c:	3afffff3 	bcc	3000d0e0 <lmb_overlaps_region+0x1c>
3000d110:	e3e00000 	mvn	r0, #0	; 0x0
3000d114:	e8bd8070 	pop	{r4, r5, r6, pc}
3000d118:	e2800001 	add	r0, r0, #1	; 0x1
3000d11c:	eafffff8 	b	3000d104 <lmb_overlaps_region+0x40>

3000d120 <lmb_align_down>:
3000d120:	e2611000 	rsb	r1, r1, #0	; 0x0
3000d124:	e0010000 	and	r0, r1, r0
3000d128:	e1a0f00e 	mov	pc, lr

3000d12c <__lmb_alloc_base>:
3000d12c:	e92d4ef3 	push	{r0, r1, r4, r5, r6, r7, r9, sl, fp, lr}
3000d130:	e1a09000 	mov	r9, r0
3000d134:	e58d0004 	str	r0, [sp, #4]
3000d138:	e4990050 	ldr	r0, [r9], #80
3000d13c:	e1a07002 	mov	r7, r2
3000d140:	e59d2004 	ldr	r2, [sp, #4]
3000d144:	e280c001 	add	ip, r0, #1	; 0x1
3000d148:	e1a05001 	mov	r5, r1
3000d14c:	e58d3000 	str	r3, [sp]
3000d150:	e082a18c 	add	sl, r2, ip, lsl #3
3000d154:	e240b001 	sub	fp, r0, #1	; 0x1
3000d158:	ea000032 	b	3000d228 <__lmb_alloc_base+0xfc>
3000d15c:	e51a0004 	ldr	r0, [sl, #-4]
3000d160:	e1500005 	cmp	r0, r5
3000d164:	e51a6008 	ldr	r6, [sl, #-8]
3000d168:	3a00002c 	bcc	3000d220 <__lmb_alloc_base+0xf4>
3000d16c:	e59d3000 	ldr	r3, [sp]
3000d170:	e3530000 	cmp	r3, #0	; 0x0
3000d174:	00800006 	addeq	r0, r0, r6
3000d178:	00650000 	rsbeq	r0, r5, r0
3000d17c:	0a000006 	beq	3000d19c <__lmb_alloc_base+0x70>
3000d180:	e59d2000 	ldr	r2, [sp]
3000d184:	e1560002 	cmp	r6, r2
3000d188:	2a000024 	bcs	3000d220 <__lmb_alloc_base+0xf4>
3000d18c:	e0800006 	add	r0, r0, r6
3000d190:	e1520000 	cmp	r2, r0
3000d194:	90650002 	rsbls	r0, r5, r2
3000d198:	80650000 	rsbhi	r0, r5, r0
3000d19c:	e1a01007 	mov	r1, r7
3000d1a0:	ea000013 	b	3000d1f4 <__lmb_alloc_base+0xc8>
3000d1a4:	ebffffc6 	bl	3000d0c4 <lmb_overlaps_region>
3000d1a8:	e3500000 	cmp	r0, #0	; 0x0
3000d1ac:	e1a01007 	mov	r1, r7
3000d1b0:	e280000b 	add	r0, r0, #11	; 0xb
3000d1b4:	aa000009 	bge	3000d1e0 <__lmb_alloc_base+0xb4>
3000d1b8:	e2452001 	sub	r2, r5, #1	; 0x1
3000d1bc:	e2673000 	rsb	r3, r7, #0	; 0x0
3000d1c0:	e0822007 	add	r2, r2, r7
3000d1c4:	e0032002 	and	r2, r3, r2
3000d1c8:	e1a00009 	mov	r0, r9
3000d1cc:	e1a01004 	mov	r1, r4
3000d1d0:	ebffff06 	bl	3000cdf0 <lmb_add_region>
3000d1d4:	e3500000 	cmp	r0, #0	; 0x0
3000d1d8:	aa000015 	bge	3000d234 <__lmb_alloc_base+0x108>
3000d1dc:	ea000013 	b	3000d230 <__lmb_alloc_base+0x104>
3000d1e0:	e59d2004 	ldr	r2, [sp, #4]
3000d1e4:	e7923180 	ldr	r3, [r2, r0, lsl #3]
3000d1e8:	e1530005 	cmp	r3, r5
3000d1ec:	e0650003 	rsb	r0, r5, r3
3000d1f0:	3a00000a 	bcc	3000d220 <__lmb_alloc_base+0xf4>
3000d1f4:	ebffffc9 	bl	3000d120 <lmb_align_down>
3000d1f8:	e1a04000 	mov	r4, r0
3000d1fc:	e2543000 	subs	r3, r4, #0	; 0x0
3000d200:	13a03001 	movne	r3, #1	; 0x1
3000d204:	e1560004 	cmp	r6, r4
3000d208:	83a03000 	movhi	r3, #0	; 0x0
3000d20c:	e3530000 	cmp	r3, #0	; 0x0
3000d210:	e1a01000 	mov	r1, r0
3000d214:	e1a02005 	mov	r2, r5
3000d218:	e1a00009 	mov	r0, r9
3000d21c:	1affffe0 	bne	3000d1a4 <__lmb_alloc_base+0x78>
3000d220:	e24bb001 	sub	fp, fp, #1	; 0x1
3000d224:	e24aa008 	sub	sl, sl, #8	; 0x8
3000d228:	e35b0000 	cmp	fp, #0	; 0x0
3000d22c:	aaffffca 	bge	3000d15c <__lmb_alloc_base+0x30>
3000d230:	e3a04000 	mov	r4, #0	; 0x0
3000d234:	e1a00004 	mov	r0, r4
3000d238:	e8bd8efc 	pop	{r2, r3, r4, r5, r6, r7, r9, sl, fp, pc}

3000d23c <lmb_is_reserved>:
3000d23c:	e92d4010 	push	{r4, lr}
3000d240:	e1a0c000 	mov	ip, r0
3000d244:	e5904050 	ldr	r4, [r0, #80]
3000d248:	e3a00000 	mov	r0, #0	; 0x0
3000d24c:	ea00000d 	b	3000d288 <lmb_is_reserved+0x4c>
3000d250:	e59c3058 	ldr	r3, [ip, #88]
3000d254:	e59c205c 	ldr	r2, [ip, #92]
3000d258:	e0832002 	add	r2, r3, r2
3000d25c:	e2422001 	sub	r2, r2, #1	; 0x1
3000d260:	e1510003 	cmp	r1, r3
3000d264:	33a03000 	movcc	r3, #0	; 0x0
3000d268:	23a03001 	movcs	r3, #1	; 0x1
3000d26c:	e1510002 	cmp	r1, r2
3000d270:	83a03000 	movhi	r3, #0	; 0x0
3000d274:	e3530000 	cmp	r3, #0	; 0x0
3000d278:	e28cc008 	add	ip, ip, #8	; 0x8
3000d27c:	0a000001 	beq	3000d288 <lmb_is_reserved+0x4c>
3000d280:	e3a00001 	mov	r0, #1	; 0x1
3000d284:	e8bd8010 	pop	{r4, pc}
3000d288:	e1500004 	cmp	r0, r4
3000d28c:	e2800001 	add	r0, r0, #1	; 0x1
3000d290:	3affffee 	bcc	3000d250 <lmb_is_reserved+0x14>
3000d294:	e3a00000 	mov	r0, #0	; 0x0
3000d298:	e8bd8010 	pop	{r4, pc}

3000d29c <lmb_alloc_base>:
3000d29c:	e92d4070 	push	{r4, r5, r6, lr}
3000d2a0:	e1a04001 	mov	r4, r1
3000d2a4:	e1a05003 	mov	r5, r3
3000d2a8:	ebffff9f 	bl	3000d12c <__lmb_alloc_base>
3000d2ac:	e2506000 	subs	r6, r0, #0	; 0x0
3000d2b0:	01a01004 	moveq	r1, r4
3000d2b4:	01a02005 	moveq	r2, r5
3000d2b8:	059f0008 	ldreq	r0, [pc, #8]	; 3000d2c8 <lmb_alloc_base+0x2c>
3000d2bc:	0bffe410 	bleq	30006304 <printf>
3000d2c0:	e1a00006 	mov	r0, r6
3000d2c4:	e8bd8070 	pop	{r4, r5, r6, pc}
3000d2c8:	3001a96c 	.word	0x3001a96c

3000d2cc <lmb_alloc>:
3000d2cc:	e3a03000 	mov	r3, #0	; 0x0
3000d2d0:	eafffff1 	b	3000d29c <lmb_alloc_base>

3000d2d4 <strcpy>:
3000d2d4:	e3a02000 	mov	r2, #0	; 0x0
3000d2d8:	e7d13002 	ldrb	r3, [r1, r2]
3000d2dc:	e3530000 	cmp	r3, #0	; 0x0
3000d2e0:	e7c03002 	strb	r3, [r0, r2]
3000d2e4:	e2822001 	add	r2, r2, #1	; 0x1
3000d2e8:	1afffffa 	bne	3000d2d8 <strcpy+0x4>
3000d2ec:	e1a0f00e 	mov	pc, lr

3000d2f0 <strncpy>:
3000d2f0:	e3a0c000 	mov	ip, #0	; 0x0
3000d2f4:	e3520000 	cmp	r2, #0	; 0x0
3000d2f8:	e2422001 	sub	r2, r2, #1	; 0x1
3000d2fc:	01a0f00e 	moveq	pc, lr
3000d300:	e7d1300c 	ldrb	r3, [r1, ip]
3000d304:	e3530000 	cmp	r3, #0	; 0x0
3000d308:	e7c0300c 	strb	r3, [r0, ip]
3000d30c:	e28cc001 	add	ip, ip, #1	; 0x1
3000d310:	1afffff7 	bne	3000d2f4 <strncpy+0x4>
3000d314:	e1a0f00e 	mov	pc, lr

3000d318 <strcat>:
3000d318:	e1a0c000 	mov	ip, r0
3000d31c:	ea000000 	b	3000d324 <strcat+0xc>
3000d320:	e28cc001 	add	ip, ip, #1	; 0x1
3000d324:	e5dc3000 	ldrb	r3, [ip]
3000d328:	e3530000 	cmp	r3, #0	; 0x0
3000d32c:	1afffffb 	bne	3000d320 <strcat+0x8>
3000d330:	e1a02003 	mov	r2, r3
3000d334:	e7d13002 	ldrb	r3, [r1, r2]
3000d338:	e3530000 	cmp	r3, #0	; 0x0
3000d33c:	e7cc3002 	strb	r3, [ip, r2]
3000d340:	e2822001 	add	r2, r2, #1	; 0x1
3000d344:	1afffffa 	bne	3000d334 <strcat+0x1c>
3000d348:	e1a0f00e 	mov	pc, lr

3000d34c <strncat>:
3000d34c:	e92d4030 	push	{r4, r5, lr}
3000d350:	e2525000 	subs	r5, r2, #0	; 0x0
3000d354:	e1a04001 	mov	r4, r1
3000d358:	11a0c000 	movne	ip, r0
3000d35c:	1a000001 	bne	3000d368 <strncat+0x1c>
3000d360:	e8bd8030 	pop	{r4, r5, pc}
3000d364:	e28cc001 	add	ip, ip, #1	; 0x1
3000d368:	e5dc3000 	ldrb	r3, [ip]
3000d36c:	e3530000 	cmp	r3, #0	; 0x0
3000d370:	1afffffb 	bne	3000d364 <strncat+0x18>
3000d374:	ea000004 	b	3000d38c <strncat+0x40>
3000d378:	e1550002 	cmp	r5, r2
3000d37c:	1a000004 	bne	3000d394 <strncat+0x48>
3000d380:	e3a03000 	mov	r3, #0	; 0x0
3000d384:	e5cc3000 	strb	r3, [ip]
3000d388:	e8bd8030 	pop	{r4, r5, pc}
3000d38c:	e1a02003 	mov	r2, r3
3000d390:	e1a0100c 	mov	r1, ip
3000d394:	e7d43002 	ldrb	r3, [r4, r2]
3000d398:	e3530000 	cmp	r3, #0	; 0x0
3000d39c:	e7c13002 	strb	r3, [r1, r2]
3000d3a0:	e28cc001 	add	ip, ip, #1	; 0x1
3000d3a4:	e2822001 	add	r2, r2, #1	; 0x1
3000d3a8:	1afffff2 	bne	3000d378 <strncat+0x2c>
3000d3ac:	e8bd8030 	pop	{r4, r5, pc}

3000d3b0 <strcmp>:
3000d3b0:	e92d4010 	push	{r4, lr}
3000d3b4:	e3a02000 	mov	r2, #0	; 0x0
3000d3b8:	e1a04000 	mov	r4, r0
3000d3bc:	e7d4c002 	ldrb	ip, [r4, r2]
3000d3c0:	e7d13002 	ldrb	r3, [r1, r2]
3000d3c4:	e063300c 	rsb	r3, r3, ip
3000d3c8:	e21300ff 	ands	r0, r3, #255	; 0xff
3000d3cc:	e2822001 	add	r2, r2, #1	; 0x1
3000d3d0:	1a000001 	bne	3000d3dc <strcmp+0x2c>
3000d3d4:	e35c0000 	cmp	ip, #0	; 0x0
3000d3d8:	1afffff7 	bne	3000d3bc <strcmp+0xc>
3000d3dc:	e1a00c00 	lsl	r0, r0, #24
3000d3e0:	e1a00c40 	asr	r0, r0, #24
3000d3e4:	e8bd8010 	pop	{r4, pc}

3000d3e8 <strncmp>:
3000d3e8:	e92d4030 	push	{r4, r5, lr}
3000d3ec:	e3a0c000 	mov	ip, #0	; 0x0
3000d3f0:	e1a05000 	mov	r5, r0
3000d3f4:	e1a04001 	mov	r4, r1
3000d3f8:	ea000008 	b	3000d420 <strncmp+0x38>
3000d3fc:	e7d5100c 	ldrb	r1, [r5, ip]
3000d400:	e7d4300c 	ldrb	r3, [r4, ip]
3000d404:	e0633001 	rsb	r3, r3, r1
3000d408:	e21300ff 	ands	r0, r3, #255	; 0xff
3000d40c:	e28cc001 	add	ip, ip, #1	; 0x1
3000d410:	e2422001 	sub	r2, r2, #1	; 0x1
3000d414:	1a000004 	bne	3000d42c <strncmp+0x44>
3000d418:	e3510000 	cmp	r1, #0	; 0x0
3000d41c:	0a000002 	beq	3000d42c <strncmp+0x44>
3000d420:	e3520000 	cmp	r2, #0	; 0x0
3000d424:	1afffff4 	bne	3000d3fc <strncmp+0x14>
3000d428:	e1a00002 	mov	r0, r2
3000d42c:	e1a00c00 	lsl	r0, r0, #24
3000d430:	e1a00c40 	asr	r0, r0, #24
3000d434:	e8bd8030 	pop	{r4, r5, pc}

3000d438 <strchr>:
3000d438:	e1a02000 	mov	r2, r0
3000d43c:	ea000002 	b	3000d44c <strchr+0x14>
3000d440:	e3500000 	cmp	r0, #0	; 0x0
3000d444:	01a0f00e 	moveq	pc, lr
3000d448:	e2822001 	add	r2, r2, #1	; 0x1
3000d44c:	e5d20000 	ldrb	r0, [r2]
3000d450:	e20130ff 	and	r3, r1, #255	; 0xff
3000d454:	e1500003 	cmp	r0, r3
3000d458:	1afffff8 	bne	3000d440 <strchr+0x8>
3000d45c:	e1a00002 	mov	r0, r2
3000d460:	e1a0f00e 	mov	pc, lr

3000d464 <strlen>:
3000d464:	e1a02000 	mov	r2, r0
3000d468:	ea000000 	b	3000d470 <strlen+0xc>
3000d46c:	e2800001 	add	r0, r0, #1	; 0x1
3000d470:	e5d03000 	ldrb	r3, [r0]
3000d474:	e3530000 	cmp	r3, #0	; 0x0
3000d478:	1afffffb 	bne	3000d46c <strlen+0x8>
3000d47c:	e0620000 	rsb	r0, r2, r0
3000d480:	e1a0f00e 	mov	pc, lr

3000d484 <strrchr>:
3000d484:	e92d4070 	push	{r4, r5, r6, lr}
3000d488:	e1a04000 	mov	r4, r0
3000d48c:	e1a05001 	mov	r5, r1
3000d490:	ebfffff3 	bl	3000d464 <strlen>
3000d494:	e0840000 	add	r0, r4, r0
3000d498:	e5d02000 	ldrb	r2, [r0]
3000d49c:	e20530ff 	and	r3, r5, #255	; 0xff
3000d4a0:	e1520003 	cmp	r2, r3
3000d4a4:	08bd8070 	popeq	{r4, r5, r6, pc}
3000d4a8:	e2400001 	sub	r0, r0, #1	; 0x1
3000d4ac:	e1500004 	cmp	r0, r4
3000d4b0:	2afffff8 	bcs	3000d498 <strrchr+0x14>
3000d4b4:	e3a00000 	mov	r0, #0	; 0x0
3000d4b8:	e8bd8070 	pop	{r4, r5, r6, pc}

3000d4bc <strnlen>:
3000d4bc:	e3a02000 	mov	r2, #0	; 0x0
3000d4c0:	e1510002 	cmp	r1, r2
3000d4c4:	e080c002 	add	ip, r0, r2
3000d4c8:	0a000003 	beq	3000d4dc <strnlen+0x20>
3000d4cc:	e7d03002 	ldrb	r3, [r0, r2]
3000d4d0:	e3530000 	cmp	r3, #0	; 0x0
3000d4d4:	e2822001 	add	r2, r2, #1	; 0x1
3000d4d8:	1afffff8 	bne	3000d4c0 <strnlen+0x4>
3000d4dc:	e060000c 	rsb	r0, r0, ip
3000d4e0:	e1a0f00e 	mov	pc, lr

3000d4e4 <strspn>:
3000d4e4:	e92d4010 	push	{r4, lr}
3000d4e8:	e1a04000 	mov	r4, r0
3000d4ec:	e3a00000 	mov	r0, #0	; 0x0
3000d4f0:	ea000007 	b	3000d514 <strspn+0x30>
3000d4f4:	e15c0002 	cmp	ip, r2
3000d4f8:	0a000004 	beq	3000d510 <strspn+0x2c>
3000d4fc:	e7d12003 	ldrb	r2, [r1, r3]
3000d500:	e3520000 	cmp	r2, #0	; 0x0
3000d504:	e2833001 	add	r3, r3, #1	; 0x1
3000d508:	1afffff9 	bne	3000d4f4 <strspn+0x10>
3000d50c:	e8bd8010 	pop	{r4, pc}
3000d510:	e2800001 	add	r0, r0, #1	; 0x1
3000d514:	e7d4c000 	ldrb	ip, [r4, r0]
3000d518:	e35c0000 	cmp	ip, #0	; 0x0
3000d51c:	08bd8010 	popeq	{r4, pc}
3000d520:	e3a03000 	mov	r3, #0	; 0x0
3000d524:	eafffff4 	b	3000d4fc <strspn+0x18>

3000d528 <strpbrk>:
3000d528:	e1a02000 	mov	r2, r0
3000d52c:	ea000009 	b	3000d558 <strpbrk+0x30>
3000d530:	e150000c 	cmp	r0, ip
3000d534:	1a000002 	bne	3000d544 <strpbrk+0x1c>
3000d538:	e1a00002 	mov	r0, r2
3000d53c:	e1a0f00e 	mov	pc, lr
3000d540:	e3a03000 	mov	r3, #0	; 0x0
3000d544:	e7d1c003 	ldrb	ip, [r1, r3]
3000d548:	e35c0000 	cmp	ip, #0	; 0x0
3000d54c:	e2833001 	add	r3, r3, #1	; 0x1
3000d550:	1afffff6 	bne	3000d530 <strpbrk+0x8>
3000d554:	e2822001 	add	r2, r2, #1	; 0x1
3000d558:	e5d20000 	ldrb	r0, [r2]
3000d55c:	e3500000 	cmp	r0, #0	; 0x0
3000d560:	1afffff6 	bne	3000d540 <strpbrk+0x18>
3000d564:	e1a0f00e 	mov	pc, lr

3000d568 <strtok>:
3000d568:	e3500000 	cmp	r0, #0	; 0x0
3000d56c:	e92d4070 	push	{r4, r5, r6, lr}
3000d570:	e1a05001 	mov	r5, r1
3000d574:	11a04000 	movne	r4, r0
3000d578:	1a000003 	bne	3000d58c <strtok+0x24>
3000d57c:	e59f3060 	ldr	r3, [pc, #96]	; 3000d5e4 <strtok+0x7c>
3000d580:	e5934000 	ldr	r4, [r3]
3000d584:	e3540000 	cmp	r4, #0	; 0x0
3000d588:	0a000013 	beq	3000d5dc <strtok+0x74>
3000d58c:	e1a00004 	mov	r0, r4
3000d590:	e1a01005 	mov	r1, r5
3000d594:	ebffffd2 	bl	3000d4e4 <strspn>
3000d598:	e7f42000 	ldrb	r2, [r4, r0]!
3000d59c:	e3520000 	cmp	r2, #0	; 0x0
3000d5a0:	059f303c 	ldreq	r3, [pc, #60]	; 3000d5e4 <strtok+0x7c>
3000d5a4:	01a04002 	moveq	r4, r2
3000d5a8:	05832000 	streq	r2, [r3]
3000d5ac:	0a00000a 	beq	3000d5dc <strtok+0x74>
3000d5b0:	e1a01005 	mov	r1, r5
3000d5b4:	e1a00004 	mov	r0, r4
3000d5b8:	ebffffda 	bl	3000d528 <strpbrk>
3000d5bc:	e3500000 	cmp	r0, #0	; 0x0
3000d5c0:	0a000003 	beq	3000d5d4 <strtok+0x6c>
3000d5c4:	e5d03000 	ldrb	r3, [r0]
3000d5c8:	e3530000 	cmp	r3, #0	; 0x0
3000d5cc:	13a03000 	movne	r3, #0	; 0x0
3000d5d0:	14c03001 	strbne	r3, [r0], #1
3000d5d4:	e59f3008 	ldr	r3, [pc, #8]	; 3000d5e4 <strtok+0x7c>
3000d5d8:	e5830000 	str	r0, [r3]
3000d5dc:	e1a00004 	mov	r0, r4
3000d5e0:	e8bd8070 	pop	{r4, r5, r6, pc}
3000d5e4:	3001e118 	.word	0x3001e118

3000d5e8 <strsep>:
3000d5e8:	e92d4070 	push	{r4, r5, r6, lr}
3000d5ec:	e5904000 	ldr	r4, [r0]
3000d5f0:	e3540000 	cmp	r4, #0	; 0x0
3000d5f4:	e1a05000 	mov	r5, r0
3000d5f8:	0a000005 	beq	3000d614 <strsep+0x2c>
3000d5fc:	e1a00004 	mov	r0, r4
3000d600:	ebffffc8 	bl	3000d528 <strpbrk>
3000d604:	e3500000 	cmp	r0, #0	; 0x0
3000d608:	13a03000 	movne	r3, #0	; 0x0
3000d60c:	14c03001 	strbne	r3, [r0], #1
3000d610:	e5850000 	str	r0, [r5]
3000d614:	e1a00004 	mov	r0, r4
3000d618:	e8bd8070 	pop	{r4, r5, r6, pc}

3000d61c <strswab>:
3000d61c:	e3500000 	cmp	r0, #0	; 0x0
3000d620:	0a00000e 	beq	3000d660 <strswab+0x44>
3000d624:	e5d03000 	ldrb	r3, [r0]
3000d628:	e3530000 	cmp	r3, #0	; 0x0
3000d62c:	11a03000 	movne	r3, r0
3000d630:	1a000002 	bne	3000d640 <strswab+0x24>
3000d634:	ea000009 	b	3000d660 <strswab+0x44>
3000d638:	e5432002 	strb	r2, [r3, #-2]
3000d63c:	e5431001 	strb	r1, [r3, #-1]
3000d640:	e5d31000 	ldrb	r1, [r3]
3000d644:	e3510000 	cmp	r1, #0	; 0x0
3000d648:	01a0f00e 	moveq	pc, lr
3000d64c:	e5d32001 	ldrb	r2, [r3, #1]
3000d650:	e3520000 	cmp	r2, #0	; 0x0
3000d654:	e2833002 	add	r3, r3, #2	; 0x2
3000d658:	1afffff6 	bne	3000d638 <strswab+0x1c>
3000d65c:	e1a0f00e 	mov	pc, lr
3000d660:	e3a00000 	mov	r0, #0	; 0x0
3000d664:	e1a0f00e 	mov	pc, lr

3000d668 <memset>:
3000d668:	e2103003 	ands	r3, r0, #3	; 0x3
3000d66c:	e92d4010 	push	{r4, lr}
3000d670:	e1a0c000 	mov	ip, r0
3000d674:	e1a04001 	mov	r4, r1
3000d678:	1a000011 	bne	3000d6c4 <memset+0x5c>
3000d67c:	e1a01003 	mov	r1, r3
3000d680:	e1a0c003 	mov	ip, r3
3000d684:	e28cc001 	add	ip, ip, #1	; 0x1
3000d688:	e20430ff 	and	r3, r4, #255	; 0xff
3000d68c:	e35c0004 	cmp	ip, #4	; 0x4
3000d690:	e1831401 	orr	r1, r3, r1, lsl #8
3000d694:	1afffffa 	bne	3000d684 <memset+0x1c>
3000d698:	e1a0c002 	mov	ip, r2
3000d69c:	e3a03000 	mov	r3, #0	; 0x0
3000d6a0:	ea000001 	b	3000d6ac <memset+0x44>
3000d6a4:	e7801003 	str	r1, [r0, r3]
3000d6a8:	e2833004 	add	r3, r3, #4	; 0x4
3000d6ac:	e35c0003 	cmp	ip, #3	; 0x3
3000d6b0:	e24cc004 	sub	ip, ip, #4	; 0x4
3000d6b4:	8afffffa 	bhi	3000d6a4 <memset+0x3c>
3000d6b8:	e3c23003 	bic	r3, r2, #3	; 0x3
3000d6bc:	e080c003 	add	ip, r0, r3
3000d6c0:	e2022003 	and	r2, r2, #3	; 0x3
3000d6c4:	e3a03000 	mov	r3, #0	; 0x0
3000d6c8:	ea000001 	b	3000d6d4 <memset+0x6c>
3000d6cc:	e7cc4003 	strb	r4, [ip, r3]
3000d6d0:	e2833001 	add	r3, r3, #1	; 0x1
3000d6d4:	e3520000 	cmp	r2, #0	; 0x0
3000d6d8:	e2422001 	sub	r2, r2, #1	; 0x1
3000d6dc:	1afffffa 	bne	3000d6cc <memset+0x64>
3000d6e0:	e8bd8010 	pop	{r4, pc}

3000d6e4 <bcopy>:
3000d6e4:	e92d4010 	push	{r4, lr}
3000d6e8:	e3a0c000 	mov	ip, #0	; 0x0
3000d6ec:	e1a04000 	mov	r4, r0
3000d6f0:	e1a00001 	mov	r0, r1
3000d6f4:	ea000002 	b	3000d704 <bcopy+0x20>
3000d6f8:	e7d4300c 	ldrb	r3, [r4, ip]
3000d6fc:	e7c0300c 	strb	r3, [r0, ip]
3000d700:	e28cc001 	add	ip, ip, #1	; 0x1
3000d704:	e2522001 	subs	r2, r2, #1	; 0x1
3000d708:	2afffffa 	bcs	3000d6f8 <bcopy+0x14>
3000d70c:	e8bd8010 	pop	{r4, pc}

3000d710 <memcpy>:
3000d710:	e1813000 	orr	r3, r1, r0
3000d714:	e2133003 	ands	r3, r3, #3	; 0x3
3000d718:	e92d4010 	push	{r4, lr}
3000d71c:	e1a04000 	mov	r4, r0
3000d720:	e1a00002 	mov	r0, r2
3000d724:	e1a0c004 	mov	ip, r4
3000d728:	e1a02001 	mov	r2, r1
3000d72c:	01a0c003 	moveq	ip, r3
3000d730:	01a02000 	moveq	r2, r0
3000d734:	0a000003 	beq	3000d748 <memcpy+0x38>
3000d738:	ea000009 	b	3000d764 <memcpy+0x54>
3000d73c:	e791300c 	ldr	r3, [r1, ip]
3000d740:	e784300c 	str	r3, [r4, ip]
3000d744:	e28cc004 	add	ip, ip, #4	; 0x4
3000d748:	e3520003 	cmp	r2, #3	; 0x3
3000d74c:	e2422004 	sub	r2, r2, #4	; 0x4
3000d750:	8afffff9 	bhi	3000d73c <memcpy+0x2c>
3000d754:	e3c03003 	bic	r3, r0, #3	; 0x3
3000d758:	e0812003 	add	r2, r1, r3
3000d75c:	e084c003 	add	ip, r4, r3
3000d760:	e2000003 	and	r0, r0, #3	; 0x3
3000d764:	e3a01000 	mov	r1, #0	; 0x0
3000d768:	ea000002 	b	3000d778 <memcpy+0x68>
3000d76c:	e7d23001 	ldrb	r3, [r2, r1]
3000d770:	e7cc3001 	strb	r3, [ip, r1]
3000d774:	e2811001 	add	r1, r1, #1	; 0x1
3000d778:	e3500000 	cmp	r0, #0	; 0x0
3000d77c:	e2400001 	sub	r0, r0, #1	; 0x1
3000d780:	1afffff9 	bne	3000d76c <memcpy+0x5c>
3000d784:	e1a00004 	mov	r0, r4
3000d788:	e8bd8010 	pop	{r4, pc}

3000d78c <memmove>:
3000d78c:	e1500001 	cmp	r0, r1
3000d790:	e92d4010 	push	{r4, lr}
3000d794:	93a0c000 	movls	ip, #0	; 0x0
3000d798:	9a000003 	bls	3000d7ac <memmove+0x20>
3000d79c:	ea000006 	b	3000d7bc <memmove+0x30>
3000d7a0:	e7d1300c 	ldrb	r3, [r1, ip]
3000d7a4:	e7c0300c 	strb	r3, [r0, ip]
3000d7a8:	e28cc001 	add	ip, ip, #1	; 0x1
3000d7ac:	e3520000 	cmp	r2, #0	; 0x0
3000d7b0:	e2422001 	sub	r2, r2, #1	; 0x1
3000d7b4:	1afffff9 	bne	3000d7a0 <memmove+0x14>
3000d7b8:	e8bd8010 	pop	{r4, pc}
3000d7bc:	e0814002 	add	r4, r1, r2
3000d7c0:	e3a0c000 	mov	ip, #0	; 0x0
3000d7c4:	e0801002 	add	r1, r0, r2
3000d7c8:	ea000001 	b	3000d7d4 <memmove+0x48>
3000d7cc:	e7d4300c 	ldrb	r3, [r4, ip]
3000d7d0:	e7c1300c 	strb	r3, [r1, ip]
3000d7d4:	e3520000 	cmp	r2, #0	; 0x0
3000d7d8:	e24cc001 	sub	ip, ip, #1	; 0x1
3000d7dc:	e2422001 	sub	r2, r2, #1	; 0x1
3000d7e0:	1afffff9 	bne	3000d7cc <memmove+0x40>
3000d7e4:	e8bd8010 	pop	{r4, pc}

3000d7e8 <memcmp>:
3000d7e8:	e92d4030 	push	{r4, r5, lr}
3000d7ec:	e3a0c000 	mov	ip, #0	; 0x0
3000d7f0:	e1a04001 	mov	r4, r1
3000d7f4:	e1a05000 	mov	r5, r0
3000d7f8:	e1a01002 	mov	r1, r2
3000d7fc:	ea000005 	b	3000d818 <memcmp+0x30>
3000d800:	e7d5200c 	ldrb	r2, [r5, ip]
3000d804:	e7d4300c 	ldrb	r3, [r4, ip]
3000d808:	e0520003 	subs	r0, r2, r3
3000d80c:	e28cc001 	add	ip, ip, #1	; 0x1
3000d810:	18bd8030 	popne	{r4, r5, pc}
3000d814:	e2411001 	sub	r1, r1, #1	; 0x1
3000d818:	e3510000 	cmp	r1, #0	; 0x0
3000d81c:	1afffff7 	bne	3000d800 <memcmp+0x18>
3000d820:	e1a00001 	mov	r0, r1
3000d824:	e8bd8030 	pop	{r4, r5, pc}

3000d828 <memscan>:
3000d828:	e92d4010 	push	{r4, lr}
3000d82c:	e3a0c000 	mov	ip, #0	; 0x0
3000d830:	e1a04000 	mov	r4, r0
3000d834:	ea000003 	b	3000d848 <memscan+0x20>
3000d838:	e7d4300c 	ldrb	r3, [r4, ip]
3000d83c:	e1530001 	cmp	r3, r1
3000d840:	e28cc001 	add	ip, ip, #1	; 0x1
3000d844:	08bd8010 	popeq	{r4, pc}
3000d848:	e152000c 	cmp	r2, ip
3000d84c:	e084000c 	add	r0, r4, ip
3000d850:	1afffff8 	bne	3000d838 <memscan+0x10>
3000d854:	e8bd8010 	pop	{r4, pc}

3000d858 <strstr>:
3000d858:	e92d41f0 	push	{r4, r5, r6, r7, r8, lr}
3000d85c:	e1a04000 	mov	r4, r0
3000d860:	e1a00001 	mov	r0, r1
3000d864:	e1a07001 	mov	r7, r1
3000d868:	ebfffefd 	bl	3000d464 <strlen>
3000d86c:	e2506000 	subs	r6, r0, #0	; 0x0
3000d870:	0a000006 	beq	3000d890 <strstr+0x38>
3000d874:	e1a00004 	mov	r0, r4
3000d878:	ebfffef9 	bl	3000d464 <strlen>
3000d87c:	e1a05000 	mov	r5, r0
3000d880:	ea000005 	b	3000d89c <strstr+0x44>
3000d884:	ebffffd7 	bl	3000d7e8 <memcmp>
3000d888:	e3500000 	cmp	r0, #0	; 0x0
3000d88c:	1a000001 	bne	3000d898 <strstr+0x40>
3000d890:	e1a00004 	mov	r0, r4
3000d894:	e8bd81f0 	pop	{r4, r5, r6, r7, r8, pc}
3000d898:	e2844001 	add	r4, r4, #1	; 0x1
3000d89c:	e1550006 	cmp	r5, r6
3000d8a0:	e1a00004 	mov	r0, r4
3000d8a4:	e1a01007 	mov	r1, r7
3000d8a8:	e1a02006 	mov	r2, r6
3000d8ac:	e2455001 	sub	r5, r5, #1	; 0x1
3000d8b0:	aafffff3 	bge	3000d884 <strstr+0x2c>
3000d8b4:	e3a00000 	mov	r0, #0	; 0x0
3000d8b8:	e8bd81f0 	pop	{r4, r5, r6, r7, r8, pc}

3000d8bc <memchr>:
3000d8bc:	ea000005 	b	3000d8d8 <memchr+0x1c>
3000d8c0:	e4d03001 	ldrb	r3, [r0], #1
3000d8c4:	e15c0003 	cmp	ip, r3
3000d8c8:	e2422001 	sub	r2, r2, #1	; 0x1
3000d8cc:	1a000001 	bne	3000d8d8 <memchr+0x1c>
3000d8d0:	e2400001 	sub	r0, r0, #1	; 0x1
3000d8d4:	e1a0f00e 	mov	pc, lr
3000d8d8:	e3520000 	cmp	r2, #0	; 0x0
3000d8dc:	e201c0ff 	and	ip, r1, #255	; 0xff
3000d8e0:	1afffff6 	bne	3000d8c0 <memchr+0x4>
3000d8e4:	e1a00002 	mov	r0, r2
3000d8e8:	e1a0f00e 	mov	pc, lr

3000d8ec <strdup>:
3000d8ec:	e92d4070 	push	{r4, r5, r6, lr}
3000d8f0:	e2505000 	subs	r5, r0, #0	; 0x0
3000d8f4:	01a04005 	moveq	r4, r5
3000d8f8:	0a000005 	beq	3000d914 <strdup+0x28>
3000d8fc:	ebfffed8 	bl	3000d464 <strlen>
3000d900:	e2800001 	add	r0, r0, #1	; 0x1
3000d904:	ebffe3fc 	bl	300068fc <malloc>
3000d908:	e2504000 	subs	r4, r0, #0	; 0x0
3000d90c:	11a01005 	movne	r1, r5
3000d910:	1bfffe6f 	blne	3000d2d4 <strcpy>
3000d914:	e1a00004 	mov	r0, r4
3000d918:	e8bd8070 	pop	{r4, r5, r6, pc}

3000d91c <pack_hex_byte>:
3000d91c:	e59fc01c 	ldr	ip, [pc, #28]	; 3000d940 <pack_hex_byte+0x24>
3000d920:	e7dc3221 	ldrb	r3, [ip, r1, lsr #4]
3000d924:	e201100f 	and	r1, r1, #15	; 0xf
3000d928:	e1a02000 	mov	r2, r0
3000d92c:	e4c03001 	strb	r3, [r0], #1
3000d930:	e7dc3001 	ldrb	r3, [ip, r1]
3000d934:	e2800001 	add	r0, r0, #1	; 0x1
3000d938:	e5c23001 	strb	r3, [r2, #1]
3000d93c:	e1a0f00e 	mov	pc, lr
3000d940:	3001703a 	.word	0x3001703a

3000d944 <simple_strtoul>:
3000d944:	e92d4010 	push	{r4, lr}
3000d948:	e5d03000 	ldrb	r3, [r0]
3000d94c:	e3530030 	cmp	r3, #48	; 0x30
3000d950:	e1a04001 	mov	r4, r1
3000d954:	e1a0c002 	mov	ip, r2
3000d958:	1a00000d 	bne	3000d994 <simple_strtoul+0x50>
3000d95c:	e5f03001 	ldrb	r3, [r0, #1]!
3000d960:	e3530078 	cmp	r3, #120	; 0x78
3000d964:	1a000007 	bne	3000d988 <simple_strtoul+0x44>
3000d968:	e5d03001 	ldrb	r3, [r0, #1]
3000d96c:	e59f2084 	ldr	r2, [pc, #132]	; 3000d9f8 <simple_strtoul+0xb4>
3000d970:	e7d23003 	ldrb	r3, [r2, r3]
3000d974:	e3130044 	tst	r3, #68	; 0x44
3000d978:	e2803001 	add	r3, r0, #1	; 0x1
3000d97c:	11a00003 	movne	r0, r3
3000d980:	13a0c010 	movne	ip, #16	; 0x10
3000d984:	1a000004 	bne	3000d99c <simple_strtoul+0x58>
3000d988:	e35c0000 	cmp	ip, #0	; 0x0
3000d98c:	03a0c008 	moveq	ip, #8	; 0x8
3000d990:	ea000001 	b	3000d99c <simple_strtoul+0x58>
3000d994:	e3520000 	cmp	r2, #0	; 0x0
3000d998:	03a0c00a 	moveq	ip, #10	; 0xa
3000d99c:	e3a01000 	mov	r1, #0	; 0x0
3000d9a0:	ea000001 	b	3000d9ac <simple_strtoul+0x68>
3000d9a4:	e021319c 	mla	r1, ip, r1, r3
3000d9a8:	e2800001 	add	r0, r0, #1	; 0x1
3000d9ac:	e5d02000 	ldrb	r2, [r0]
3000d9b0:	e59f3040 	ldr	r3, [pc, #64]	; 3000d9f8 <simple_strtoul+0xb4>
3000d9b4:	e7d33002 	ldrb	r3, [r3, r2]
3000d9b8:	e3130044 	tst	r3, #68	; 0x44
3000d9bc:	0a000009 	beq	3000d9e8 <simple_strtoul+0xa4>
3000d9c0:	e3130004 	tst	r3, #4	; 0x4
3000d9c4:	12423030 	subne	r3, r2, #48	; 0x30
3000d9c8:	1a000004 	bne	3000d9e0 <simple_strtoul+0x9c>
3000d9cc:	e3130002 	tst	r3, #2	; 0x2
3000d9d0:	12423020 	subne	r3, r2, #32	; 0x20
3000d9d4:	120330ff 	andne	r3, r3, #255	; 0xff
3000d9d8:	12433037 	subne	r3, r3, #55	; 0x37
3000d9dc:	02423037 	subeq	r3, r2, #55	; 0x37
3000d9e0:	e153000c 	cmp	r3, ip
3000d9e4:	3affffee 	bcc	3000d9a4 <simple_strtoul+0x60>
3000d9e8:	e3540000 	cmp	r4, #0	; 0x0
3000d9ec:	15840000 	strne	r0, [r4]
3000d9f0:	e1a00001 	mov	r0, r1
3000d9f4:	e8bd8010 	pop	{r4, pc}
3000d9f8:	3001bc30 	.word	0x3001bc30

3000d9fc <simple_strtol>:
3000d9fc:	e92d4010 	push	{r4, lr}
3000da00:	e5d03000 	ldrb	r3, [r0]
3000da04:	e353002d 	cmp	r3, #45	; 0x2d
3000da08:	1a000003 	bne	3000da1c <simple_strtol+0x20>
3000da0c:	e2800001 	add	r0, r0, #1	; 0x1
3000da10:	ebffffcb 	bl	3000d944 <simple_strtoul>
3000da14:	e2600000 	rsb	r0, r0, #0	; 0x0
3000da18:	e8bd8010 	pop	{r4, pc}
3000da1c:	e8bd4010 	pop	{r4, lr}
3000da20:	eaffffc7 	b	3000d944 <simple_strtoul>

3000da24 <ustrtoul>:
3000da24:	e92d4010 	push	{r4, lr}
3000da28:	e1a04001 	mov	r4, r1
3000da2c:	ebffffc4 	bl	3000d944 <simple_strtoul>
3000da30:	e5942000 	ldr	r2, [r4]
3000da34:	e5d23000 	ldrb	r3, [r2]
3000da38:	e353004b 	cmp	r3, #75	; 0x4b
3000da3c:	0a00000a 	beq	3000da6c <ustrtoul+0x48>
3000da40:	8a000002 	bhi	3000da50 <ustrtoul+0x2c>
3000da44:	e3530047 	cmp	r3, #71	; 0x47
3000da48:	18bd8010 	popne	{r4, pc}
3000da4c:	ea000004 	b	3000da64 <ustrtoul+0x40>
3000da50:	e353004d 	cmp	r3, #77	; 0x4d
3000da54:	0a000003 	beq	3000da68 <ustrtoul+0x44>
3000da58:	e353006b 	cmp	r3, #107	; 0x6b
3000da5c:	18bd8010 	popne	{r4, pc}
3000da60:	ea000001 	b	3000da6c <ustrtoul+0x48>
3000da64:	e1a00500 	lsl	r0, r0, #10
3000da68:	e1a00500 	lsl	r0, r0, #10
3000da6c:	e5d23001 	ldrb	r3, [r2, #1]
3000da70:	e3530069 	cmp	r3, #105	; 0x69
3000da74:	e1a00500 	lsl	r0, r0, #10
3000da78:	18bd8010 	popne	{r4, pc}
3000da7c:	e5d23002 	ldrb	r3, [r2, #2]
3000da80:	e3530042 	cmp	r3, #66	; 0x42
3000da84:	e2823002 	add	r3, r2, #2	; 0x2
3000da88:	02823003 	addeq	r3, r2, #3	; 0x3
3000da8c:	05843000 	streq	r3, [r4]
3000da90:	15843000 	strne	r3, [r4]
3000da94:	e8bd8010 	pop	{r4, pc}

3000da98 <skip_atoi>:
3000da98:	e1a0c000 	mov	ip, r0
3000da9c:	e3a00000 	mov	r0, #0	; 0x0
3000daa0:	ea000002 	b	3000dab0 <skip_atoi+0x18>
3000daa4:	e3a0300a 	mov	r3, #10	; 0xa
3000daa8:	e0202093 	mla	r0, r3, r0, r2
3000daac:	e58c1000 	str	r1, [ip]
3000dab0:	e59c3000 	ldr	r3, [ip]
3000dab4:	e5d32000 	ldrb	r2, [r3]
3000dab8:	e2422030 	sub	r2, r2, #48	; 0x30
3000dabc:	e2831001 	add	r1, r3, #1	; 0x1
3000dac0:	e20230ff 	and	r3, r2, #255	; 0xff
3000dac4:	e3530009 	cmp	r3, #9	; 0x9
3000dac8:	9afffff5 	bls	3000daa4 <skip_atoi+0xc>
3000dacc:	e1a0f00e 	mov	pc, lr

3000dad0 <put_dec_trunc>:
3000dad0:	e1a03421 	lsr	r3, r1, #8
3000dad4:	e1a0c221 	lsr	ip, r1, #4
3000dad8:	e92d44f0 	push	{r4, r5, r6, r7, sl, lr}
3000dadc:	e20cc00f 	and	ip, ip, #15	; 0xf
3000dae0:	e203600f 	and	r6, r3, #15	; 0xf
3000dae4:	e1a05621 	lsr	r5, r1, #12
3000dae8:	e08c3006 	add	r3, ip, r6
3000daec:	e0833005 	add	r3, r3, r5
3000daf0:	e3a02006 	mov	r2, #6	; 0x6
3000daf4:	e201100f 	and	r1, r1, #15	; 0xf
3000daf8:	e0211392 	mla	r1, r2, r3, r1
3000dafc:	e3a0a0cd 	mov	sl, #205	; 0xcd
3000db00:	e002019a 	mul	r2, sl, r1
3000db04:	e3a03009 	mov	r3, #9	; 0x9
3000db08:	e024c593 	mla	r4, r3, r5, ip
3000db0c:	e1a025a2 	lsr	r2, r2, #11
3000db10:	e3a0700a 	mov	r7, #10	; 0xa
3000db14:	e00c0297 	mul	ip, r7, r2
3000db18:	e3a03005 	mov	r3, #5	; 0x5
3000db1c:	e0234396 	mla	r3, r6, r3, r4
3000db20:	e06c1001 	rsb	r1, ip, r1
3000db24:	e2811030 	add	r1, r1, #48	; 0x30
3000db28:	e093c002 	adds	ip, r3, r2
3000db2c:	e1a04000 	mov	r4, r0
3000db30:	e4c01001 	strb	r1, [r0], #1
3000db34:	08bd84f0 	popeq	{r4, r5, r6, r7, sl, pc}
3000db38:	e0030c9a 	mul	r3, sl, ip
3000db3c:	e1a035a3 	lsr	r3, r3, #11
3000db40:	e0020397 	mul	r2, r7, r3
3000db44:	e0831086 	add	r1, r3, r6, lsl #1
3000db48:	e062200c 	rsb	r2, r2, ip
3000db4c:	e2822030 	add	r2, r2, #48	; 0x30
3000db50:	e1913005 	orrs	r3, r1, r5
3000db54:	e5c42001 	strb	r2, [r4, #1]
3000db58:	e2800001 	add	r0, r0, #1	; 0x1
3000db5c:	08bd84f0 	popeq	{r4, r5, r6, r7, sl, pc}
3000db60:	e3a0300d 	mov	r3, #13	; 0xd
3000db64:	e0030391 	mul	r3, r1, r3
3000db68:	e1a033a3 	lsr	r3, r3, #7
3000db6c:	e0020397 	mul	r2, r7, r3
3000db70:	e0622001 	rsb	r2, r2, r1
3000db74:	e2822030 	add	r2, r2, #48	; 0x30
3000db78:	e0931105 	adds	r1, r3, r5, lsl #2
3000db7c:	e4c02001 	strb	r2, [r0], #1
3000db80:	08bd84f0 	popeq	{r4, r5, r6, r7, sl, pc}
3000db84:	e003019a 	mul	r3, sl, r1
3000db88:	e1a025a3 	lsr	r2, r3, #11
3000db8c:	e0030297 	mul	r3, r7, r2
3000db90:	e0633001 	rsb	r3, r3, r1
3000db94:	e2833030 	add	r3, r3, #48	; 0x30
3000db98:	e3520000 	cmp	r2, #0	; 0x0
3000db9c:	e4c03001 	strb	r3, [r0], #1
3000dba0:	12823030 	addne	r3, r2, #48	; 0x30
3000dba4:	14c03001 	strbne	r3, [r0], #1
3000dba8:	e8bd84f0 	pop	{r4, r5, r6, r7, sl, pc}

3000dbac <put_dec>:
3000dbac:	e92d4ef0 	push	{r4, r5, r6, r7, r9, sl, fp, lr}
3000dbb0:	e1a0b001 	mov	fp, r1
3000dbb4:	e1a09000 	mov	r9, r0
3000dbb8:	e59f30f8 	ldr	r3, [pc, #248]	; 3000dcb8 <put_dec+0x10c>
3000dbbc:	e15b0003 	cmp	fp, r3
3000dbc0:	e1a0000b 	mov	r0, fp
3000dbc4:	e1a03009 	mov	r3, r9
3000dbc8:	e59f10ec 	ldr	r1, [pc, #236]	; 3000dcbc <put_dec+0x110>
3000dbcc:	e2899005 	add	r9, r9, #5	; 0x5
3000dbd0:	8a000003 	bhi	3000dbe4 <put_dec+0x38>
3000dbd4:	e1a00003 	mov	r0, r3
3000dbd8:	e1a0100b 	mov	r1, fp
3000dbdc:	e8bd4ef0 	pop	{r4, r5, r6, r7, r9, sl, fp, lr}
3000dbe0:	eaffffba 	b	3000dad0 <put_dec_trunc>
3000dbe4:	eb002035 	bl	30015cc0 <__aeabi_uidivmod>
3000dbe8:	e1a0000b 	mov	r0, fp
3000dbec:	e1a04001 	mov	r4, r1
3000dbf0:	e59f10c4 	ldr	r1, [pc, #196]	; 3000dcbc <put_dec+0x110>
3000dbf4:	eb001fb6 	bl	30015ad4 <__aeabi_uidiv>
3000dbf8:	e1a01224 	lsr	r1, r4, #4
3000dbfc:	e1a0b000 	mov	fp, r0
3000dc00:	e1a00424 	lsr	r0, r4, #8
3000dc04:	e200000f 	and	r0, r0, #15	; 0xf
3000dc08:	e201100f 	and	r1, r1, #15	; 0xf
3000dc0c:	e1a05624 	lsr	r5, r4, #12
3000dc10:	e0813000 	add	r3, r1, r0
3000dc14:	e0833005 	add	r3, r3, r5
3000dc18:	e204400f 	and	r4, r4, #15	; 0xf
3000dc1c:	e3a02006 	mov	r2, #6	; 0x6
3000dc20:	e0274392 	mla	r7, r2, r3, r4
3000dc24:	e3a03009 	mov	r3, #9	; 0x9
3000dc28:	e0221593 	mla	r2, r3, r5, r1
3000dc2c:	e3a040cd 	mov	r4, #205	; 0xcd
3000dc30:	e0060794 	mul	r6, r4, r7
3000dc34:	e3a03005 	mov	r3, #5	; 0x5
3000dc38:	e0212093 	mla	r1, r3, r0, r2
3000dc3c:	e1a065a6 	lsr	r6, r6, #11
3000dc40:	e0811006 	add	r1, r1, r6
3000dc44:	e00c0194 	mul	ip, r4, r1
3000dc48:	e1a0c5ac 	lsr	ip, ip, #11
3000dc4c:	e08c0080 	add	r0, ip, r0, lsl #1
3000dc50:	e2833008 	add	r3, r3, #8	; 0x8
3000dc54:	e0020093 	mul	r2, r3, r0
3000dc58:	e1a023a2 	lsr	r2, r2, #7
3000dc5c:	e0825105 	add	r5, r2, r5, lsl #2
3000dc60:	e0040495 	mul	r4, r5, r4
3000dc64:	e3a0300a 	mov	r3, #10	; 0xa
3000dc68:	e1a045a4 	lsr	r4, r4, #11
3000dc6c:	e00a0493 	mul	sl, r3, r4
3000dc70:	e0060693 	mul	r6, r3, r6
3000dc74:	e00c0c93 	mul	ip, r3, ip
3000dc78:	e0030392 	mul	r3, r2, r3
3000dc7c:	e0667007 	rsb	r7, r6, r7
3000dc80:	e06c1001 	rsb	r1, ip, r1
3000dc84:	e0630000 	rsb	r0, r3, r0
3000dc88:	e06a5005 	rsb	r5, sl, r5
3000dc8c:	e2877030 	add	r7, r7, #48	; 0x30
3000dc90:	e2811030 	add	r1, r1, #48	; 0x30
3000dc94:	e2800030 	add	r0, r0, #48	; 0x30
3000dc98:	e2855030 	add	r5, r5, #48	; 0x30
3000dc9c:	e2844030 	add	r4, r4, #48	; 0x30
3000dca0:	e5497005 	strb	r7, [r9, #-5]
3000dca4:	e5491004 	strb	r1, [r9, #-4]
3000dca8:	e5490003 	strb	r0, [r9, #-3]
3000dcac:	e5495002 	strb	r5, [r9, #-2]
3000dcb0:	e5494001 	strb	r4, [r9, #-1]
3000dcb4:	eaffffbf 	b	3000dbb8 <put_dec+0xc>
3000dcb8:	0001869f 	.word	0x0001869f
3000dcbc:	000186a0 	.word	0x000186a0

3000dcc0 <number>:
3000dcc0:	e92d4ef0 	push	{r4, r5, r6, r7, r9, sl, fp, lr}
3000dcc4:	e24dd050 	sub	sp, sp, #80	; 0x50
3000dcc8:	e59d7074 	ldr	r7, [sp, #116]
3000dccc:	e1a09002 	mov	r9, r2
3000dcd0:	e252200a 	subs	r2, r2, #10	; 0xa
3000dcd4:	13a02001 	movne	r2, #1	; 0x1
3000dcd8:	e3170010 	tst	r7, #16	; 0x10
3000dcdc:	e002b327 	and	fp, r2, r7, lsr #6
3000dce0:	e2072020 	and	r2, r7, #32	; 0x20
3000dce4:	13c77001 	bicne	r7, r7, #1	; 0x1
3000dce8:	e3170002 	tst	r7, #2	; 0x2
3000dcec:	e1a06000 	mov	r6, r0
3000dcf0:	e1a05003 	mov	r5, r3
3000dcf4:	e58d2004 	str	r2, [sp, #4]
3000dcf8:	0a00000c 	beq	3000dd30 <number+0x70>
3000dcfc:	e3510000 	cmp	r1, #0	; 0x0
3000dd00:	b2611000 	rsblt	r1, r1, #0	; 0x0
3000dd04:	b2435001 	sublt	r5, r3, #1	; 0x1
3000dd08:	b3a0a02d 	movlt	sl, #45	; 0x2d
3000dd0c:	ba000008 	blt	3000dd34 <number+0x74>
3000dd10:	e3170004 	tst	r7, #4	; 0x4
3000dd14:	12435001 	subne	r5, r3, #1	; 0x1
3000dd18:	13a0a02b 	movne	sl, #43	; 0x2b
3000dd1c:	1a000004 	bne	3000dd34 <number+0x74>
3000dd20:	e3170008 	tst	r7, #8	; 0x8
3000dd24:	12455001 	subne	r5, r5, #1	; 0x1
3000dd28:	13a0a020 	movne	sl, #32	; 0x20
3000dd2c:	1a000000 	bne	3000dd34 <number+0x74>
3000dd30:	e3a0a000 	mov	sl, #0	; 0x0
3000dd34:	e35b0000 	cmp	fp, #0	; 0x0
3000dd38:	0a000002 	beq	3000dd48 <number+0x88>
3000dd3c:	e3590010 	cmp	r9, #16	; 0x10
3000dd40:	e2455001 	sub	r5, r5, #1	; 0x1
3000dd44:	02455001 	subeq	r5, r5, #1	; 0x1
3000dd48:	e3510000 	cmp	r1, #0	; 0x0
3000dd4c:	03a03030 	moveq	r3, #48	; 0x30
3000dd50:	05cd300e 	strbeq	r3, [sp, #14]
3000dd54:	03a0c001 	moveq	ip, #1	; 0x1
3000dd58:	0a000017 	beq	3000ddbc <number+0xfc>
3000dd5c:	e359000a 	cmp	r9, #10	; 0xa
3000dd60:	0a000011 	beq	3000ddac <number+0xec>
3000dd64:	e3590010 	cmp	r9, #16	; 0x10
3000dd68:	03a00004 	moveq	r0, #4	; 0x4
3000dd6c:	13a00003 	movne	r0, #3	; 0x3
3000dd70:	e2494001 	sub	r4, r9, #1	; 0x1
3000dd74:	e3a0c000 	mov	ip, #0	; 0x0
3000dd78:	e20120ff 	and	r2, r1, #255	; 0xff
3000dd7c:	e1b01031 	lsrs	r1, r1, r0
3000dd80:	e59f3140 	ldr	r3, [pc, #320]	; 3000dec8 <number+0x208>
3000dd84:	e0022004 	and	r2, r2, r4
3000dd88:	e0833002 	add	r3, r3, r2
3000dd8c:	e5d33011 	ldrb	r3, [r3, #17]
3000dd90:	e59d2004 	ldr	r2, [sp, #4]
3000dd94:	e1823003 	orr	r3, r2, r3
3000dd98:	e28d200e 	add	r2, sp, #14	; 0xe
3000dd9c:	e7c2300c 	strb	r3, [r2, ip]
3000dda0:	e28cc001 	add	ip, ip, #1	; 0x1
3000dda4:	1afffff3 	bne	3000dd78 <number+0xb8>
3000dda8:	ea000003 	b	3000ddbc <number+0xfc>
3000ddac:	e28d400e 	add	r4, sp, #14	; 0xe
3000ddb0:	e1a00004 	mov	r0, r4
3000ddb4:	ebffff7c 	bl	3000dbac <put_dec>
3000ddb8:	e064c000 	rsb	ip, r4, r0
3000ddbc:	e59d3070 	ldr	r3, [sp, #112]
3000ddc0:	e15c0003 	cmp	ip, r3
3000ddc4:	a1a0100c 	movge	r1, ip
3000ddc8:	b1a01003 	movlt	r1, r3
3000ddcc:	e3170011 	tst	r7, #17	; 0x11
3000ddd0:	e0614005 	rsb	r4, r1, r5
3000ddd4:	01a02006 	moveq	r2, r6
3000ddd8:	0a000002 	beq	3000dde8 <number+0x128>
3000dddc:	ea000005 	b	3000ddf8 <number+0x138>
3000dde0:	e3a03020 	mov	r3, #32	; 0x20
3000dde4:	e5423001 	strb	r3, [r2, #-1]
3000dde8:	e2544001 	subs	r4, r4, #1	; 0x1
3000ddec:	e1a06002 	mov	r6, r2
3000ddf0:	e2822001 	add	r2, r2, #1	; 0x1
3000ddf4:	5afffff9 	bpl	3000dde0 <number+0x120>
3000ddf8:	e35a0000 	cmp	sl, #0	; 0x0
3000ddfc:	14c6a001 	strbne	sl, [r6], #1
3000de00:	e35b0000 	cmp	fp, #0	; 0x0
3000de04:	0a000005 	beq	3000de20 <number+0x160>
3000de08:	e3a03030 	mov	r3, #48	; 0x30
3000de0c:	e4c63001 	strb	r3, [r6], #1
3000de10:	e3590010 	cmp	r9, #16	; 0x10
3000de14:	059d2004 	ldreq	r2, [sp, #4]
3000de18:	03823058 	orreq	r3, r2, #88	; 0x58
3000de1c:	04c63001 	strbeq	r3, [r6], #1
3000de20:	e3170010 	tst	r7, #16	; 0x10
3000de24:	1a000009 	bne	3000de50 <number+0x190>
3000de28:	e3170001 	tst	r7, #1	; 0x1
3000de2c:	13a02030 	movne	r2, #48	; 0x30
3000de30:	03a02020 	moveq	r2, #32	; 0x20
3000de34:	e1a03006 	mov	r3, r6
3000de38:	ea000000 	b	3000de40 <number+0x180>
3000de3c:	e5432001 	strb	r2, [r3, #-1]
3000de40:	e2544001 	subs	r4, r4, #1	; 0x1
3000de44:	e1a06003 	mov	r6, r3
3000de48:	e2833001 	add	r3, r3, #1	; 0x1
3000de4c:	5afffffa 	bpl	3000de3c <number+0x17c>
3000de50:	e1a00006 	mov	r0, r6
3000de54:	ea000001 	b	3000de60 <number+0x1a0>
3000de58:	e3a03030 	mov	r3, #48	; 0x30
3000de5c:	e5403001 	strb	r3, [r0, #-1]
3000de60:	e2411001 	sub	r1, r1, #1	; 0x1
3000de64:	e15c0001 	cmp	ip, r1
3000de68:	e1a02000 	mov	r2, r0
3000de6c:	e2800001 	add	r0, r0, #1	; 0x1
3000de70:	dafffff8 	ble	3000de58 <number+0x198>
3000de74:	e28d1050 	add	r1, sp, #80	; 0x50
3000de78:	e081300c 	add	r3, r1, ip
3000de7c:	e2431043 	sub	r1, r3, #67	; 0x43
3000de80:	ea000001 	b	3000de8c <number+0x1cc>
3000de84:	e5d13001 	ldrb	r3, [r1, #1]
3000de88:	e5423001 	strb	r3, [r2, #-1]
3000de8c:	e25cc001 	subs	ip, ip, #1	; 0x1
3000de90:	e1a03002 	mov	r3, r2
3000de94:	e2411001 	sub	r1, r1, #1	; 0x1
3000de98:	e2822001 	add	r2, r2, #1	; 0x1
3000de9c:	5afffff8 	bpl	3000de84 <number+0x1c4>
3000dea0:	e1a02003 	mov	r2, r3
3000dea4:	ea000001 	b	3000deb0 <number+0x1f0>
3000dea8:	e3a03020 	mov	r3, #32	; 0x20
3000deac:	e5423001 	strb	r3, [r2, #-1]
3000deb0:	e2544001 	subs	r4, r4, #1	; 0x1
3000deb4:	e1a00002 	mov	r0, r2
3000deb8:	e2822001 	add	r2, r2, #1	; 0x1
3000debc:	5afffff9 	bpl	3000dea8 <number+0x1e8>
3000dec0:	e28dd050 	add	sp, sp, #80	; 0x50
3000dec4:	e8bd8ef0 	pop	{r4, r5, r6, r7, r9, sl, fp, pc}
3000dec8:	3001703a 	.word	0x3001703a

3000decc <panic>:
3000decc:	e92d000f 	push	{r0, r1, r2, r3}
3000ded0:	e92d4007 	push	{r0, r1, r2, lr}
3000ded4:	e28d3014 	add	r3, sp, #20	; 0x14
3000ded8:	e1a01003 	mov	r1, r3
3000dedc:	e59d0010 	ldr	r0, [sp, #16]
3000dee0:	e58d3004 	str	r3, [sp, #4]
3000dee4:	ebffe0fb 	bl	300062d8 <vprintf>
3000dee8:	e3a0000a 	mov	r0, #10	; 0xa
3000deec:	ebffe18b 	bl	30006520 <putc>
3000def0:	e59f0020 	ldr	r0, [pc, #32]	; 3000df18 <panic+0x4c>
3000def4:	eb000c35 	bl	30010fd0 <udelay>
3000def8:	e3a00000 	mov	r0, #0	; 0x0
3000defc:	e1a01000 	mov	r1, r0
3000df00:	e1a02000 	mov	r2, r0
3000df04:	e1a03000 	mov	r3, r0
3000df08:	eb000d14 	bl	30011360 <do_reset>
3000df0c:	e8bd400e 	pop	{r1, r2, r3, lr}
3000df10:	e28dd010 	add	sp, sp, #16	; 0x10
3000df14:	e1a0f00e 	mov	pc, lr
3000df18:	000186a0 	.word	0x000186a0

3000df1c <string>:
3000df1c:	e59fc0a4 	ldr	ip, [pc, #164]	; 3000dfc8 <string+0xac>
3000df20:	e3510000 	cmp	r1, #0	; 0x0
3000df24:	e92d4070 	push	{r4, r5, r6, lr}
3000df28:	11a06001 	movne	r6, r1
3000df2c:	01a0600c 	moveq	r6, ip
3000df30:	e1a04000 	mov	r4, r0
3000df34:	e1a01003 	mov	r1, r3
3000df38:	e1a00006 	mov	r0, r6
3000df3c:	e1a05002 	mov	r5, r2
3000df40:	ebfffd5d 	bl	3000d4bc <strnlen>
3000df44:	e59d3010 	ldr	r3, [sp, #16]
3000df48:	e3130010 	tst	r3, #16	; 0x10
3000df4c:	e1a0c000 	mov	ip, r0
3000df50:	01a02004 	moveq	r2, r4
3000df54:	0a000002 	beq	3000df64 <string+0x48>
3000df58:	ea000007 	b	3000df7c <string+0x60>
3000df5c:	e3a03020 	mov	r3, #32	; 0x20
3000df60:	e5423001 	strb	r3, [r2, #-1]
3000df64:	e2455001 	sub	r5, r5, #1	; 0x1
3000df68:	e2853001 	add	r3, r5, #1	; 0x1
3000df6c:	e15c0003 	cmp	ip, r3
3000df70:	e1a04002 	mov	r4, r2
3000df74:	e2822001 	add	r2, r2, #1	; 0x1
3000df78:	bafffff7 	blt	3000df5c <string+0x40>
3000df7c:	e3a02000 	mov	r2, #0	; 0x0
3000df80:	ea000002 	b	3000df90 <string+0x74>
3000df84:	e7d63002 	ldrb	r3, [r6, r2]
3000df88:	e7c43002 	strb	r3, [r4, r2]
3000df8c:	e2822001 	add	r2, r2, #1	; 0x1
3000df90:	e152000c 	cmp	r2, ip
3000df94:	e0843002 	add	r3, r4, r2
3000df98:	bafffff9 	blt	3000df84 <string+0x68>
3000df9c:	e1a01003 	mov	r1, r3
3000dfa0:	e1a02005 	mov	r2, r5
3000dfa4:	ea000001 	b	3000dfb0 <string+0x94>
3000dfa8:	e3a03020 	mov	r3, #32	; 0x20
3000dfac:	e5413001 	strb	r3, [r1, #-1]
3000dfb0:	e15c0002 	cmp	ip, r2
3000dfb4:	e1a00001 	mov	r0, r1
3000dfb8:	e2422001 	sub	r2, r2, #1	; 0x1
3000dfbc:	e2811001 	add	r1, r1, #1	; 0x1
3000dfc0:	bafffff8 	blt	3000dfa8 <string+0x8c>
3000dfc4:	e8bd8070 	pop	{r4, r5, r6, pc}
3000dfc8:	3001a9a0 	.word	0x3001a9a0

3000dfcc <vsprintf>:
3000dfcc:	e92d4ef0 	push	{r4, r5, r6, r7, r9, sl, fp, lr}
3000dfd0:	e24dd068 	sub	sp, sp, #104	; 0x68
3000dfd4:	e58d0008 	str	r0, [sp, #8]
3000dfd8:	e58d1014 	str	r1, [sp, #20]
3000dfdc:	e1a04002 	mov	r4, r2
3000dfe0:	e1a0a000 	mov	sl, r0
3000dfe4:	ea00016a 	b	3000e594 <vsprintf+0x5c8>
3000dfe8:	e3530025 	cmp	r3, #37	; 0x25
3000dfec:	03a05000 	moveq	r5, #0	; 0x0
3000dff0:	14ca3001 	strbne	r3, [sl], #1
3000dff4:	1a000163 	bne	3000e588 <vsprintf+0x5bc>
3000dff8:	e59d3014 	ldr	r3, [sp, #20]
3000dffc:	e2831001 	add	r1, r3, #1	; 0x1
3000e000:	e58d1014 	str	r1, [sp, #20]
3000e004:	e5d32001 	ldrb	r2, [r3, #1]
3000e008:	e352002b 	cmp	r2, #43	; 0x2b
3000e00c:	0a00000c 	beq	3000e044 <vsprintf+0x78>
3000e010:	8a000004 	bhi	3000e028 <vsprintf+0x5c>
3000e014:	e3520020 	cmp	r2, #32	; 0x20
3000e018:	0a00000b 	beq	3000e04c <vsprintf+0x80>
3000e01c:	e3520023 	cmp	r2, #35	; 0x23
3000e020:	1a00000f 	bne	3000e064 <vsprintf+0x98>
3000e024:	ea00000a 	b	3000e054 <vsprintf+0x88>
3000e028:	e352002d 	cmp	r2, #45	; 0x2d
3000e02c:	0a000002 	beq	3000e03c <vsprintf+0x70>
3000e030:	e3520030 	cmp	r2, #48	; 0x30
3000e034:	1a00000a 	bne	3000e064 <vsprintf+0x98>
3000e038:	ea000007 	b	3000e05c <vsprintf+0x90>
3000e03c:	e3855010 	orr	r5, r5, #16	; 0x10
3000e040:	eaffffec 	b	3000dff8 <vsprintf+0x2c>
3000e044:	e3855004 	orr	r5, r5, #4	; 0x4
3000e048:	eaffffea 	b	3000dff8 <vsprintf+0x2c>
3000e04c:	e3855008 	orr	r5, r5, #8	; 0x8
3000e050:	eaffffe8 	b	3000dff8 <vsprintf+0x2c>
3000e054:	e3855040 	orr	r5, r5, #64	; 0x40
3000e058:	eaffffe6 	b	3000dff8 <vsprintf+0x2c>
3000e05c:	e3855001 	orr	r5, r5, #1	; 0x1
3000e060:	eaffffe4 	b	3000dff8 <vsprintf+0x2c>
3000e064:	e2423030 	sub	r3, r2, #48	; 0x30
3000e068:	e3530009 	cmp	r3, #9	; 0x9
3000e06c:	8a000004 	bhi	3000e084 <vsprintf+0xb8>
3000e070:	e28d0014 	add	r0, sp, #20	; 0x14
3000e074:	ebfffe87 	bl	3000da98 <skip_atoi>
3000e078:	e1a09004 	mov	r9, r4
3000e07c:	e1a0b000 	mov	fp, r0
3000e080:	ea00000a 	b	3000e0b0 <vsprintf+0xe4>
3000e084:	e352002a 	cmp	r2, #42	; 0x2a
3000e088:	11a09004 	movne	r9, r4
3000e08c:	13e0b000 	mvnne	fp, #0	; 0x0
3000e090:	1a000006 	bne	3000e0b0 <vsprintf+0xe4>
3000e094:	e594b000 	ldr	fp, [r4]
3000e098:	e2813001 	add	r3, r1, #1	; 0x1
3000e09c:	e35b0000 	cmp	fp, #0	; 0x0
3000e0a0:	e58d3014 	str	r3, [sp, #20]
3000e0a4:	e2849004 	add	r9, r4, #4	; 0x4
3000e0a8:	b26bb000 	rsblt	fp, fp, #0	; 0x0
3000e0ac:	b3855010 	orrlt	r5, r5, #16	; 0x10
3000e0b0:	e59d2014 	ldr	r2, [sp, #20]
3000e0b4:	e5d23000 	ldrb	r3, [r2]
3000e0b8:	e353002e 	cmp	r3, #46	; 0x2e
3000e0bc:	13e03000 	mvnne	r3, #0	; 0x0
3000e0c0:	158d3010 	strne	r3, [sp, #16]
3000e0c4:	1a000015 	bne	3000e120 <vsprintf+0x154>
3000e0c8:	e2821001 	add	r1, r2, #1	; 0x1
3000e0cc:	e58d1014 	str	r1, [sp, #20]
3000e0d0:	e5d22001 	ldrb	r2, [r2, #1]
3000e0d4:	e2423030 	sub	r3, r2, #48	; 0x30
3000e0d8:	e3530009 	cmp	r3, #9	; 0x9
3000e0dc:	8a000003 	bhi	3000e0f0 <vsprintf+0x124>
3000e0e0:	e28d0014 	add	r0, sp, #20	; 0x14
3000e0e4:	ebfffe6b 	bl	3000da98 <skip_atoi>
3000e0e8:	e58d0010 	str	r0, [sp, #16]
3000e0ec:	ea000006 	b	3000e10c <vsprintf+0x140>
3000e0f0:	e352002a 	cmp	r2, #42	; 0x2a
3000e0f4:	1a000007 	bne	3000e118 <vsprintf+0x14c>
3000e0f8:	e599c000 	ldr	ip, [r9]
3000e0fc:	e2813001 	add	r3, r1, #1	; 0x1
3000e100:	e58d3014 	str	r3, [sp, #20]
3000e104:	e58dc010 	str	ip, [sp, #16]
3000e108:	e2899004 	add	r9, r9, #4	; 0x4
3000e10c:	e59d3010 	ldr	r3, [sp, #16]
3000e110:	e3530000 	cmp	r3, #0	; 0x0
3000e114:	aa000001 	bge	3000e120 <vsprintf+0x154>
3000e118:	e3a0c000 	mov	ip, #0	; 0x0
3000e11c:	e58dc010 	str	ip, [sp, #16]
3000e120:	e59d2014 	ldr	r2, [sp, #20]
3000e124:	e5d23000 	ldrb	r3, [r2]
3000e128:	e353006c 	cmp	r3, #108	; 0x6c
3000e12c:	13530068 	cmpne	r3, #104	; 0x68
3000e130:	0a000008 	beq	3000e158 <vsprintf+0x18c>
3000e134:	e353004c 	cmp	r3, #76	; 0x4c
3000e138:	0a000006 	beq	3000e158 <vsprintf+0x18c>
3000e13c:	e353005a 	cmp	r3, #90	; 0x5a
3000e140:	0a000004 	beq	3000e158 <vsprintf+0x18c>
3000e144:	e353007a 	cmp	r3, #122	; 0x7a
3000e148:	0a000002 	beq	3000e158 <vsprintf+0x18c>
3000e14c:	e3530074 	cmp	r3, #116	; 0x74
3000e150:	13e01000 	mvnne	r1, #0	; 0x0
3000e154:	1a000009 	bne	3000e180 <vsprintf+0x1b4>
3000e158:	e2820001 	add	r0, r2, #1	; 0x1
3000e15c:	e353006c 	cmp	r3, #108	; 0x6c
3000e160:	e1a01003 	mov	r1, r3
3000e164:	e58d0014 	str	r0, [sp, #20]
3000e168:	1a000004 	bne	3000e180 <vsprintf+0x1b4>
3000e16c:	e5d23001 	ldrb	r3, [r2, #1]
3000e170:	e353006c 	cmp	r3, #108	; 0x6c
3000e174:	02803001 	addeq	r3, r0, #1	; 0x1
3000e178:	058d3014 	streq	r3, [sp, #20]
3000e17c:	03a0104c 	moveq	r1, #76	; 0x4c
3000e180:	e59d2014 	ldr	r2, [sp, #20]
3000e184:	e5d23000 	ldrb	r3, [r2]
3000e188:	e353006e 	cmp	r3, #110	; 0x6e
3000e18c:	0a0000c5 	beq	3000e4a8 <vsprintf+0x4dc>
3000e190:	8a00000c 	bhi	3000e1c8 <vsprintf+0x1fc>
3000e194:	e3530063 	cmp	r3, #99	; 0x63
3000e198:	0a000017 	beq	3000e1fc <vsprintf+0x230>
3000e19c:	8a000004 	bhi	3000e1b4 <vsprintf+0x1e8>
3000e1a0:	e3530025 	cmp	r3, #37	; 0x25
3000e1a4:	0a0000c6 	beq	3000e4c4 <vsprintf+0x4f8>
3000e1a8:	e3530058 	cmp	r3, #88	; 0x58
3000e1ac:	1a0000cd 	bne	3000e4e8 <vsprintf+0x51c>
3000e1b0:	ea0000c8 	b	3000e4d8 <vsprintf+0x50c>
3000e1b4:	e3530064 	cmp	r3, #100	; 0x64
3000e1b8:	0a0000c8 	beq	3000e4e0 <vsprintf+0x514>
3000e1bc:	e3530069 	cmp	r3, #105	; 0x69
3000e1c0:	1a0000c8 	bne	3000e4e8 <vsprintf+0x51c>
3000e1c4:	ea0000c5 	b	3000e4e0 <vsprintf+0x514>
3000e1c8:	e3530073 	cmp	r3, #115	; 0x73
3000e1cc:	0a000021 	beq	3000e258 <vsprintf+0x28c>
3000e1d0:	8a000004 	bhi	3000e1e8 <vsprintf+0x21c>
3000e1d4:	e353006f 	cmp	r3, #111	; 0x6f
3000e1d8:	0a0000bb 	beq	3000e4cc <vsprintf+0x500>
3000e1dc:	e3530070 	cmp	r3, #112	; 0x70
3000e1e0:	1a0000c0 	bne	3000e4e8 <vsprintf+0x51c>
3000e1e4:	ea000023 	b	3000e278 <vsprintf+0x2ac>
3000e1e8:	e3530075 	cmp	r3, #117	; 0x75
3000e1ec:	0a0000c7 	beq	3000e510 <vsprintf+0x544>
3000e1f0:	e3530078 	cmp	r3, #120	; 0x78
3000e1f4:	1a0000bb 	bne	3000e4e8 <vsprintf+0x51c>
3000e1f8:	ea0000b5 	b	3000e4d4 <vsprintf+0x508>
3000e1fc:	e3150010 	tst	r5, #16	; 0x10
3000e200:	01a0200a 	moveq	r2, sl
3000e204:	0a000002 	beq	3000e214 <vsprintf+0x248>
3000e208:	ea000006 	b	3000e228 <vsprintf+0x25c>
3000e20c:	e3a03020 	mov	r3, #32	; 0x20
3000e210:	e5423001 	strb	r3, [r2, #-1]
3000e214:	e24bb001 	sub	fp, fp, #1	; 0x1
3000e218:	e35b0000 	cmp	fp, #0	; 0x0
3000e21c:	e1a0a002 	mov	sl, r2
3000e220:	e2822001 	add	r2, r2, #1	; 0x1
3000e224:	cafffff8 	bgt	3000e20c <vsprintf+0x240>
3000e228:	e5993000 	ldr	r3, [r9]
3000e22c:	e1a0200a 	mov	r2, sl
3000e230:	e4c23001 	strb	r3, [r2], #1
3000e234:	ea000001 	b	3000e240 <vsprintf+0x274>
3000e238:	e3a03020 	mov	r3, #32	; 0x20
3000e23c:	e5423001 	strb	r3, [r2, #-1]
3000e240:	e24bb001 	sub	fp, fp, #1	; 0x1
3000e244:	e35b0000 	cmp	fp, #0	; 0x0
3000e248:	e1a0a002 	mov	sl, r2
3000e24c:	e2822001 	add	r2, r2, #1	; 0x1
3000e250:	cafffff8 	bgt	3000e238 <vsprintf+0x26c>
3000e254:	ea000091 	b	3000e4a0 <vsprintf+0x4d4>
3000e258:	e58d5000 	str	r5, [sp]
3000e25c:	e1a0000a 	mov	r0, sl
3000e260:	e5991000 	ldr	r1, [r9]
3000e264:	e1a0200b 	mov	r2, fp
3000e268:	e59d3010 	ldr	r3, [sp, #16]
3000e26c:	ebffff2a 	bl	3000df1c <string>
3000e270:	e1a0a000 	mov	sl, r0
3000e274:	ea000089 	b	3000e4a0 <vsprintf+0x4d4>
3000e278:	e599e000 	ldr	lr, [r9]
3000e27c:	e35e0000 	cmp	lr, #0	; 0x0
3000e280:	e58de00c 	str	lr, [sp, #12]
3000e284:	1a000005 	bne	3000e2a0 <vsprintf+0x2d4>
3000e288:	e1a0000a 	mov	r0, sl
3000e28c:	e1a0200b 	mov	r2, fp
3000e290:	e59d3010 	ldr	r3, [sp, #16]
3000e294:	e59f131c 	ldr	r1, [pc, #796]	; 3000e5b8 <vsprintf+0x5ec>
3000e298:	e58d5000 	str	r5, [sp]
3000e29c:	ea000024 	b	3000e334 <vsprintf+0x368>
3000e2a0:	e5d23001 	ldrb	r3, [r2, #1]
3000e2a4:	e353004d 	cmp	r3, #77	; 0x4d
3000e2a8:	e2822001 	add	r2, r2, #1	; 0x1
3000e2ac:	0a000008 	beq	3000e2d4 <vsprintf+0x308>
3000e2b0:	8a000002 	bhi	3000e2c0 <vsprintf+0x2f4>
3000e2b4:	e3530049 	cmp	r3, #73	; 0x49
3000e2b8:	1a000063 	bne	3000e44c <vsprintf+0x480>
3000e2bc:	ea000020 	b	3000e344 <vsprintf+0x378>
3000e2c0:	e3530069 	cmp	r3, #105	; 0x69
3000e2c4:	0a00001d 	beq	3000e340 <vsprintf+0x374>
3000e2c8:	e353006d 	cmp	r3, #109	; 0x6d
3000e2cc:	1a00005e 	bne	3000e44c <vsprintf+0x480>
3000e2d0:	e3855040 	orr	r5, r5, #64	; 0x40
3000e2d4:	e3a04000 	mov	r4, #0	; 0x0
3000e2d8:	e28d0043 	add	r0, sp, #67	; 0x43
3000e2dc:	e59d300c 	ldr	r3, [sp, #12]
3000e2e0:	e7d31004 	ldrb	r1, [r3, r4]
3000e2e4:	ebfffd8c 	bl	3000d91c <pack_hex_byte>
3000e2e8:	e1a03325 	lsr	r3, r5, #6
3000e2ec:	e2233001 	eor	r3, r3, #1	; 0x1
3000e2f0:	e3540005 	cmp	r4, #5	; 0x5
3000e2f4:	03a03000 	moveq	r3, #0	; 0x0
3000e2f8:	12033001 	andne	r3, r3, #1	; 0x1
3000e2fc:	e3530000 	cmp	r3, #0	; 0x0
3000e300:	13a0303a 	movne	r3, #58	; 0x3a
3000e304:	e2844001 	add	r4, r4, #1	; 0x1
3000e308:	14c03001 	strbne	r3, [r0], #1
3000e30c:	e3540006 	cmp	r4, #6	; 0x6
3000e310:	1afffff1 	bne	3000e2dc <vsprintf+0x310>
3000e314:	e3a03000 	mov	r3, #0	; 0x0
3000e318:	e5c03000 	strb	r3, [r0]
3000e31c:	e59d3010 	ldr	r3, [sp, #16]
3000e320:	e3c5c040 	bic	ip, r5, #64	; 0x40
3000e324:	e1a0000a 	mov	r0, sl
3000e328:	e1a0200b 	mov	r2, fp
3000e32c:	e28d1043 	add	r1, sp, #67	; 0x43
3000e330:	e58dc000 	str	ip, [sp]
3000e334:	ebfffef8 	bl	3000df1c <string>
3000e338:	e1a0a000 	mov	sl, r0
3000e33c:	ea000050 	b	3000e484 <vsprintf+0x4b8>
3000e340:	e3855040 	orr	r5, r5, #64	; 0x40
3000e344:	e5d23001 	ldrb	r3, [r2, #1]
3000e348:	e3530036 	cmp	r3, #54	; 0x36
3000e34c:	1a00001a 	bne	3000e3bc <vsprintf+0x3f0>
3000e350:	e59d600c 	ldr	r6, [sp, #12]
3000e354:	e3a04000 	mov	r4, #0	; 0x0
3000e358:	e28d001b 	add	r0, sp, #27	; 0x1b
3000e35c:	e5d61000 	ldrb	r1, [r6]
3000e360:	ebfffd6d 	bl	3000d91c <pack_hex_byte>
3000e364:	e5d61001 	ldrb	r1, [r6, #1]
3000e368:	ebfffd6b 	bl	3000d91c <pack_hex_byte>
3000e36c:	e1a03325 	lsr	r3, r5, #6
3000e370:	e2233001 	eor	r3, r3, #1	; 0x1
3000e374:	e3540007 	cmp	r4, #7	; 0x7
3000e378:	03a03000 	moveq	r3, #0	; 0x0
3000e37c:	12033001 	andne	r3, r3, #1	; 0x1
3000e380:	e3530000 	cmp	r3, #0	; 0x0
3000e384:	13a0303a 	movne	r3, #58	; 0x3a
3000e388:	e2844001 	add	r4, r4, #1	; 0x1
3000e38c:	14c03001 	strbne	r3, [r0], #1
3000e390:	e3540008 	cmp	r4, #8	; 0x8
3000e394:	e2866002 	add	r6, r6, #2	; 0x2
3000e398:	1affffef 	bne	3000e35c <vsprintf+0x390>
3000e39c:	e3a03000 	mov	r3, #0	; 0x0
3000e3a0:	e5c03000 	strb	r3, [r0]
3000e3a4:	e3c5c040 	bic	ip, r5, #64	; 0x40
3000e3a8:	e1a0000a 	mov	r0, sl
3000e3ac:	e1a0200b 	mov	r2, fp
3000e3b0:	e59d3010 	ldr	r3, [sp, #16]
3000e3b4:	e28d101b 	add	r1, sp, #27	; 0x1b
3000e3b8:	eaffffdc 	b	3000e330 <vsprintf+0x364>
3000e3bc:	e3530034 	cmp	r3, #52	; 0x34
3000e3c0:	13c55040 	bicne	r5, r5, #64	; 0x40
3000e3c4:	1a000020 	bne	3000e44c <vsprintf+0x480>
3000e3c8:	e3a07000 	mov	r7, #0	; 0x0
3000e3cc:	e28d6055 	add	r6, sp, #85	; 0x55
3000e3d0:	e59dc00c 	ldr	ip, [sp, #12]
3000e3d4:	e28d4065 	add	r4, sp, #101	; 0x65
3000e3d8:	e7dc1007 	ldrb	r1, [ip, r7]
3000e3dc:	e1a00004 	mov	r0, r4
3000e3e0:	ebfffdba 	bl	3000dad0 <put_dec_trunc>
3000e3e4:	e3a02000 	mov	r2, #0	; 0x0
3000e3e8:	e0641000 	rsb	r1, r4, r0
3000e3ec:	e2400001 	sub	r0, r0, #1	; 0x1
3000e3f0:	ea000002 	b	3000e400 <vsprintf+0x434>
3000e3f4:	e5d03001 	ldrb	r3, [r0, #1]
3000e3f8:	e7c63002 	strb	r3, [r6, r2]
3000e3fc:	e2822001 	add	r2, r2, #1	; 0x1
3000e400:	e2400001 	sub	r0, r0, #1	; 0x1
3000e404:	e28d3063 	add	r3, sp, #99	; 0x63
3000e408:	e1500003 	cmp	r0, r3
3000e40c:	1afffff8 	bne	3000e3f4 <vsprintf+0x428>
3000e410:	e3570003 	cmp	r7, #3	; 0x3
3000e414:	13a0302e 	movne	r3, #46	; 0x2e
3000e418:	e0866001 	add	r6, r6, r1
3000e41c:	e2877001 	add	r7, r7, #1	; 0x1
3000e420:	14c63001 	strbne	r3, [r6], #1
3000e424:	e3570004 	cmp	r7, #4	; 0x4
3000e428:	1affffe8 	bne	3000e3d0 <vsprintf+0x404>
3000e42c:	e3a03000 	mov	r3, #0	; 0x0
3000e430:	e5c63000 	strb	r3, [r6]
3000e434:	e3c5c040 	bic	ip, r5, #64	; 0x40
3000e438:	e1a0000a 	mov	r0, sl
3000e43c:	e1a0200b 	mov	r2, fp
3000e440:	e59d3010 	ldr	r3, [sp, #16]
3000e444:	e28d1055 	add	r1, sp, #85	; 0x55
3000e448:	eaffffb8 	b	3000e330 <vsprintf+0x364>
3000e44c:	e37b0001 	cmn	fp, #1	; 0x1
3000e450:	028bb009 	addeq	fp, fp, #9	; 0x9
3000e454:	e59de010 	ldr	lr, [sp, #16]
3000e458:	e385c020 	orr	ip, r5, #32	; 0x20
3000e45c:	e1a0000a 	mov	r0, sl
3000e460:	0385c021 	orreq	ip, r5, #33	; 0x21
3000e464:	e59d100c 	ldr	r1, [sp, #12]
3000e468:	e1a0300b 	mov	r3, fp
3000e46c:	e3a02010 	mov	r2, #16	; 0x10
3000e470:	e58de000 	str	lr, [sp]
3000e474:	e58dc004 	str	ip, [sp, #4]
3000e478:	ebfffe10 	bl	3000dcc0 <number>
3000e47c:	eaffffad 	b	3000e338 <vsprintf+0x36c>
3000e480:	e58d1014 	str	r1, [sp, #20]
3000e484:	e59d1014 	ldr	r1, [sp, #20]
3000e488:	e59f312c 	ldr	r3, [pc, #300]	; 3000e5bc <vsprintf+0x5f0>
3000e48c:	e5d12001 	ldrb	r2, [r1, #1]
3000e490:	e7d33002 	ldrb	r3, [r3, r2]
3000e494:	e3130007 	tst	r3, #7	; 0x7
3000e498:	e2811001 	add	r1, r1, #1	; 0x1
3000e49c:	1afffff7 	bne	3000e480 <vsprintf+0x4b4>
3000e4a0:	e2894004 	add	r4, r9, #4	; 0x4
3000e4a4:	ea000037 	b	3000e588 <vsprintf+0x5bc>
3000e4a8:	e59d3008 	ldr	r3, [sp, #8]
3000e4ac:	e063100a 	rsb	r1, r3, sl
3000e4b0:	e5993000 	ldr	r3, [r9]
3000e4b4:	e2892004 	add	r2, r9, #4	; 0x4
3000e4b8:	e5831000 	str	r1, [r3]
3000e4bc:	e1a04002 	mov	r4, r2
3000e4c0:	ea000030 	b	3000e588 <vsprintf+0x5bc>
3000e4c4:	e4ca3001 	strb	r3, [sl], #1
3000e4c8:	ea00000e 	b	3000e508 <vsprintf+0x53c>
3000e4cc:	e3a0c008 	mov	ip, #8	; 0x8
3000e4d0:	ea00000f 	b	3000e514 <vsprintf+0x548>
3000e4d4:	e3855020 	orr	r5, r5, #32	; 0x20
3000e4d8:	e3a0c010 	mov	ip, #16	; 0x10
3000e4dc:	ea00000c 	b	3000e514 <vsprintf+0x548>
3000e4e0:	e3855002 	orr	r5, r5, #2	; 0x2
3000e4e4:	ea000009 	b	3000e510 <vsprintf+0x544>
3000e4e8:	e3a03025 	mov	r3, #37	; 0x25
3000e4ec:	e4ca3001 	strb	r3, [sl], #1
3000e4f0:	e59d3014 	ldr	r3, [sp, #20]
3000e4f4:	e5d32000 	ldrb	r2, [r3]
3000e4f8:	e3520000 	cmp	r2, #0	; 0x0
3000e4fc:	02433001 	subeq	r3, r3, #1	; 0x1
3000e500:	058d3014 	streq	r3, [sp, #20]
3000e504:	14ca2001 	strbne	r2, [sl], #1
3000e508:	e1a04009 	mov	r4, r9
3000e50c:	ea00001d 	b	3000e588 <vsprintf+0x5bc>
3000e510:	e3a0c00a 	mov	ip, #10	; 0xa
3000e514:	e351006c 	cmp	r1, #108	; 0x6c
3000e518:	0a000004 	beq	3000e530 <vsprintf+0x564>
3000e51c:	e351007a 	cmp	r1, #122	; 0x7a
3000e520:	1351005a 	cmpne	r1, #90	; 0x5a
3000e524:	0a000001 	beq	3000e530 <vsprintf+0x564>
3000e528:	e3510074 	cmp	r1, #116	; 0x74
3000e52c:	1a000002 	bne	3000e53c <vsprintf+0x570>
3000e530:	e5991000 	ldr	r1, [r9]
3000e534:	e2894004 	add	r4, r9, #4	; 0x4
3000e538:	ea00000a 	b	3000e568 <vsprintf+0x59c>
3000e53c:	e3510068 	cmp	r1, #104	; 0x68
3000e540:	e2892004 	add	r2, r9, #4	; 0x4
3000e544:	e5991000 	ldr	r1, [r9]
3000e548:	11a04002 	movne	r4, r2
3000e54c:	1a000005 	bne	3000e568 <vsprintf+0x59c>
3000e550:	e1a03801 	lsl	r3, r1, #16
3000e554:	e3150002 	tst	r5, #2	; 0x2
3000e558:	e1a01823 	lsr	r1, r3, #16
3000e55c:	11a03801 	lslne	r3, r1, #16
3000e560:	e1a04002 	mov	r4, r2
3000e564:	11a01843 	asrne	r1, r3, #16
3000e568:	e1a0200c 	mov	r2, ip
3000e56c:	e59dc010 	ldr	ip, [sp, #16]
3000e570:	e1a0000a 	mov	r0, sl
3000e574:	e1a0300b 	mov	r3, fp
3000e578:	e58dc000 	str	ip, [sp]
3000e57c:	e58d5004 	str	r5, [sp, #4]
3000e580:	ebfffdce 	bl	3000dcc0 <number>
3000e584:	e1a0a000 	mov	sl, r0
3000e588:	e59d3014 	ldr	r3, [sp, #20]
3000e58c:	e2833001 	add	r3, r3, #1	; 0x1
3000e590:	e58d3014 	str	r3, [sp, #20]
3000e594:	e59d3014 	ldr	r3, [sp, #20]
3000e598:	e5d33000 	ldrb	r3, [r3]
3000e59c:	e3530000 	cmp	r3, #0	; 0x0
3000e5a0:	1afffe90 	bne	3000dfe8 <vsprintf+0x1c>
3000e5a4:	e5ca3000 	strb	r3, [sl]
3000e5a8:	e59d3008 	ldr	r3, [sp, #8]
3000e5ac:	e063000a 	rsb	r0, r3, sl
3000e5b0:	e28dd068 	add	sp, sp, #104	; 0x68
3000e5b4:	e8bd8ef0 	pop	{r4, r5, r6, r7, r9, sl, fp, pc}
3000e5b8:	3001a9a7 	.word	0x3001a9a7
3000e5bc:	3001bc30 	.word	0x3001bc30

3000e5c0 <sprintf>:
3000e5c0:	e92d000e 	push	{r1, r2, r3}
3000e5c4:	e92d4003 	push	{r0, r1, lr}
3000e5c8:	e28d3010 	add	r3, sp, #16	; 0x10
3000e5cc:	e1a02003 	mov	r2, r3
3000e5d0:	e59d100c 	ldr	r1, [sp, #12]
3000e5d4:	e58d3004 	str	r3, [sp, #4]
3000e5d8:	ebfffe7b 	bl	3000dfcc <vsprintf>
3000e5dc:	e8bd400c 	pop	{r2, r3, lr}
3000e5e0:	e28dd00c 	add	sp, sp, #12	; 0xc
3000e5e4:	e1a0f00e 	mov	pc, lr

3000e5e8 <inflate_fast>:
3000e5e8:	e92d4ef0 	push	{r4, r5, r6, r7, r9, sl, fp, lr}
3000e5ec:	e24dd040 	sub	sp, sp, #64	; 0x40
3000e5f0:	e58d0004 	str	r0, [sp, #4]
3000e5f4:	e590001c 	ldr	r0, [r0, #28]
3000e5f8:	e2803054 	add	r3, r0, #84	; 0x54
3000e5fc:	e8930048 	ldm	r3, {r3, r6}
3000e600:	e3a04001 	mov	r4, #1	; 0x1
3000e604:	e1a06614 	lsl	r6, r4, r6
3000e608:	e1a04314 	lsl	r4, r4, r3
3000e60c:	e59d3004 	ldr	r3, [sp, #4]
3000e610:	e5935000 	ldr	r5, [r3]
3000e614:	e58d0008 	str	r0, [sp, #8]
3000e618:	e2455001 	sub	r5, r5, #1	; 0x1
3000e61c:	e5932010 	ldr	r2, [r3, #16]
3000e620:	e58d500c 	str	r5, [sp, #12]
3000e624:	e59d5008 	ldr	r5, [sp, #8]
3000e628:	e5930004 	ldr	r0, [r3, #4]
3000e62c:	e5955028 	ldr	r5, [r5, #40]
3000e630:	e593300c 	ldr	r3, [r3, #12]
3000e634:	e242cc01 	sub	ip, r2, #256	; 0x100
3000e638:	e0612002 	rsb	r2, r1, r2
3000e63c:	e59d1008 	ldr	r1, [sp, #8]
3000e640:	e2437001 	sub	r7, r3, #1	; 0x1
3000e644:	e591102c 	ldr	r1, [r1, #44]
3000e648:	e58d501c 	str	r5, [sp, #28]
3000e64c:	e59d3008 	ldr	r3, [sp, #8]
3000e650:	e59d5008 	ldr	r5, [sp, #8]
3000e654:	e5933030 	ldr	r3, [r3, #48]
3000e658:	e5955034 	ldr	r5, [r5, #52]
3000e65c:	e58d1020 	str	r1, [sp, #32]
3000e660:	e59d1008 	ldr	r1, [sp, #8]
3000e664:	e58d3024 	str	r3, [sp, #36]
3000e668:	e58d5028 	str	r5, [sp, #40]
3000e66c:	e281304c 	add	r3, r1, #76	; 0x4c
3000e670:	e8930028 	ldm	r3, {r3, r5}
3000e674:	e591b038 	ldr	fp, [r1, #56]
3000e678:	e591a03c 	ldr	sl, [r1, #60]
3000e67c:	e59d100c 	ldr	r1, [sp, #12]
3000e680:	e2400005 	sub	r0, r0, #5	; 0x5
3000e684:	e24cc001 	sub	ip, ip, #1	; 0x1
3000e688:	e0810000 	add	r0, r1, r0
3000e68c:	e0872002 	add	r2, r7, r2
3000e690:	e087c00c 	add	ip, r7, ip
3000e694:	e2444001 	sub	r4, r4, #1	; 0x1
3000e698:	e2466001 	sub	r6, r6, #1	; 0x1
3000e69c:	e58d302c 	str	r3, [sp, #44]
3000e6a0:	e58d5030 	str	r5, [sp, #48]
3000e6a4:	e58d0010 	str	r0, [sp, #16]
3000e6a8:	e58d2014 	str	r2, [sp, #20]
3000e6ac:	e58dc018 	str	ip, [sp, #24]
3000e6b0:	e58d4034 	str	r4, [sp, #52]
3000e6b4:	e58d6038 	str	r6, [sp, #56]
3000e6b8:	e35a000e 	cmp	sl, #14	; 0xe
3000e6bc:	8a000009 	bhi	3000e6e8 <inflate_fast+0x100>
3000e6c0:	e59d200c 	ldr	r2, [sp, #12]
3000e6c4:	e2821001 	add	r1, r2, #1	; 0x1
3000e6c8:	e5d13000 	ldrb	r3, [r1]
3000e6cc:	e08b3a13 	add	r3, fp, r3, lsl sl
3000e6d0:	e5d10001 	ldrb	r0, [r1, #1]
3000e6d4:	e28a2008 	add	r2, sl, #8	; 0x8
3000e6d8:	e083b210 	add	fp, r3, r0, lsl r2
3000e6dc:	e2811001 	add	r1, r1, #1	; 0x1
3000e6e0:	e58d100c 	str	r1, [sp, #12]
3000e6e4:	e282a008 	add	sl, r2, #8	; 0x8
3000e6e8:	e59d5034 	ldr	r5, [sp, #52]
3000e6ec:	e59dc02c 	ldr	ip, [sp, #44]
3000e6f0:	e00b3005 	and	r3, fp, r5
3000e6f4:	e7dc1103 	ldrb	r1, [ip, r3, lsl #2]
3000e6f8:	e08c2103 	add	r2, ip, r3, lsl #2
3000e6fc:	e5d23001 	ldrb	r3, [r2, #1]
3000e700:	e3510000 	cmp	r1, #0	; 0x0
3000e704:	e1d200b2 	ldrh	r0, [r2, #2]
3000e708:	e063a00a 	rsb	sl, r3, sl
3000e70c:	e1a0b33b 	lsr	fp, fp, r3
3000e710:	05e70001 	strbeq	r0, [r7, #1]!
3000e714:	0a0000f1 	beq	3000eae0 <inflate_fast+0x4f8>
3000e718:	e3110010 	tst	r1, #16	; 0x10
3000e71c:	0a0000db 	beq	3000ea90 <inflate_fast+0x4a8>
3000e720:	e211200f 	ands	r2, r1, #15	; 0xf
3000e724:	e1a09000 	mov	r9, r0
3000e728:	0a00000a 	beq	3000e758 <inflate_fast+0x170>
3000e72c:	e15a0002 	cmp	sl, r2
3000e730:	359d100c 	ldrcc	r1, [sp, #12]
3000e734:	35f13001 	ldrbcc	r3, [r1, #1]!
3000e738:	308bba13 	addcc	fp, fp, r3, lsl sl
3000e73c:	e3e03000 	mvn	r3, #0	; 0x0
3000e740:	e1cb3213 	bic	r3, fp, r3, lsl r2
3000e744:	e1a0b23b 	lsr	fp, fp, r2
3000e748:	328aa008 	addcc	sl, sl, #8	; 0x8
3000e74c:	358d100c 	strcc	r1, [sp, #12]
3000e750:	e0809003 	add	r9, r0, r3
3000e754:	e062a00a 	rsb	sl, r2, sl
3000e758:	e35a000e 	cmp	sl, #14	; 0xe
3000e75c:	8a000009 	bhi	3000e788 <inflate_fast+0x1a0>
3000e760:	e59d200c 	ldr	r2, [sp, #12]
3000e764:	e2821001 	add	r1, r2, #1	; 0x1
3000e768:	e5d13000 	ldrb	r3, [r1]
3000e76c:	e08b3a13 	add	r3, fp, r3, lsl sl
3000e770:	e5d10001 	ldrb	r0, [r1, #1]
3000e774:	e28a2008 	add	r2, sl, #8	; 0x8
3000e778:	e083b210 	add	fp, r3, r0, lsl r2
3000e77c:	e2811001 	add	r1, r1, #1	; 0x1
3000e780:	e58d100c 	str	r1, [sp, #12]
3000e784:	e282a008 	add	sl, r2, #8	; 0x8
3000e788:	e59d5038 	ldr	r5, [sp, #56]
3000e78c:	e59dc030 	ldr	ip, [sp, #48]
3000e790:	e00b3005 	and	r3, fp, r5
3000e794:	e7dc1103 	ldrb	r1, [ip, r3, lsl #2]
3000e798:	e08c2103 	add	r2, ip, r3, lsl #2
3000e79c:	e5d23001 	ldrb	r3, [r2, #1]
3000e7a0:	e3110010 	tst	r1, #16	; 0x10
3000e7a4:	e1d200b2 	ldrh	r0, [r2, #2]
3000e7a8:	e063a00a 	rsb	sl, r3, sl
3000e7ac:	e1a0b33b 	lsr	fp, fp, r3
3000e7b0:	0a0000a6 	beq	3000ea50 <inflate_fast+0x468>
3000e7b4:	e201200f 	and	r2, r1, #15	; 0xf
3000e7b8:	e15a0002 	cmp	sl, r2
3000e7bc:	2a000009 	bcs	3000e7e8 <inflate_fast+0x200>
3000e7c0:	e59d100c 	ldr	r1, [sp, #12]
3000e7c4:	e5f13001 	ldrb	r3, [r1, #1]!
3000e7c8:	e08bba13 	add	fp, fp, r3, lsl sl
3000e7cc:	e58d100c 	str	r1, [sp, #12]
3000e7d0:	e28aa008 	add	sl, sl, #8	; 0x8
3000e7d4:	e15a0002 	cmp	sl, r2
3000e7d8:	35f13001 	ldrbcc	r3, [r1, #1]!
3000e7dc:	358d100c 	strcc	r1, [sp, #12]
3000e7e0:	308bba13 	addcc	fp, fp, r3, lsl sl
3000e7e4:	328aa008 	addcc	sl, sl, #8	; 0x8
3000e7e8:	e3e03000 	mvn	r3, #0	; 0x0
3000e7ec:	e1cb3213 	bic	r3, fp, r3, lsl r2
3000e7f0:	e59d5014 	ldr	r5, [sp, #20]
3000e7f4:	e0834000 	add	r4, r3, r0
3000e7f8:	e0653007 	rsb	r3, r5, r7
3000e7fc:	e1540003 	cmp	r4, r3
3000e800:	90644007 	rsbls	r4, r4, r7
3000e804:	e062a00a 	rsb	sl, r2, sl
3000e808:	e1a0b23b 	lsr	fp, fp, r2
3000e80c:	958d403c 	strls	r4, [sp, #60]
3000e810:	91a05007 	movls	r5, r7
3000e814:	9a00006a 	bls	3000e9c4 <inflate_fast+0x3dc>
3000e818:	e59dc020 	ldr	ip, [sp, #32]
3000e81c:	e0631004 	rsb	r1, r3, r4
3000e820:	e151000c 	cmp	r1, ip
3000e824:	9a000005 	bls	3000e840 <inflate_fast+0x258>
3000e828:	e59f332c 	ldr	r3, [pc, #812]	; 3000eb5c <inflate_fast+0x574>
3000e82c:	e99d0003 	ldmib	sp, {r0, r1}
3000e830:	e5803018 	str	r3, [r0, #24]
3000e834:	e3a0301b 	mov	r3, #27	; 0x1b
3000e838:	e5813000 	str	r3, [r1]
3000e83c:	ea0000ad 	b	3000eaf8 <inflate_fast+0x510>
3000e840:	e28d2024 	add	r2, sp, #36	; 0x24
3000e844:	e892000c 	ldm	r2, {r2, r3}
3000e848:	e3520000 	cmp	r2, #0	; 0x0
3000e84c:	e2435001 	sub	r5, r3, #1	; 0x1
3000e850:	1a000012 	bne	3000e8a0 <inflate_fast+0x2b8>
3000e854:	e59dc01c 	ldr	ip, [sp, #28]
3000e858:	e1510009 	cmp	r1, r9
3000e85c:	e061300c 	rsb	r3, r1, ip
3000e860:	e0855003 	add	r5, r5, r3
3000e864:	2a000009 	bcs	3000e890 <inflate_fast+0x2a8>
3000e868:	e1a0c005 	mov	ip, r5
3000e86c:	e1a00007 	mov	r0, r7
3000e870:	e1a02001 	mov	r2, r1
3000e874:	e5fc3001 	ldrb	r3, [ip, #1]!
3000e878:	e2522001 	subs	r2, r2, #1	; 0x1
3000e87c:	e5e03001 	strb	r3, [r0, #1]!
3000e880:	1afffffb 	bne	3000e874 <inflate_fast+0x28c>
3000e884:	e0877001 	add	r7, r7, r1
3000e888:	e0619009 	rsb	r9, r1, r9
3000e88c:	e0645007 	rsb	r5, r4, r7
3000e890:	e1a01007 	mov	r1, r7
3000e894:	e1a02005 	mov	r2, r5
3000e898:	e1a00009 	mov	r0, r9
3000e89c:	ea000035 	b	3000e978 <inflate_fast+0x390>
3000e8a0:	e59d0024 	ldr	r0, [sp, #36]
3000e8a4:	e1500001 	cmp	r0, r1
3000e8a8:	2a00001f 	bcs	3000e92c <inflate_fast+0x344>
3000e8ac:	e59d2024 	ldr	r2, [sp, #36]
3000e8b0:	e59dc01c 	ldr	ip, [sp, #28]
3000e8b4:	e082300c 	add	r3, r2, ip
3000e8b8:	e0600001 	rsb	r0, r0, r1
3000e8bc:	e0613003 	rsb	r3, r1, r3
3000e8c0:	e1500009 	cmp	r0, r9
3000e8c4:	e0853003 	add	r3, r5, r3
3000e8c8:	21a05003 	movcs	r5, r3
3000e8cc:	2affffef 	bcs	3000e890 <inflate_fast+0x2a8>
3000e8d0:	e0609009 	rsb	r9, r0, r9
3000e8d4:	e1a0c003 	mov	ip, r3
3000e8d8:	e1a01007 	mov	r1, r7
3000e8dc:	e1a02000 	mov	r2, r0
3000e8e0:	e5fc3001 	ldrb	r3, [ip, #1]!
3000e8e4:	e2522001 	subs	r2, r2, #1	; 0x1
3000e8e8:	e5e13001 	strb	r3, [r1, #1]!
3000e8ec:	1afffffb 	bne	3000e8e0 <inflate_fast+0x2f8>
3000e8f0:	e59d1024 	ldr	r1, [sp, #36]
3000e8f4:	e1510009 	cmp	r1, r9
3000e8f8:	e0877000 	add	r7, r7, r0
3000e8fc:	2affffe3 	bcs	3000e890 <inflate_fast+0x2a8>
3000e900:	e1a01007 	mov	r1, r7
3000e904:	e59d5028 	ldr	r5, [sp, #40]
3000e908:	e59dc024 	ldr	ip, [sp, #36]
3000e90c:	e7d53002 	ldrb	r3, [r5, r2]
3000e910:	e2822001 	add	r2, r2, #1	; 0x1
3000e914:	e15c0002 	cmp	ip, r2
3000e918:	e5e13001 	strb	r3, [r1, #1]!
3000e91c:	1afffff8 	bne	3000e904 <inflate_fast+0x31c>
3000e920:	e087700c 	add	r7, r7, ip
3000e924:	e06c9009 	rsb	r9, ip, r9
3000e928:	eaffffd7 	b	3000e88c <inflate_fast+0x2a4>
3000e92c:	e59d0024 	ldr	r0, [sp, #36]
3000e930:	e1510009 	cmp	r1, r9
3000e934:	e0613000 	rsb	r3, r1, r0
3000e938:	e0855003 	add	r5, r5, r3
3000e93c:	2affffd3 	bcs	3000e890 <inflate_fast+0x2a8>
3000e940:	e1a0c005 	mov	ip, r5
3000e944:	e1a00007 	mov	r0, r7
3000e948:	e1a02001 	mov	r2, r1
3000e94c:	e5fc3001 	ldrb	r3, [ip, #1]!
3000e950:	e2522001 	subs	r2, r2, #1	; 0x1
3000e954:	e5e03001 	strb	r3, [r0, #1]!
3000e958:	1afffffb 	bne	3000e94c <inflate_fast+0x364>
3000e95c:	eaffffc8 	b	3000e884 <inflate_fast+0x29c>
3000e960:	e5d23001 	ldrb	r3, [r2, #1]
3000e964:	e5c13001 	strb	r3, [r1, #1]
3000e968:	e5d23002 	ldrb	r3, [r2, #2]
3000e96c:	e5c13002 	strb	r3, [r1, #2]
3000e970:	e5f23003 	ldrb	r3, [r2, #3]!
3000e974:	e5e13003 	strb	r3, [r1, #3]!
3000e978:	e3500002 	cmp	r0, #2	; 0x2
3000e97c:	e2400003 	sub	r0, r0, #3	; 0x3
3000e980:	8afffff6 	bhi	3000e960 <inflate_fast+0x378>
3000e984:	e3a04003 	mov	r4, #3	; 0x3
3000e988:	e1a01004 	mov	r1, r4
3000e98c:	e1a00009 	mov	r0, r9
3000e990:	eb001c4f 	bl	30015ad4 <__aeabi_uidiv>
3000e994:	e0030094 	mul	r3, r4, r0
3000e998:	e1a01004 	mov	r1, r4
3000e99c:	e1a00009 	mov	r0, r9
3000e9a0:	e0854003 	add	r4, r5, r3
3000e9a4:	e0877003 	add	r7, r7, r3
3000e9a8:	eb001cc4 	bl	30015cc0 <__aeabi_uidivmod>
3000e9ac:	e3510000 	cmp	r1, #0	; 0x0
3000e9b0:	0a00004a 	beq	3000eae0 <inflate_fast+0x4f8>
3000e9b4:	e5d43001 	ldrb	r3, [r4, #1]
3000e9b8:	e3510002 	cmp	r1, #2	; 0x2
3000e9bc:	e5e73001 	strb	r3, [r7, #1]!
3000e9c0:	ea00001e 	b	3000ea40 <inflate_fast+0x458>
3000e9c4:	e5d43001 	ldrb	r3, [r4, #1]
3000e9c8:	e5c53001 	strb	r3, [r5, #1]
3000e9cc:	e5d43002 	ldrb	r3, [r4, #2]
3000e9d0:	e5c53002 	strb	r3, [r5, #2]
3000e9d4:	e5f43003 	ldrb	r3, [r4, #3]!
3000e9d8:	e2496003 	sub	r6, r9, #3	; 0x3
3000e9dc:	e5e53003 	strb	r3, [r5, #3]!
3000e9e0:	e3a01003 	mov	r1, #3	; 0x3
3000e9e4:	e1a00006 	mov	r0, r6
3000e9e8:	eb001c39 	bl	30015ad4 <__aeabi_uidiv>
3000e9ec:	e3a02003 	mov	r2, #3	; 0x3
3000e9f0:	e2800001 	add	r0, r0, #1	; 0x1
3000e9f4:	e0020290 	mul	r2, r0, r2
3000e9f8:	e59d103c 	ldr	r1, [sp, #60]
3000e9fc:	e0813002 	add	r3, r1, r2
3000ea00:	e1540003 	cmp	r4, r3
3000ea04:	1affffee 	bne	3000e9c4 <inflate_fast+0x3dc>
3000ea08:	e1a00006 	mov	r0, r6
3000ea0c:	e3a01003 	mov	r1, #3	; 0x3
3000ea10:	e0877002 	add	r7, r7, r2
3000ea14:	eb001ca9 	bl	30015cc0 <__aeabi_uidivmod>
3000ea18:	e1a00006 	mov	r0, r6
3000ea1c:	e1a09001 	mov	r9, r1
3000ea20:	e3a01003 	mov	r1, #3	; 0x3
3000ea24:	eb001c2a 	bl	30015ad4 <__aeabi_uidiv>
3000ea28:	e3590000 	cmp	r9, #0	; 0x0
3000ea2c:	0a00002b 	beq	3000eae0 <inflate_fast+0x4f8>
3000ea30:	e5d43001 	ldrb	r3, [r4, #1]
3000ea34:	e3590002 	cmp	r9, #2	; 0x2
3000ea38:	e5c73001 	strb	r3, [r7, #1]
3000ea3c:	e2877001 	add	r7, r7, #1	; 0x1
3000ea40:	e2843001 	add	r3, r4, #1	; 0x1
3000ea44:	05d33001 	ldrbeq	r3, [r3, #1]
3000ea48:	05e73001 	strbeq	r3, [r7, #1]!
3000ea4c:	ea000023 	b	3000eae0 <inflate_fast+0x4f8>
3000ea50:	e3110040 	tst	r1, #64	; 0x40
3000ea54:	1a000006 	bne	3000ea74 <inflate_fast+0x48c>
3000ea58:	e3e03000 	mvn	r3, #0	; 0x0
3000ea5c:	e1cb3113 	bic	r3, fp, r3, lsl r1
3000ea60:	e59d5030 	ldr	r5, [sp, #48]
3000ea64:	e0833000 	add	r3, r3, r0
3000ea68:	e0852103 	add	r2, r5, r3, lsl #2
3000ea6c:	e7d51103 	ldrb	r1, [r5, r3, lsl #2]
3000ea70:	eaffff49 	b	3000e79c <inflate_fast+0x1b4>
3000ea74:	e59f30e4 	ldr	r3, [pc, #228]	; 3000eb60 <inflate_fast+0x578>
3000ea78:	e59dc004 	ldr	ip, [sp, #4]
3000ea7c:	e59d0008 	ldr	r0, [sp, #8]
3000ea80:	e58c3018 	str	r3, [ip, #24]
3000ea84:	e3a0301b 	mov	r3, #27	; 0x1b
3000ea88:	e5803000 	str	r3, [r0]
3000ea8c:	ea000019 	b	3000eaf8 <inflate_fast+0x510>
3000ea90:	e3110040 	tst	r1, #64	; 0x40
3000ea94:	1a000006 	bne	3000eab4 <inflate_fast+0x4cc>
3000ea98:	e3e03000 	mvn	r3, #0	; 0x0
3000ea9c:	e1cb3113 	bic	r3, fp, r3, lsl r1
3000eaa0:	e59d102c 	ldr	r1, [sp, #44]
3000eaa4:	e0833000 	add	r3, r3, r0
3000eaa8:	e0812103 	add	r2, r1, r3, lsl #2
3000eaac:	e7d11103 	ldrb	r1, [r1, r3, lsl #2]
3000eab0:	eaffff11 	b	3000e6fc <inflate_fast+0x114>
3000eab4:	e3110020 	tst	r1, #32	; 0x20
3000eab8:	059f30a4 	ldreq	r3, [pc, #164]	; 3000eb64 <inflate_fast+0x57c>
3000eabc:	059d5004 	ldreq	r5, [sp, #4]
3000eac0:	159d2008 	ldrne	r2, [sp, #8]
3000eac4:	059dc008 	ldreq	ip, [sp, #8]
3000eac8:	13a0300b 	movne	r3, #11	; 0xb
3000eacc:	05853018 	streq	r3, [r5, #24]
3000ead0:	03a0301b 	moveq	r3, #27	; 0x1b
3000ead4:	15823000 	strne	r3, [r2]
3000ead8:	058c3000 	streq	r3, [ip]
3000eadc:	ea000005 	b	3000eaf8 <inflate_fast+0x510>
3000eae0:	e28d000c 	add	r0, sp, #12	; 0xc
3000eae4:	e8900003 	ldm	r0, {r0, r1}
3000eae8:	e59d2018 	ldr	r2, [sp, #24]
3000eaec:	e1500001 	cmp	r0, r1
3000eaf0:	31570002 	cmpcc	r7, r2
3000eaf4:	3afffeef 	bcc	3000e6b8 <inflate_fast+0xd0>
3000eaf8:	e1a031aa 	lsr	r3, sl, #3
3000eafc:	e04a4183 	sub	r4, sl, r3, lsl #3
3000eb00:	e3e00000 	mvn	r0, #0	; 0x0
3000eb04:	e1cb0410 	bic	r0, fp, r0, lsl r4
3000eb08:	e59d5018 	ldr	r5, [sp, #24]
3000eb0c:	e59dc00c 	ldr	ip, [sp, #12]
3000eb10:	e2852c01 	add	r2, r5, #256	; 0x100
3000eb14:	e59d5010 	ldr	r5, [sp, #16]
3000eb18:	e063300c 	rsb	r3, r3, ip
3000eb1c:	e2851005 	add	r1, r5, #5	; 0x5
3000eb20:	e59d5004 	ldr	r5, [sp, #4]
3000eb24:	e0631001 	rsb	r1, r3, r1
3000eb28:	e5851004 	str	r1, [r5, #4]
3000eb2c:	e2822001 	add	r2, r2, #1	; 0x1
3000eb30:	e59d1008 	ldr	r1, [sp, #8]
3000eb34:	e0672002 	rsb	r2, r7, r2
3000eb38:	e2833001 	add	r3, r3, #1	; 0x1
3000eb3c:	e287c001 	add	ip, r7, #1	; 0x1
3000eb40:	e5852010 	str	r2, [r5, #16]
3000eb44:	e5853000 	str	r3, [r5]
3000eb48:	e581403c 	str	r4, [r1, #60]
3000eb4c:	e585c00c 	str	ip, [r5, #12]
3000eb50:	e5810038 	str	r0, [r1, #56]
3000eb54:	e28dd040 	add	sp, sp, #64	; 0x40
3000eb58:	e8bd8ef0 	pop	{r4, r5, r6, r7, r9, sl, fp, pc}
3000eb5c:	3001a9ae 	.word	0x3001a9ae
3000eb60:	3001a9cc 	.word	0x3001a9cc
3000eb64:	3001a9e2 	.word	0x3001a9e2

3000eb68 <inflate_table>:
3000eb68:	e92d4ef0 	push	{r4, r5, r6, r7, r9, sl, fp, lr}
3000eb6c:	e24dd080 	sub	sp, sp, #128	; 0x80
3000eb70:	e59d50a4 	ldr	r5, [sp, #164]
3000eb74:	e58d1008 	str	r1, [sp, #8]
3000eb78:	e58d3004 	str	r3, [sp, #4]
3000eb7c:	e1a06002 	mov	r6, r2
3000eb80:	e3a02000 	mov	r2, #0	; 0x0
3000eb84:	e28d3060 	add	r3, sp, #96	; 0x60
3000eb88:	e3a01000 	mov	r1, #0	; 0x0
3000eb8c:	e18310b2 	strh	r1, [r3, r2]
3000eb90:	e2822002 	add	r2, r2, #2	; 0x2
3000eb94:	e3520020 	cmp	r2, #32	; 0x20
3000eb98:	1afffff9 	bne	3000eb84 <inflate_table+0x1c>
3000eb9c:	e3a01000 	mov	r1, #0	; 0x0
3000eba0:	ea000006 	b	3000ebc0 <inflate_table+0x58>
3000eba4:	e59d2008 	ldr	r2, [sp, #8]
3000eba8:	e19230b3 	ldrh	r3, [r2, r3]
3000ebac:	e28d4080 	add	r4, sp, #128	; 0x80
3000ebb0:	e0842083 	add	r2, r4, r3, lsl #1
3000ebb4:	e15232b0 	ldrh	r3, [r2, #-32]
3000ebb8:	e2833001 	add	r3, r3, #1	; 0x1
3000ebbc:	e14232b0 	strh	r3, [r2, #-32]
3000ebc0:	e1510006 	cmp	r1, r6
3000ebc4:	e1a03081 	lsl	r3, r1, #1
3000ebc8:	e2811001 	add	r1, r1, #1	; 0x1
3000ebcc:	3afffff4 	bcc	3000eba4 <inflate_table+0x3c>
3000ebd0:	e59dc0a0 	ldr	ip, [sp, #160]
3000ebd4:	e3a0100f 	mov	r1, #15	; 0xf
3000ebd8:	e59c7000 	ldr	r7, [ip]
3000ebdc:	e58d1010 	str	r1, [sp, #16]
3000ebe0:	e59d4010 	ldr	r4, [sp, #16]
3000ebe4:	e28d2080 	add	r2, sp, #128	; 0x80
3000ebe8:	e0823084 	add	r3, r2, r4, lsl #1
3000ebec:	e15332b0 	ldrh	r3, [r3, #-32]
3000ebf0:	e3530000 	cmp	r3, #0	; 0x0
3000ebf4:	0a000003 	beq	3000ec08 <inflate_table+0xa0>
3000ebf8:	e3540000 	cmp	r4, #0	; 0x0
3000ebfc:	13a04001 	movne	r4, #1	; 0x1
3000ec00:	1a000017 	bne	3000ec64 <inflate_table+0xfc>
3000ec04:	ea000003 	b	3000ec18 <inflate_table+0xb0>
3000ec08:	e59dc010 	ldr	ip, [sp, #16]
3000ec0c:	e25cc001 	subs	ip, ip, #1	; 0x1
3000ec10:	e58dc010 	str	ip, [sp, #16]
3000ec14:	1afffff1 	bne	3000ebe0 <inflate_table+0x78>
3000ec18:	e59d0004 	ldr	r0, [sp, #4]
3000ec1c:	e5901000 	ldr	r1, [r0]
3000ec20:	e3a00040 	mov	r0, #64	; 0x40
3000ec24:	e1a03001 	mov	r3, r1
3000ec28:	e4c30004 	strb	r0, [r3], #4
3000ec2c:	e3a02001 	mov	r2, #1	; 0x1
3000ec30:	e5c12001 	strb	r2, [r1, #1]
3000ec34:	e5c10004 	strb	r0, [r1, #4]
3000ec38:	e5c32001 	strb	r2, [r3, #1]
3000ec3c:	e3a04000 	mov	r4, #0	; 0x0
3000ec40:	e1c140b2 	strh	r4, [r1, #2]
3000ec44:	e59d0004 	ldr	r0, [sp, #4]
3000ec48:	e59d10a0 	ldr	r1, [sp, #160]
3000ec4c:	e283c004 	add	ip, r3, #4	; 0x4
3000ec50:	e580c000 	str	ip, [r0]
3000ec54:	e5812000 	str	r2, [r1]
3000ec58:	e1c340b2 	strh	r4, [r3, #2]
3000ec5c:	e3a00000 	mov	r0, #0	; 0x0
3000ec60:	ea000121 	b	3000f0ec <inflate_table+0x584>
3000ec64:	e28d2080 	add	r2, sp, #128	; 0x80
3000ec68:	e0823084 	add	r3, r2, r4, lsl #1
3000ec6c:	e15332b0 	ldrh	r3, [r3, #-32]
3000ec70:	e3530000 	cmp	r3, #0	; 0x0
3000ec74:	1a000002 	bne	3000ec84 <inflate_table+0x11c>
3000ec78:	e2844001 	add	r4, r4, #1	; 0x1
3000ec7c:	e3540010 	cmp	r4, #16	; 0x10
3000ec80:	1afffff7 	bne	3000ec64 <inflate_table+0xfc>
3000ec84:	e28dc060 	add	ip, sp, #96	; 0x60
3000ec88:	e1a0200c 	mov	r2, ip
3000ec8c:	e3a01001 	mov	r1, #1	; 0x1
3000ec90:	e1d230b2 	ldrh	r3, [r2, #2]
3000ec94:	e0731081 	rsbs	r1, r3, r1, lsl #1
3000ec98:	e2822002 	add	r2, r2, #2	; 0x2
3000ec9c:	4a00010f 	bmi	3000f0e0 <inflate_table+0x578>
3000eca0:	e28d307e 	add	r3, sp, #126	; 0x7e
3000eca4:	e1520003 	cmp	r2, r3
3000eca8:	1afffff8 	bne	3000ec90 <inflate_table+0x128>
3000ecac:	e3510000 	cmp	r1, #0	; 0x0
3000ecb0:	0a000006 	beq	3000ecd0 <inflate_table+0x168>
3000ecb4:	e59d1010 	ldr	r1, [sp, #16]
3000ecb8:	e2513001 	subs	r3, r1, #1	; 0x1
3000ecbc:	13a03001 	movne	r3, #1	; 0x1
3000ecc0:	e3500000 	cmp	r0, #0	; 0x0
3000ecc4:	03833001 	orreq	r3, r3, #1	; 0x1
3000ecc8:	e3530000 	cmp	r3, #0	; 0x0
3000eccc:	1a000103 	bne	3000f0e0 <inflate_table+0x578>
3000ecd0:	e3a02000 	mov	r2, #0	; 0x0
3000ecd4:	e1cd24b2 	strh	r2, [sp, #66]
3000ecd8:	e28d1040 	add	r1, sp, #64	; 0x40
3000ecdc:	e1d130b2 	ldrh	r3, [r1, #2]
3000ece0:	e1fc20b2 	ldrh	r2, [ip, #2]!
3000ece4:	e0822003 	add	r2, r2, r3
3000ece8:	e1c120b4 	strh	r2, [r1, #4]
3000ecec:	e28d305c 	add	r3, sp, #92	; 0x5c
3000ecf0:	e2811002 	add	r1, r1, #2	; 0x2
3000ecf4:	e1510003 	cmp	r1, r3
3000ecf8:	1afffff7 	bne	3000ecdc <inflate_table+0x174>
3000ecfc:	e3a01000 	mov	r1, #0	; 0x0
3000ed00:	ea00000a 	b	3000ed30 <inflate_table+0x1c8>
3000ed04:	e59dc008 	ldr	ip, [sp, #8]
3000ed08:	e19c30b3 	ldrh	r3, [ip, r3]
3000ed0c:	e28d2080 	add	r2, sp, #128	; 0x80
3000ed10:	e3530000 	cmp	r3, #0	; 0x0
3000ed14:	e082c083 	add	ip, r2, r3, lsl #1
3000ed18:	115c34b0 	ldrhne	r3, [ip, #-64]
3000ed1c:	12832001 	addne	r2, r3, #1	; 0x1
3000ed20:	11a03083 	lslne	r3, r3, #1
3000ed24:	114c24b0 	strhne	r2, [ip, #-64]
3000ed28:	118510b3 	strhne	r1, [r5, r3]
3000ed2c:	e2811001 	add	r1, r1, #1	; 0x1
3000ed30:	e1510006 	cmp	r1, r6
3000ed34:	e1a03081 	lsl	r3, r1, #1
3000ed38:	3afffff1 	bcc	3000ed04 <inflate_table+0x19c>
3000ed3c:	e3500000 	cmp	r0, #0	; 0x0
3000ed40:	0a000007 	beq	3000ed64 <inflate_table+0x1fc>
3000ed44:	e3500001 	cmp	r0, #1	; 0x1
3000ed48:	1a00000a 	bne	3000ed78 <inflate_table+0x210>
3000ed4c:	e59f33a0 	ldr	r3, [pc, #928]	; 3000f0f4 <inflate_table+0x58c>
3000ed50:	e3a0cc01 	mov	ip, #256	; 0x100
3000ed54:	e58d3024 	str	r3, [sp, #36]
3000ed58:	e58dc02c 	str	ip, [sp, #44]
3000ed5c:	e283103e 	add	r1, r3, #62	; 0x3e
3000ed60:	ea000009 	b	3000ed8c <inflate_table+0x224>
3000ed64:	e3a02013 	mov	r2, #19	; 0x13
3000ed68:	e58d5024 	str	r5, [sp, #36]
3000ed6c:	e58d5028 	str	r5, [sp, #40]
3000ed70:	e58d202c 	str	r2, [sp, #44]
3000ed74:	ea000005 	b	3000ed90 <inflate_table+0x228>
3000ed78:	e59f3378 	ldr	r3, [pc, #888]	; 3000f0f8 <inflate_table+0x590>
3000ed7c:	e3e0c000 	mvn	ip, #0	; 0x0
3000ed80:	e58d3024 	str	r3, [sp, #36]
3000ed84:	e58dc02c 	str	ip, [sp, #44]
3000ed88:	e2831040 	add	r1, r3, #64	; 0x40
3000ed8c:	e58d1028 	str	r1, [sp, #40]
3000ed90:	e59d3010 	ldr	r3, [sp, #16]
3000ed94:	e1530007 	cmp	r3, r7
3000ed98:	21a03007 	movcs	r3, r7
3000ed9c:	e1540003 	cmp	r4, r3
3000eda0:	21a0b004 	movcs	fp, r4
3000eda4:	31a0b003 	movcc	fp, r3
3000eda8:	e3a03001 	mov	r3, #1	; 0x1
3000edac:	e1a03b13 	lsl	r3, r3, fp
3000edb0:	e58d3014 	str	r3, [sp, #20]
3000edb4:	e3500001 	cmp	r0, #1	; 0x1
3000edb8:	13a00000 	movne	r0, #0	; 0x0
3000edbc:	03a00001 	moveq	r0, #1	; 0x1
3000edc0:	e59d2014 	ldr	r2, [sp, #20]
3000edc4:	e59dc004 	ldr	ip, [sp, #4]
3000edc8:	e1a03000 	mov	r3, r0
3000edcc:	e3520e5b 	cmp	r2, #1456	; 0x5b0
3000edd0:	33a03000 	movcc	r3, #0	; 0x0
3000edd4:	22033001 	andcs	r3, r3, #1	; 0x1
3000edd8:	e59cc000 	ldr	ip, [ip]
3000eddc:	e58d000c 	str	r0, [sp, #12]
3000ede0:	e3530000 	cmp	r3, #0	; 0x0
3000ede4:	e2420001 	sub	r0, r2, #1	; 0x1
3000ede8:	e58dc020 	str	ip, [sp, #32]
3000edec:	e58d001c 	str	r0, [sp, #28]
3000edf0:	1a0000bc 	bne	3000f0e8 <inflate_table+0x580>
3000edf4:	e3e01000 	mvn	r1, #0	; 0x0
3000edf8:	e1a07003 	mov	r7, r3
3000edfc:	e58d5034 	str	r5, [sp, #52]
3000ee00:	e1a00004 	mov	r0, r4
3000ee04:	e1a0a00b 	mov	sl, fp
3000ee08:	e1a06003 	mov	r6, r3
3000ee0c:	e58d1018 	str	r1, [sp, #24]
3000ee10:	ea000003 	b	3000ee24 <inflate_table+0x2bc>
3000ee14:	e59d2034 	ldr	r2, [sp, #52]
3000ee18:	e2822002 	add	r2, r2, #2	; 0x2
3000ee1c:	e58d2034 	str	r2, [sp, #52]
3000ee20:	e1a00005 	mov	r0, r5
3000ee24:	e59d3034 	ldr	r3, [sp, #52]
3000ee28:	e59dc02c 	ldr	ip, [sp, #44]
3000ee2c:	e1d340b0 	ldrh	r4, [r3]
3000ee30:	e0673000 	rsb	r3, r7, r0
3000ee34:	e154000c 	cmp	r4, ip
3000ee38:	e20330ff 	and	r3, r3, #255	; 0xff
3000ee3c:	e58d3030 	str	r3, [sp, #48]
3000ee40:	b3a05000 	movlt	r5, #0	; 0x0
3000ee44:	ba000006 	blt	3000ee64 <inflate_table+0x2fc>
3000ee48:	c59d1024 	ldrgt	r1, [sp, #36]
3000ee4c:	c59d2028 	ldrgt	r2, [sp, #40]
3000ee50:	c1a03084 	lslgt	r3, r4, #1
3000ee54:	c19140b3 	ldrhgt	r4, [r1, r3]
3000ee58:	c7d25003 	ldrbgt	r5, [r2, r3]
3000ee5c:	d3a04000 	movle	r4, #0	; 0x0
3000ee60:	d3a05060 	movle	r5, #96	; 0x60
3000ee64:	e3a02001 	mov	r2, #1	; 0x1
3000ee68:	e1a03a12 	lsl	r3, r2, sl
3000ee6c:	e58d3038 	str	r3, [sp, #56]
3000ee70:	e0673000 	rsb	r3, r7, r0
3000ee74:	e1a0c312 	lsl	ip, r2, r3
3000ee78:	e59d1038 	ldr	r1, [sp, #56]
3000ee7c:	e0813736 	add	r3, r1, r6, lsr r7
3000ee80:	e3e02003 	mvn	r2, #3	; 0x3
3000ee84:	e002029c 	mul	r2, ip, r2
3000ee88:	e59d1020 	ldr	r1, [sp, #32]
3000ee8c:	e06c3003 	rsb	r3, ip, r3
3000ee90:	e58d203c 	str	r2, [sp, #60]
3000ee94:	e0812103 	add	r2, r1, r3, lsl #2
3000ee98:	e59d3038 	ldr	r3, [sp, #56]
3000ee9c:	e26c9000 	rsb	r9, ip, #0	; 0x0
3000eea0:	e06c1003 	rsb	r1, ip, r3
3000eea4:	e0811009 	add	r1, r1, r9
3000eea8:	e081300c 	add	r3, r1, ip
3000eeac:	e3530000 	cmp	r3, #0	; 0x0
3000eeb0:	e59d3030 	ldr	r3, [sp, #48]
3000eeb4:	e5c23001 	strb	r3, [r2, #1]
3000eeb8:	e59d303c 	ldr	r3, [sp, #60]
3000eebc:	e1c240b2 	strh	r4, [r2, #2]
3000eec0:	e6c25003 	strb	r5, [r2], r3
3000eec4:	1afffff6 	bne	3000eea4 <inflate_table+0x33c>
3000eec8:	e2402001 	sub	r2, r0, #1	; 0x1
3000eecc:	e3a03001 	mov	r3, #1	; 0x1
3000eed0:	e1a01213 	lsl	r1, r3, r2
3000eed4:	ea000000 	b	3000eedc <inflate_table+0x374>
3000eed8:	e1a010a1 	lsr	r1, r1, #1
3000eedc:	e1110006 	tst	r1, r6
3000eee0:	1afffffc 	bne	3000eed8 <inflate_table+0x370>
3000eee4:	e3510000 	cmp	r1, #0	; 0x0
3000eee8:	12413001 	subne	r3, r1, #1	; 0x1
3000eeec:	10033006 	andne	r3, r3, r6
3000eef0:	e28d4080 	add	r4, sp, #128	; 0x80
3000eef4:	10836001 	addne	r6, r3, r1
3000eef8:	e0843080 	add	r3, r4, r0, lsl #1
3000eefc:	e15332b0 	ldrh	r3, [r3, #-32]
3000ef00:	e2433001 	sub	r3, r3, #1	; 0x1
3000ef04:	e1a03803 	lsl	r3, r3, #16
3000ef08:	01a06001 	moveq	r6, r1
3000ef0c:	e1b02823 	lsrs	r2, r3, #16
3000ef10:	11a05000 	movne	r5, r0
3000ef14:	1a000007 	bne	3000ef38 <inflate_table+0x3d0>
3000ef18:	e59dc010 	ldr	ip, [sp, #16]
3000ef1c:	e150000c 	cmp	r0, ip
3000ef20:	0a00003d 	beq	3000f01c <inflate_table+0x4b4>
3000ef24:	e59d1034 	ldr	r1, [sp, #52]
3000ef28:	e1d130b2 	ldrh	r3, [r1, #2]
3000ef2c:	e59d4008 	ldr	r4, [sp, #8]
3000ef30:	e1a03083 	lsl	r3, r3, #1
3000ef34:	e19450b3 	ldrh	r5, [r4, r3]
3000ef38:	e28dc080 	add	ip, sp, #128	; 0x80
3000ef3c:	e08c3080 	add	r3, ip, r0, lsl #1
3000ef40:	e155000b 	cmp	r5, fp
3000ef44:	e14322b0 	strh	r2, [r3, #-32]
3000ef48:	9affffb1 	bls	3000ee14 <inflate_table+0x2ac>
3000ef4c:	e59d001c 	ldr	r0, [sp, #28]
3000ef50:	e59d1018 	ldr	r1, [sp, #24]
3000ef54:	e006c000 	and	ip, r6, r0
3000ef58:	e15c0001 	cmp	ip, r1
3000ef5c:	0affffac 	beq	3000ee14 <inflate_table+0x2ac>
3000ef60:	e3570000 	cmp	r7, #0	; 0x0
3000ef64:	01a0700b 	moveq	r7, fp
3000ef68:	e067a005 	rsb	sl, r7, r5
3000ef6c:	e3a03001 	mov	r3, #1	; 0x1
3000ef70:	e08a2007 	add	r2, sl, r7
3000ef74:	e1a01a13 	lsl	r1, r3, sl
3000ef78:	e28d3060 	add	r3, sp, #96	; 0x60
3000ef7c:	e0834082 	add	r4, r3, r2, lsl #1
3000ef80:	ea000005 	b	3000ef9c <inflate_table+0x434>
3000ef84:	e0d430b2 	ldrh	r3, [r4], #2
3000ef88:	e0633001 	rsb	r3, r3, r1
3000ef8c:	e3530000 	cmp	r3, #0	; 0x0
3000ef90:	da000005 	ble	3000efac <inflate_table+0x444>
3000ef94:	e28aa001 	add	sl, sl, #1	; 0x1
3000ef98:	e1a01083 	lsl	r1, r3, #1
3000ef9c:	e59d3010 	ldr	r3, [sp, #16]
3000efa0:	e1520003 	cmp	r2, r3
3000efa4:	e2822001 	add	r2, r2, #1	; 0x1
3000efa8:	3afffff5 	bcc	3000ef84 <inflate_table+0x41c>
3000efac:	e59d4014 	ldr	r4, [sp, #20]
3000efb0:	e3a03001 	mov	r3, #1	; 0x1
3000efb4:	e0844a13 	add	r4, r4, r3, lsl sl
3000efb8:	e59d300c 	ldr	r3, [sp, #12]
3000efbc:	e3540e5b 	cmp	r4, #1456	; 0x5b0
3000efc0:	33a03000 	movcc	r3, #0	; 0x0
3000efc4:	22033001 	andcs	r3, r3, #1	; 0x1
3000efc8:	e3530000 	cmp	r3, #0	; 0x0
3000efcc:	e58d4014 	str	r4, [sp, #20]
3000efd0:	1a000044 	bne	3000f0e8 <inflate_table+0x580>
3000efd4:	e59d0004 	ldr	r0, [sp, #4]
3000efd8:	e5903000 	ldr	r3, [r0]
3000efdc:	e7c3a10c 	strb	sl, [r3, ip, lsl #2]
3000efe0:	e5903000 	ldr	r3, [r0]
3000efe4:	e1a0110c 	lsl	r1, ip, #2
3000efe8:	e0833001 	add	r3, r3, r1
3000efec:	e5c3b001 	strb	fp, [r3, #1]
3000eff0:	e59d3020 	ldr	r3, [sp, #32]
3000eff4:	e59d4038 	ldr	r4, [sp, #56]
3000eff8:	e5902000 	ldr	r2, [r0]
3000effc:	e0833104 	add	r3, r3, r4, lsl #2
3000f000:	e58d3020 	str	r3, [sp, #32]
3000f004:	e0623003 	rsb	r3, r2, r3
3000f008:	e1a03143 	asr	r3, r3, #2
3000f00c:	e0822001 	add	r2, r2, r1
3000f010:	e1c230b2 	strh	r3, [r2, #2]
3000f014:	e58dc018 	str	ip, [sp, #24]
3000f018:	eaffff7d 	b	3000ee14 <inflate_table+0x2ac>
3000f01c:	e1a0c000 	mov	ip, r0
3000f020:	ea000023 	b	3000f0b4 <inflate_table+0x54c>
3000f024:	e3570000 	cmp	r7, #0	; 0x0
3000f028:	0a00000b 	beq	3000f05c <inflate_table+0x4f4>
3000f02c:	e59d001c 	ldr	r0, [sp, #28]
3000f030:	e59d1018 	ldr	r1, [sp, #24]
3000f034:	e0063000 	and	r3, r6, r0
3000f038:	e1530001 	cmp	r3, r1
3000f03c:	0a000006 	beq	3000f05c <inflate_table+0x4f4>
3000f040:	e59d2004 	ldr	r2, [sp, #4]
3000f044:	e5922000 	ldr	r2, [r2]
3000f048:	e20b30ff 	and	r3, fp, #255	; 0xff
3000f04c:	e58d2020 	str	r2, [sp, #32]
3000f050:	e58d3030 	str	r3, [sp, #48]
3000f054:	e1a0c00b 	mov	ip, fp
3000f058:	e3a07000 	mov	r7, #0	; 0x0
3000f05c:	e1a02736 	lsr	r2, r6, r7
3000f060:	e59d4020 	ldr	r4, [sp, #32]
3000f064:	e3a03040 	mov	r3, #64	; 0x40
3000f068:	e7c43102 	strb	r3, [r4, r2, lsl #2]
3000f06c:	e0841102 	add	r1, r4, r2, lsl #2
3000f070:	e3a03001 	mov	r3, #1	; 0x1
3000f074:	e24c0001 	sub	r0, ip, #1	; 0x1
3000f078:	e59d2030 	ldr	r2, [sp, #48]
3000f07c:	e1a00013 	lsl	r0, r3, r0
3000f080:	e3a03000 	mov	r3, #0	; 0x0
3000f084:	e5c12001 	strb	r2, [r1, #1]
3000f088:	e1c130b2 	strh	r3, [r1, #2]
3000f08c:	ea000000 	b	3000f094 <inflate_table+0x52c>
3000f090:	e1a000a0 	lsr	r0, r0, #1
3000f094:	e1100006 	tst	r0, r6
3000f098:	1afffffc 	bne	3000f090 <inflate_table+0x528>
3000f09c:	e3500000 	cmp	r0, #0	; 0x0
3000f0a0:	01a06000 	moveq	r6, r0
3000f0a4:	0a000004 	beq	3000f0bc <inflate_table+0x554>
3000f0a8:	e2403001 	sub	r3, r0, #1	; 0x1
3000f0ac:	e0033006 	and	r3, r3, r6
3000f0b0:	e0836000 	add	r6, r3, r0
3000f0b4:	e3560000 	cmp	r6, #0	; 0x0
3000f0b8:	1affffd9 	bne	3000f024 <inflate_table+0x4bc>
3000f0bc:	e59d4004 	ldr	r4, [sp, #4]
3000f0c0:	e59dc014 	ldr	ip, [sp, #20]
3000f0c4:	e5943000 	ldr	r3, [r4]
3000f0c8:	e59d00a0 	ldr	r0, [sp, #160]
3000f0cc:	e083310c 	add	r3, r3, ip, lsl #2
3000f0d0:	e580b000 	str	fp, [r0]
3000f0d4:	e5843000 	str	r3, [r4]
3000f0d8:	e1a00006 	mov	r0, r6
3000f0dc:	ea000002 	b	3000f0ec <inflate_table+0x584>
3000f0e0:	e3e00000 	mvn	r0, #0	; 0x0
3000f0e4:	ea000000 	b	3000f0ec <inflate_table+0x584>
3000f0e8:	e3a00001 	mov	r0, #1	; 0x1
3000f0ec:	e28dd080 	add	sp, sp, #128	; 0x80
3000f0f0:	e8bd8ef0 	pop	{r4, r5, r6, r7, r9, sl, fp, pc}
3000f0f4:	3001620e 	.word	0x3001620e
3000f0f8:	3001648c 	.word	0x3001648c

3000f0fc <inflateReset>:
3000f0fc:	e3500000 	cmp	r0, #0	; 0x0
3000f100:	e92d4010 	push	{r4, lr}
3000f104:	0a000022 	beq	3000f194 <inflateReset+0x98>
3000f108:	e590101c 	ldr	r1, [r0, #28]
3000f10c:	e3510000 	cmp	r1, #0	; 0x0
3000f110:	0a00001f 	beq	3000f194 <inflateReset+0x98>
3000f114:	e590c030 	ldr	ip, [r0, #48]
3000f118:	e3a02902 	mov	r2, #32768	; 0x8000
3000f11c:	e3a04000 	mov	r4, #0	; 0x0
3000f120:	e2813e53 	add	r3, r1, #1328	; 0x530
3000f124:	e35c0000 	cmp	ip, #0	; 0x0
3000f128:	e5812014 	str	r2, [r1, #20]
3000f12c:	e3a02001 	mov	r2, #1	; 0x1
3000f130:	e581401c 	str	r4, [r1, #28]
3000f134:	e5804018 	str	r4, [r0, #24]
3000f138:	e5802034 	str	r2, [r0, #52]
3000f13c:	e5804014 	str	r4, [r0, #20]
3000f140:	e5804008 	str	r4, [r0, #8]
3000f144:	e581304c 	str	r3, [r1, #76]
3000f148:	e5814000 	str	r4, [r1]
3000f14c:	e5814004 	str	r4, [r1, #4]
3000f150:	e581400c 	str	r4, [r1, #12]
3000f154:	e5814020 	str	r4, [r1, #32]
3000f158:	e5814028 	str	r4, [r1, #40]
3000f15c:	e581402c 	str	r4, [r1, #44]
3000f160:	e5814030 	str	r4, [r1, #48]
3000f164:	e5814038 	str	r4, [r1, #56]
3000f168:	e581403c 	str	r4, [r1, #60]
3000f16c:	e581306c 	str	r3, [r1, #108]
3000f170:	e5813050 	str	r3, [r1, #80]
3000f174:	01a0000c 	moveq	r0, ip
3000f178:	08bd8010 	popeq	{r4, pc}
3000f17c:	e1a00004 	mov	r0, r4
3000f180:	e1a01004 	mov	r1, r4
3000f184:	e1a0e00f 	mov	lr, pc
3000f188:	e1a0f00c 	mov	pc, ip
3000f18c:	e1a00004 	mov	r0, r4
3000f190:	e8bd8010 	pop	{r4, pc}
3000f194:	e3e00001 	mvn	r0, #1	; 0x1
3000f198:	e8bd8010 	pop	{r4, pc}

3000f19c <inflateInit2_>:
3000f19c:	e3520000 	cmp	r2, #0	; 0x0
3000f1a0:	e92d4070 	push	{r4, r5, r6, lr}
3000f1a4:	e1a05001 	mov	r5, r1
3000f1a8:	e1a04000 	mov	r4, r0
3000f1ac:	e1a01003 	mov	r1, r3
3000f1b0:	0a000036 	beq	3000f290 <inflateInit2_+0xf4>
3000f1b4:	e5d23000 	ldrb	r3, [r2]
3000f1b8:	e351003c 	cmp	r1, #60	; 0x3c
3000f1bc:	03530031 	cmpeq	r3, #49	; 0x31
3000f1c0:	03a02000 	moveq	r2, #0	; 0x0
3000f1c4:	13a02001 	movne	r2, #1	; 0x1
3000f1c8:	1a000030 	bne	3000f290 <inflateInit2_+0xf4>
3000f1cc:	e3500000 	cmp	r0, #0	; 0x0
3000f1d0:	0a000026 	beq	3000f270 <inflateInit2_+0xd4>
3000f1d4:	e5903020 	ldr	r3, [r0, #32]
3000f1d8:	e3530000 	cmp	r3, #0	; 0x0
3000f1dc:	05803028 	streq	r3, [r0, #40]
3000f1e0:	059f30b0 	ldreq	r3, [pc, #176]	; 3000f298 <inflateInit2_+0xfc>
3000f1e4:	05803020 	streq	r3, [r0, #32]
3000f1e8:	e5903024 	ldr	r3, [r0, #36]
3000f1ec:	e3530000 	cmp	r3, #0	; 0x0
3000f1f0:	059f30a4 	ldreq	r3, [pc, #164]	; 3000f29c <inflateInit2_+0x100>
3000f1f4:	e5802018 	str	r2, [r0, #24]
3000f1f8:	05803024 	streq	r3, [r0, #36]
3000f1fc:	e3a01001 	mov	r1, #1	; 0x1
3000f200:	e5900028 	ldr	r0, [r0, #40]
3000f204:	e59f2094 	ldr	r2, [pc, #148]	; 3000f2a0 <inflateInit2_+0x104>
3000f208:	e1a0e00f 	mov	lr, pc
3000f20c:	e594f020 	ldr	pc, [r4, #32]
3000f210:	e3500000 	cmp	r0, #0	; 0x0
3000f214:	03e00003 	mvneq	r0, #3	; 0x3
3000f218:	08bd8070 	popeq	{r4, r5, r6, pc}
3000f21c:	e3550000 	cmp	r5, #0	; 0x0
3000f220:	b3a03000 	movlt	r3, #0	; 0x0
3000f224:	e584001c 	str	r0, [r4, #28]
3000f228:	b5803008 	strlt	r3, [r0, #8]
3000f22c:	b2655000 	rsblt	r5, r5, #0	; 0x0
3000f230:	ba000004 	blt	3000f248 <inflateInit2_+0xac>
3000f234:	e1a03245 	asr	r3, r5, #4
3000f238:	e2833001 	add	r3, r3, #1	; 0x1
3000f23c:	e355002f 	cmp	r5, #47	; 0x2f
3000f240:	e5803008 	str	r3, [r0, #8]
3000f244:	d205500f 	andle	r5, r5, #15	; 0xf
3000f248:	e2453008 	sub	r3, r5, #8	; 0x8
3000f24c:	e3530007 	cmp	r3, #7	; 0x7
3000f250:	9a000008 	bls	3000f278 <inflateInit2_+0xdc>
3000f254:	e1a01000 	mov	r1, r0
3000f258:	e3a02000 	mov	r2, #0	; 0x0
3000f25c:	e5940028 	ldr	r0, [r4, #40]
3000f260:	e1a0e00f 	mov	lr, pc
3000f264:	e594f024 	ldr	pc, [r4, #36]
3000f268:	e3a03000 	mov	r3, #0	; 0x0
3000f26c:	e584301c 	str	r3, [r4, #28]
3000f270:	e3e00001 	mvn	r0, #1	; 0x1
3000f274:	e8bd8070 	pop	{r4, r5, r6, pc}
3000f278:	e3a03000 	mov	r3, #0	; 0x0
3000f27c:	e5803034 	str	r3, [r0, #52]
3000f280:	e5805024 	str	r5, [r0, #36]
3000f284:	e1a00004 	mov	r0, r4
3000f288:	e8bd4070 	pop	{r4, r5, r6, lr}
3000f28c:	eaffff9a 	b	3000f0fc <inflateReset>
3000f290:	e3e00005 	mvn	r0, #5	; 0x5
3000f294:	e8bd8070 	pop	{r4, r5, r6, pc}
3000f298:	3000f680 	.word	0x3000f680
3000f29c:	3000f678 	.word	0x3000f678
3000f2a0:	00002530 	.word	0x00002530

3000f2a4 <inflateInit_>:
3000f2a4:	e1a03002 	mov	r3, r2
3000f2a8:	e1a02001 	mov	r2, r1
3000f2ac:	e3a0100f 	mov	r1, #15	; 0xf
3000f2b0:	eaffffb9 	b	3000f19c <inflateInit2_>

3000f2b4 <inflateEnd>:
3000f2b4:	e92d4070 	push	{r4, r5, r6, lr}
3000f2b8:	e2504000 	subs	r4, r0, #0	; 0x0
3000f2bc:	0a00001c 	beq	3000f334 <inflateEnd+0x80>
3000f2c0:	e594501c 	ldr	r5, [r4, #28]
3000f2c4:	e3550000 	cmp	r5, #0	; 0x0
3000f2c8:	0a000019 	beq	3000f334 <inflateEnd+0x80>
3000f2cc:	e5943024 	ldr	r3, [r4, #36]
3000f2d0:	e3530000 	cmp	r3, #0	; 0x0
3000f2d4:	0a000016 	beq	3000f334 <inflateEnd+0x80>
3000f2d8:	e5953034 	ldr	r3, [r5, #52]
3000f2dc:	e3530000 	cmp	r3, #0	; 0x0
3000f2e0:	0a00000a 	beq	3000f310 <inflateEnd+0x5c>
3000f2e4:	e5943030 	ldr	r3, [r4, #48]
3000f2e8:	e3530000 	cmp	r3, #0	; 0x0
3000f2ec:	13a00000 	movne	r0, #0	; 0x0
3000f2f0:	11a01000 	movne	r1, r0
3000f2f4:	11a0e00f 	movne	lr, pc
3000f2f8:	11a0f003 	movne	pc, r3
3000f2fc:	e5951034 	ldr	r1, [r5, #52]
3000f300:	e5940028 	ldr	r0, [r4, #40]
3000f304:	e3a02000 	mov	r2, #0	; 0x0
3000f308:	e1a0e00f 	mov	lr, pc
3000f30c:	e594f024 	ldr	pc, [r4, #36]
3000f310:	e5940028 	ldr	r0, [r4, #40]
3000f314:	e594101c 	ldr	r1, [r4, #28]
3000f318:	e3a02000 	mov	r2, #0	; 0x0
3000f31c:	e1a0e00f 	mov	lr, pc
3000f320:	e594f024 	ldr	pc, [r4, #36]
3000f324:	e3a03000 	mov	r3, #0	; 0x0
3000f328:	e584301c 	str	r3, [r4, #28]
3000f32c:	e1a00003 	mov	r0, r3
3000f330:	e8bd8070 	pop	{r4, r5, r6, pc}
3000f334:	e3e00001 	mvn	r0, #1	; 0x1
3000f338:	e8bd8070 	pop	{r4, r5, r6, pc}

3000f33c <adler32>:
3000f33c:	e92d47f0 	push	{r4, r5, r6, r7, r8, r9, sl, lr}
3000f340:	e3520001 	cmp	r2, #1	; 0x1
3000f344:	e1a05800 	lsl	r5, r0, #16
3000f348:	e1a07002 	mov	r7, r2
3000f34c:	e1a09001 	mov	r9, r1
3000f350:	e1a05825 	lsr	r5, r5, #16
3000f354:	e1a06820 	lsr	r6, r0, #16
3000f358:	1a00000c 	bne	3000f390 <adler32+0x54>
3000f35c:	e5d13000 	ldrb	r3, [r1]
3000f360:	e0831005 	add	r1, r3, r5
3000f364:	e59f32f8 	ldr	r3, [pc, #760]	; 3000f664 <adler32+0x328>
3000f368:	e1510003 	cmp	r1, r3
3000f36c:	82411cff 	subhi	r1, r1, #65280	; 0xff00
3000f370:	824110f1 	subhi	r1, r1, #241	; 0xf1
3000f374:	e59f32e8 	ldr	r3, [pc, #744]	; 3000f664 <adler32+0x328>
3000f378:	e0810006 	add	r0, r1, r6
3000f37c:	e1500003 	cmp	r0, r3
3000f380:	82400cff 	subhi	r0, r0, #65280	; 0xff00
3000f384:	824000f1 	subhi	r0, r0, #241	; 0xf1
3000f388:	e1810800 	orr	r0, r1, r0, lsl #16
3000f38c:	e8bd87f0 	pop	{r4, r5, r6, r7, r8, r9, sl, pc}
3000f390:	e3510000 	cmp	r1, #0	; 0x0
3000f394:	03a00001 	moveq	r0, #1	; 0x1
3000f398:	08bd87f0 	popeq	{r4, r5, r6, r7, r8, r9, sl, pc}
3000f39c:	e352000f 	cmp	r2, #15	; 0xf
3000f3a0:	81a0a001 	movhi	sl, r1
3000f3a4:	81a04002 	movhi	r4, r2
3000f3a8:	93a02000 	movls	r2, #0	; 0x0
3000f3ac:	9a000004 	bls	3000f3c4 <adler32+0x88>
3000f3b0:	ea000050 	b	3000f4f8 <adler32+0x1bc>
3000f3b4:	e7d93002 	ldrb	r3, [r9, r2]
3000f3b8:	e0855003 	add	r5, r5, r3
3000f3bc:	e0866005 	add	r6, r6, r5
3000f3c0:	e2822001 	add	r2, r2, #1	; 0x1
3000f3c4:	e3570000 	cmp	r7, #0	; 0x0
3000f3c8:	e2477001 	sub	r7, r7, #1	; 0x1
3000f3cc:	1afffff8 	bne	3000f3b4 <adler32+0x78>
3000f3d0:	e59f328c 	ldr	r3, [pc, #652]	; 3000f664 <adler32+0x328>
3000f3d4:	e1550003 	cmp	r5, r3
3000f3d8:	82455cff 	subhi	r5, r5, #65280	; 0xff00
3000f3dc:	e1a00006 	mov	r0, r6
3000f3e0:	e59f1280 	ldr	r1, [pc, #640]	; 3000f668 <adler32+0x32c>
3000f3e4:	824550f1 	subhi	r5, r5, #241	; 0xf1
3000f3e8:	eb001a34 	bl	30015cc0 <__aeabi_uidivmod>
3000f3ec:	e1850801 	orr	r0, r5, r1, lsl #16
3000f3f0:	e8bd87f0 	pop	{r4, r5, r6, r7, r8, r9, sl, pc}
3000f3f4:	e59fe270 	ldr	lr, [pc, #624]	; 3000f66c <adler32+0x330>
3000f3f8:	e1a0c00a 	mov	ip, sl
3000f3fc:	e5dc3000 	ldrb	r3, [ip]
3000f400:	e5dc1001 	ldrb	r1, [ip, #1]
3000f404:	e0853003 	add	r3, r5, r3
3000f408:	e5dc0002 	ldrb	r0, [ip, #2]
3000f40c:	e0832006 	add	r2, r3, r6
3000f410:	e0833001 	add	r3, r3, r1
3000f414:	e5dc1003 	ldrb	r1, [ip, #3]
3000f418:	e0822003 	add	r2, r2, r3
3000f41c:	e0833000 	add	r3, r3, r0
3000f420:	e5dc0004 	ldrb	r0, [ip, #4]
3000f424:	e0822003 	add	r2, r2, r3
3000f428:	e0833001 	add	r3, r3, r1
3000f42c:	e5dc1005 	ldrb	r1, [ip, #5]
3000f430:	e0822003 	add	r2, r2, r3
3000f434:	e0833000 	add	r3, r3, r0
3000f438:	e5dc0006 	ldrb	r0, [ip, #6]
3000f43c:	e0822003 	add	r2, r2, r3
3000f440:	e0833001 	add	r3, r3, r1
3000f444:	e5dc1007 	ldrb	r1, [ip, #7]
3000f448:	e0822003 	add	r2, r2, r3
3000f44c:	e0833000 	add	r3, r3, r0
3000f450:	e5dc0008 	ldrb	r0, [ip, #8]
3000f454:	e0822003 	add	r2, r2, r3
3000f458:	e0833001 	add	r3, r3, r1
3000f45c:	e5dc1009 	ldrb	r1, [ip, #9]
3000f460:	e0822003 	add	r2, r2, r3
3000f464:	e0833000 	add	r3, r3, r0
3000f468:	e5dc000a 	ldrb	r0, [ip, #10]
3000f46c:	e0822003 	add	r2, r2, r3
3000f470:	e0833001 	add	r3, r3, r1
3000f474:	e5dc100b 	ldrb	r1, [ip, #11]
3000f478:	e0822003 	add	r2, r2, r3
3000f47c:	e0833000 	add	r3, r3, r0
3000f480:	e5dc000c 	ldrb	r0, [ip, #12]
3000f484:	e0822003 	add	r2, r2, r3
3000f488:	e0833001 	add	r3, r3, r1
3000f48c:	e5dc100d 	ldrb	r1, [ip, #13]
3000f490:	e0822003 	add	r2, r2, r3
3000f494:	e0833000 	add	r3, r3, r0
3000f498:	e5dc000e 	ldrb	r0, [ip, #14]
3000f49c:	e0822003 	add	r2, r2, r3
3000f4a0:	e0833001 	add	r3, r3, r1
3000f4a4:	e5dc100f 	ldrb	r1, [ip, #15]
3000f4a8:	e0822003 	add	r2, r2, r3
3000f4ac:	e0833000 	add	r3, r3, r0
3000f4b0:	e0822003 	add	r2, r2, r3
3000f4b4:	e0835001 	add	r5, r3, r1
3000f4b8:	e25ee001 	subs	lr, lr, #1	; 0x1
3000f4bc:	e0826005 	add	r6, r2, r5
3000f4c0:	e28cc010 	add	ip, ip, #16	; 0x10
3000f4c4:	1affffcc 	bne	3000f3fc <adler32+0xc0>
3000f4c8:	e1a00005 	mov	r0, r5
3000f4cc:	e59f1194 	ldr	r1, [pc, #404]	; 3000f668 <adler32+0x32c>
3000f4d0:	eb0019fa 	bl	30015cc0 <__aeabi_uidivmod>
3000f4d4:	e1a00006 	mov	r0, r6
3000f4d8:	e1a05001 	mov	r5, r1
3000f4dc:	e59f1184 	ldr	r1, [pc, #388]	; 3000f668 <adler32+0x32c>
3000f4e0:	eb0019f6 	bl	30015cc0 <__aeabi_uidivmod>
3000f4e4:	e28aad56 	add	sl, sl, #5504	; 0x1580
3000f4e8:	e2444d56 	sub	r4, r4, #5504	; 0x1580
3000f4ec:	e28aa030 	add	sl, sl, #48	; 0x30
3000f4f0:	e2444030 	sub	r4, r4, #48	; 0x30
3000f4f4:	e1a06001 	mov	r6, r1
3000f4f8:	e59f3170 	ldr	r3, [pc, #368]	; 3000f670 <adler32+0x334>
3000f4fc:	e1540003 	cmp	r4, r3
3000f500:	8affffbb 	bhi	3000f3f4 <adler32+0xb8>
3000f504:	e59f4168 	ldr	r4, [pc, #360]	; 3000f674 <adler32+0x338>
3000f508:	e1a00007 	mov	r0, r7
3000f50c:	e1a01004 	mov	r1, r4
3000f510:	eb0019ea 	bl	30015cc0 <__aeabi_uidivmod>
3000f514:	e1a00007 	mov	r0, r7
3000f518:	e1a0a001 	mov	sl, r1
3000f51c:	e1a01004 	mov	r1, r4
3000f520:	eb00196b 	bl	30015ad4 <__aeabi_uidiv>
3000f524:	e0279094 	mla	r7, r4, r0, r9
3000f528:	e35a0000 	cmp	sl, #0	; 0x0
3000f52c:	11a0c007 	movne	ip, r7
3000f530:	11a0e00a 	movne	lr, sl
3000f534:	1a000030 	bne	3000f5fc <adler32+0x2c0>
3000f538:	ea000047 	b	3000f65c <adler32+0x320>
3000f53c:	e55c3010 	ldrb	r3, [ip, #-16]
3000f540:	e55c100f 	ldrb	r1, [ip, #-15]
3000f544:	e0853003 	add	r3, r5, r3
3000f548:	e55c000e 	ldrb	r0, [ip, #-14]
3000f54c:	e0832006 	add	r2, r3, r6
3000f550:	e0833001 	add	r3, r3, r1
3000f554:	e55c100d 	ldrb	r1, [ip, #-13]
3000f558:	e0822003 	add	r2, r2, r3
3000f55c:	e0833000 	add	r3, r3, r0
3000f560:	e55c000c 	ldrb	r0, [ip, #-12]
3000f564:	e0822003 	add	r2, r2, r3
3000f568:	e0833001 	add	r3, r3, r1
3000f56c:	e55c100b 	ldrb	r1, [ip, #-11]
3000f570:	e0822003 	add	r2, r2, r3
3000f574:	e0833000 	add	r3, r3, r0
3000f578:	e55c000a 	ldrb	r0, [ip, #-10]
3000f57c:	e0822003 	add	r2, r2, r3
3000f580:	e0833001 	add	r3, r3, r1
3000f584:	e55c1009 	ldrb	r1, [ip, #-9]
3000f588:	e0822003 	add	r2, r2, r3
3000f58c:	e0833000 	add	r3, r3, r0
3000f590:	e55c0008 	ldrb	r0, [ip, #-8]
3000f594:	e0822003 	add	r2, r2, r3
3000f598:	e0833001 	add	r3, r3, r1
3000f59c:	e55c1007 	ldrb	r1, [ip, #-7]
3000f5a0:	e0822003 	add	r2, r2, r3
3000f5a4:	e0833000 	add	r3, r3, r0
3000f5a8:	e55c0006 	ldrb	r0, [ip, #-6]
3000f5ac:	e0822003 	add	r2, r2, r3
3000f5b0:	e0833001 	add	r3, r3, r1
3000f5b4:	e55c1005 	ldrb	r1, [ip, #-5]
3000f5b8:	e0822003 	add	r2, r2, r3
3000f5bc:	e0833000 	add	r3, r3, r0
3000f5c0:	e55c0004 	ldrb	r0, [ip, #-4]
3000f5c4:	e0822003 	add	r2, r2, r3
3000f5c8:	e0833001 	add	r3, r3, r1
3000f5cc:	e55c1003 	ldrb	r1, [ip, #-3]
3000f5d0:	e0822003 	add	r2, r2, r3
3000f5d4:	e0833000 	add	r3, r3, r0
3000f5d8:	e55c0002 	ldrb	r0, [ip, #-2]
3000f5dc:	e0822003 	add	r2, r2, r3
3000f5e0:	e0833001 	add	r3, r3, r1
3000f5e4:	e55c1001 	ldrb	r1, [ip, #-1]
3000f5e8:	e0822003 	add	r2, r2, r3
3000f5ec:	e0833000 	add	r3, r3, r0
3000f5f0:	e0822003 	add	r2, r2, r3
3000f5f4:	e0835001 	add	r5, r3, r1
3000f5f8:	e0826005 	add	r6, r2, r5
3000f5fc:	e35e000f 	cmp	lr, #15	; 0xf
3000f600:	e28cc010 	add	ip, ip, #16	; 0x10
3000f604:	e24ee010 	sub	lr, lr, #16	; 0x10
3000f608:	8affffcb 	bhi	3000f53c <adler32+0x200>
3000f60c:	e3ca300f 	bic	r3, sl, #15	; 0xf
3000f610:	e0870003 	add	r0, r7, r3
3000f614:	e20a100f 	and	r1, sl, #15	; 0xf
3000f618:	e3a02000 	mov	r2, #0	; 0x0
3000f61c:	ea000003 	b	3000f630 <adler32+0x2f4>
3000f620:	e7d03002 	ldrb	r3, [r0, r2]
3000f624:	e0855003 	add	r5, r5, r3
3000f628:	e0866005 	add	r6, r6, r5
3000f62c:	e2822001 	add	r2, r2, #1	; 0x1
3000f630:	e3510000 	cmp	r1, #0	; 0x0
3000f634:	e2411001 	sub	r1, r1, #1	; 0x1
3000f638:	1afffff8 	bne	3000f620 <adler32+0x2e4>
3000f63c:	e1a00005 	mov	r0, r5
3000f640:	e59f1020 	ldr	r1, [pc, #32]	; 3000f668 <adler32+0x32c>
3000f644:	eb00199d 	bl	30015cc0 <__aeabi_uidivmod>
3000f648:	e1a00006 	mov	r0, r6
3000f64c:	e1a05001 	mov	r5, r1
3000f650:	e59f1010 	ldr	r1, [pc, #16]	; 3000f668 <adler32+0x32c>
3000f654:	eb001999 	bl	30015cc0 <__aeabi_uidivmod>
3000f658:	e1a06001 	mov	r6, r1
3000f65c:	e1850806 	orr	r0, r5, r6, lsl #16
3000f660:	e8bd87f0 	pop	{r4, r5, r6, r7, r8, r9, sl, pc}
3000f664:	0000fff0 	.word	0x0000fff0
3000f668:	0000fff1 	.word	0x0000fff1
3000f66c:	0000015b 	.word	0x0000015b
3000f670:	000015af 	.word	0x000015af
3000f674:	000015b0 	.word	0x000015b0

3000f678 <zcfree>:
3000f678:	e1a00001 	mov	r0, r1
3000f67c:	eaffdc0e 	b	300066bc <free>

3000f680 <zcalloc>:
3000f680:	e0000291 	mul	r0, r1, r2
3000f684:	eaffdc9c 	b	300068fc <malloc>

3000f688 <inflate>:
3000f688:	e92d4ef0 	push	{r4, r5, r6, r7, r9, sl, fp, lr}
3000f68c:	e250b000 	subs	fp, r0, #0	; 0x0
3000f690:	e24dd058 	sub	sp, sp, #88	; 0x58
3000f694:	e58d1008 	str	r1, [sp, #8]
3000f698:	0a0005c6 	beq	30010db8 <inflate+0x1730>
3000f69c:	e59b501c 	ldr	r5, [fp, #28]
3000f6a0:	e3550000 	cmp	r5, #0	; 0x0
3000f6a4:	0a0005c3 	beq	30010db8 <inflate+0x1730>
3000f6a8:	e59b3000 	ldr	r3, [fp]
3000f6ac:	e3530000 	cmp	r3, #0	; 0x0
3000f6b0:	1a000002 	bne	3000f6c0 <inflate+0x38>
3000f6b4:	e59b3004 	ldr	r3, [fp, #4]
3000f6b8:	e3530000 	cmp	r3, #0	; 0x0
3000f6bc:	1a0005bd 	bne	30010db8 <inflate+0x1730>
3000f6c0:	e5953000 	ldr	r3, [r5]
3000f6c4:	e59b0010 	ldr	r0, [fp, #16]
3000f6c8:	e353000b 	cmp	r3, #11	; 0xb
3000f6cc:	02833001 	addeq	r3, r3, #1	; 0x1
3000f6d0:	e59b1004 	ldr	r1, [fp, #4]
3000f6d4:	e58d0034 	str	r0, [sp, #52]
3000f6d8:	e59b200c 	ldr	r2, [fp, #12]
3000f6dc:	e2850070 	add	r0, r5, #112	; 0x70
3000f6e0:	05853000 	streq	r3, [r5]
3000f6e4:	e59b3000 	ldr	r3, [fp]
3000f6e8:	e58d1040 	str	r1, [sp, #64]
3000f6ec:	e285ce53 	add	ip, r5, #1328	; 0x530
3000f6f0:	e285106c 	add	r1, r5, #108	; 0x6c
3000f6f4:	e58d0010 	str	r0, [sp, #16]
3000f6f8:	e59d0034 	ldr	r0, [sp, #52]
3000f6fc:	e58d2030 	str	r2, [sp, #48]
3000f700:	e58d302c 	str	r3, [sp, #44]
3000f704:	e58dc00c 	str	ip, [sp, #12]
3000f708:	e58d1014 	str	r1, [sp, #20]
3000f70c:	e2852054 	add	r2, r5, #84	; 0x54
3000f710:	e2853e2f 	add	r3, r5, #752	; 0x2f0
3000f714:	e285c058 	add	ip, r5, #88	; 0x58
3000f718:	e3a01000 	mov	r1, #0	; 0x0
3000f71c:	e2856038 	add	r6, r5, #56	; 0x38
3000f720:	e89600c0 	ldm	r6, {r6, r7}
3000f724:	e58d2018 	str	r2, [sp, #24]
3000f728:	e58d301c 	str	r3, [sp, #28]
3000f72c:	e58dc024 	str	ip, [sp, #36]
3000f730:	e59da040 	ldr	sl, [sp, #64]
3000f734:	e58d0038 	str	r0, [sp, #56]
3000f738:	e58d103c 	str	r1, [sp, #60]
3000f73c:	e5953000 	ldr	r3, [r5]
3000f740:	e353001c 	cmp	r3, #28	; 0x1c
3000f744:	979ff103 	ldrls	pc, [pc, r3, lsl #2]
3000f748:	ea00059a 	b	30010db8 <inflate+0x1730>
3000f74c:	3000f7f0 	.word	0x3000f7f0
3000f750:	3000f7e8 	.word	0x3000f7e8
3000f754:	3000f9fc 	.word	0x3000f9fc
3000f758:	3000fa84 	.word	0x3000fa84
3000f75c:	3000fb08 	.word	0x3000fb08
3000f760:	3000fba4 	.word	0x3000fba4
3000f764:	3000fc60 	.word	0x3000fc60
3000f768:	3000fd18 	.word	0x3000fd18
3000f76c:	3000fdc8 	.word	0x3000fdc8
3000f770:	3000f7e0 	.word	0x3000f7e0
3000f774:	3000feb8 	.word	0x3000feb8
3000f778:	3000ff14 	.word	0x3000ff14
3000f77c:	3000ff20 	.word	0x3000ff20
3000f780:	3000fff4 	.word	0x3000fff4
3000f784:	30010060 	.word	0x30010060
3000f788:	3000f7d8 	.word	0x3000f7d8
3000f78c:	300101bc 	.word	0x300101bc
3000f790:	3001044c 	.word	0x3001044c
3000f794:	3001050c 	.word	0x3001050c
3000f798:	300106a8 	.word	0x300106a8
3000f79c:	3001070c 	.word	0x3001070c
3000f7a0:	30010860 	.word	0x30010860
3000f7a4:	300108e8 	.word	0x300108e8
3000f7a8:	300109a0 	.word	0x300109a0
3000f7ac:	300109d0 	.word	0x300109d0
3000f7b0:	30010adc 	.word	0x30010adc
3000f7b4:	3000f7c0 	.word	0x3000f7c0
3000f7b8:	30010b50 	.word	0x30010b50
3000f7bc:	3000f7cc 	.word	0x3000f7cc
3000f7c0:	e3a02001 	mov	r2, #1	; 0x1
3000f7c4:	e58d203c 	str	r2, [sp, #60]
3000f7c8:	ea0004e2 	b	30010b58 <inflate+0x14d0>
3000f7cc:	e3e03003 	mvn	r3, #3	; 0x3
3000f7d0:	e58d303c 	str	r3, [sp, #60]
3000f7d4:	ea000579 	b	30010dc0 <inflate+0x1738>
3000f7d8:	e59d202c 	ldr	r2, [sp, #44]
3000f7dc:	ea000243 	b	300100f0 <inflate+0xa68>
3000f7e0:	e59d202c 	ldr	r2, [sp, #44]
3000f7e4:	ea0001a3 	b	3000fe78 <inflate+0x7f0>
3000f7e8:	e59d202c 	ldr	r2, [sp, #44]
3000f7ec:	ea000062 	b	3000f97c <inflate+0x2f4>
3000f7f0:	e5951008 	ldr	r1, [r5, #8]
3000f7f4:	e3510000 	cmp	r1, #0	; 0x0
3000f7f8:	159d202c 	ldrne	r2, [sp, #44]
3000f7fc:	03a0300c 	moveq	r3, #12	; 0xc
3000f800:	0a000035 	beq	3000f8dc <inflate+0x254>
3000f804:	ea000006 	b	3000f824 <inflate+0x19c>
3000f808:	e35a0000 	cmp	sl, #0	; 0x0
3000f80c:	e2822001 	add	r2, r2, #1	; 0x1
3000f810:	0a0004d0 	beq	30010b58 <inflate+0x14d0>
3000f814:	e5523001 	ldrb	r3, [r2, #-1]
3000f818:	e24aa001 	sub	sl, sl, #1	; 0x1
3000f81c:	e0866713 	add	r6, r6, r3, lsl r7
3000f820:	e2877008 	add	r7, r7, #8	; 0x8
3000f824:	e357000f 	cmp	r7, #15	; 0xf
3000f828:	e58d202c 	str	r2, [sp, #44]
3000f82c:	9afffff5 	bls	3000f808 <inflate+0x180>
3000f830:	e59f3f2c 	ldr	r3, [pc, #3884]	; 30010764 <inflate+0x10dc>
3000f834:	e1560003 	cmp	r6, r3
3000f838:	13a03000 	movne	r3, #0	; 0x0
3000f83c:	03a03001 	moveq	r3, #1	; 0x1
3000f840:	e01330a1 	ands	r3, r3, r1, lsr #1
3000f844:	0a000011 	beq	3000f890 <inflate+0x208>
3000f848:	e3a00000 	mov	r0, #0	; 0x0
3000f84c:	e1a01000 	mov	r1, r0
3000f850:	e1a02000 	mov	r2, r0
3000f854:	ebfff3f5 	bl	3000c830 <crc32>
3000f858:	e3a0301f 	mov	r3, #31	; 0x1f
3000f85c:	e5850018 	str	r0, [r5, #24]
3000f860:	e5cd3054 	strb	r3, [sp, #84]
3000f864:	e3e03074 	mvn	r3, #116	; 0x74
3000f868:	e5cd3055 	strb	r3, [sp, #85]
3000f86c:	e28d1054 	add	r1, sp, #84	; 0x54
3000f870:	e5950018 	ldr	r0, [r5, #24]
3000f874:	e3a02002 	mov	r2, #2	; 0x2
3000f878:	ebfff3ec 	bl	3000c830 <crc32>
3000f87c:	e3a03001 	mov	r3, #1	; 0x1
3000f880:	e3a06000 	mov	r6, #0	; 0x0
3000f884:	e5850018 	str	r0, [r5, #24]
3000f888:	e5853000 	str	r3, [r5]
3000f88c:	ea000031 	b	3000f958 <inflate+0x2d0>
3000f890:	e5952020 	ldr	r2, [r5, #32]
3000f894:	e3520000 	cmp	r2, #0	; 0x0
3000f898:	e5853010 	str	r3, [r5, #16]
3000f89c:	13e03000 	mvnne	r3, #0	; 0x0
3000f8a0:	15823030 	strne	r3, [r2, #48]
3000f8a4:	e5953008 	ldr	r3, [r5, #8]
3000f8a8:	e3130001 	tst	r3, #1	; 0x1
3000f8ac:	0a000007 	beq	3000f8d0 <inflate+0x248>
3000f8b0:	e1a00406 	lsl	r0, r6, #8
3000f8b4:	e1a00800 	lsl	r0, r0, #16
3000f8b8:	e1a00820 	lsr	r0, r0, #16
3000f8bc:	e0800426 	add	r0, r0, r6, lsr #8
3000f8c0:	e3a0101f 	mov	r1, #31	; 0x1f
3000f8c4:	eb0018fd 	bl	30015cc0 <__aeabi_uidivmod>
3000f8c8:	e2514000 	subs	r4, r1, #0	; 0x0
3000f8cc:	0a000004 	beq	3000f8e4 <inflate+0x25c>
3000f8d0:	e59f3e90 	ldr	r3, [pc, #3728]	; 30010768 <inflate+0x10e0>
3000f8d4:	e58b3018 	str	r3, [fp, #24]
3000f8d8:	e3a0301b 	mov	r3, #27	; 0x1b
3000f8dc:	e5853000 	str	r3, [r5]
3000f8e0:	eaffff95 	b	3000f73c <inflate+0xb4>
3000f8e4:	e206300f 	and	r3, r6, #15	; 0xf
3000f8e8:	e3530008 	cmp	r3, #8	; 0x8
3000f8ec:	1a000029 	bne	3000f998 <inflate+0x310>
3000f8f0:	e1a06226 	lsr	r6, r6, #4
3000f8f4:	e206300f 	and	r3, r6, #15	; 0xf
3000f8f8:	e5952024 	ldr	r2, [r5, #36]
3000f8fc:	e2831008 	add	r1, r3, #8	; 0x8
3000f900:	e1510002 	cmp	r1, r2
3000f904:	9a000005 	bls	3000f920 <inflate+0x298>
3000f908:	e59f3e5c 	ldr	r3, [pc, #3676]	; 3001076c <inflate+0x10e4>
3000f90c:	e58b3018 	str	r3, [fp, #24]
3000f910:	e3a0301b 	mov	r3, #27	; 0x1b
3000f914:	e5853000 	str	r3, [r5]
3000f918:	e2477004 	sub	r7, r7, #4	; 0x4
3000f91c:	eaffff86 	b	3000f73c <inflate+0xb4>
3000f920:	e3a03001 	mov	r3, #1	; 0x1
3000f924:	e1a03113 	lsl	r3, r3, r1
3000f928:	e1a00004 	mov	r0, r4
3000f92c:	e5853014 	str	r3, [r5, #20]
3000f930:	e1a01004 	mov	r1, r4
3000f934:	e1a02004 	mov	r2, r4
3000f938:	ebfffe7f 	bl	3000f33c <adler32>
3000f93c:	e3160c02 	tst	r6, #512	; 0x200
3000f940:	13a03009 	movne	r3, #9	; 0x9
3000f944:	03a0300b 	moveq	r3, #11	; 0xb
3000f948:	e5850018 	str	r0, [r5, #24]
3000f94c:	e5853000 	str	r3, [r5]
3000f950:	e58b0034 	str	r0, [fp, #52]
3000f954:	e1a06004 	mov	r6, r4
3000f958:	e1a07006 	mov	r7, r6
3000f95c:	eaffff76 	b	3000f73c <inflate+0xb4>
3000f960:	e35a0000 	cmp	sl, #0	; 0x0
3000f964:	e2822001 	add	r2, r2, #1	; 0x1
3000f968:	0a00047a 	beq	30010b58 <inflate+0x14d0>
3000f96c:	e5523001 	ldrb	r3, [r2, #-1]
3000f970:	e24aa001 	sub	sl, sl, #1	; 0x1
3000f974:	e0866713 	add	r6, r6, r3, lsl r7
3000f978:	e2877008 	add	r7, r7, #8	; 0x8
3000f97c:	e357000f 	cmp	r7, #15	; 0xf
3000f980:	e58d202c 	str	r2, [sp, #44]
3000f984:	9afffff5 	bls	3000f960 <inflate+0x2d8>
3000f988:	e20630ff 	and	r3, r6, #255	; 0xff
3000f98c:	e3530008 	cmp	r3, #8	; 0x8
3000f990:	e5856010 	str	r6, [r5, #16]
3000f994:	0a000001 	beq	3000f9a0 <inflate+0x318>
3000f998:	e59f3dd0 	ldr	r3, [pc, #3536]	; 30010770 <inflate+0x10e8>
3000f99c:	eaffffcc 	b	3000f8d4 <inflate+0x24c>
3000f9a0:	e3160a0e 	tst	r6, #57344	; 0xe000
3000f9a4:	159f3dc8 	ldrne	r3, [pc, #3528]	; 30010774 <inflate+0x10ec>
3000f9a8:	1affffc9 	bne	3000f8d4 <inflate+0x24c>
3000f9ac:	e5952020 	ldr	r2, [r5, #32]
3000f9b0:	e3520000 	cmp	r2, #0	; 0x0
3000f9b4:	11a03426 	lsrne	r3, r6, #8
3000f9b8:	12033001 	andne	r3, r3, #1	; 0x1
3000f9bc:	15823000 	strne	r3, [r2]
3000f9c0:	e5953010 	ldr	r3, [r5, #16]
3000f9c4:	e3130c02 	tst	r3, #512	; 0x200
3000f9c8:	0a000007 	beq	3000f9ec <inflate+0x364>
3000f9cc:	e1a03426 	lsr	r3, r6, #8
3000f9d0:	e5cd3055 	strb	r3, [sp, #85]
3000f9d4:	e5cd6054 	strb	r6, [sp, #84]
3000f9d8:	e28d1054 	add	r1, sp, #84	; 0x54
3000f9dc:	e5950018 	ldr	r0, [r5, #24]
3000f9e0:	e3a02002 	mov	r2, #2	; 0x2
3000f9e4:	ebfff391 	bl	3000c830 <crc32>
3000f9e8:	e5850018 	str	r0, [r5, #24]
3000f9ec:	e3a03002 	mov	r3, #2	; 0x2
3000f9f0:	e3a06000 	mov	r6, #0	; 0x0
3000f9f4:	e5853000 	str	r3, [r5]
3000f9f8:	e1a07006 	mov	r7, r6
3000f9fc:	e59d202c 	ldr	r2, [sp, #44]
3000fa00:	ea000006 	b	3000fa20 <inflate+0x398>
3000fa04:	e35a0000 	cmp	sl, #0	; 0x0
3000fa08:	e2822001 	add	r2, r2, #1	; 0x1
3000fa0c:	0a000451 	beq	30010b58 <inflate+0x14d0>
3000fa10:	e5523001 	ldrb	r3, [r2, #-1]
3000fa14:	e24aa001 	sub	sl, sl, #1	; 0x1
3000fa18:	e0866713 	add	r6, r6, r3, lsl r7
3000fa1c:	e2877008 	add	r7, r7, #8	; 0x8
3000fa20:	e357001f 	cmp	r7, #31	; 0x1f
3000fa24:	e58d202c 	str	r2, [sp, #44]
3000fa28:	9afffff5 	bls	3000fa04 <inflate+0x37c>
3000fa2c:	e5953020 	ldr	r3, [r5, #32]
3000fa30:	e3530000 	cmp	r3, #0	; 0x0
3000fa34:	15836004 	strne	r6, [r3, #4]
3000fa38:	e5953010 	ldr	r3, [r5, #16]
3000fa3c:	e3130c02 	tst	r3, #512	; 0x200
3000fa40:	0a00000b 	beq	3000fa74 <inflate+0x3ec>
3000fa44:	e1a03c26 	lsr	r3, r6, #24
3000fa48:	e1a02426 	lsr	r2, r6, #8
3000fa4c:	e1a01826 	lsr	r1, r6, #16
3000fa50:	e5cd2055 	strb	r2, [sp, #85]
3000fa54:	e5cd1056 	strb	r1, [sp, #86]
3000fa58:	e5cd3057 	strb	r3, [sp, #87]
3000fa5c:	e5cd6054 	strb	r6, [sp, #84]
3000fa60:	e28d1054 	add	r1, sp, #84	; 0x54
3000fa64:	e5950018 	ldr	r0, [r5, #24]
3000fa68:	e3a02004 	mov	r2, #4	; 0x4
3000fa6c:	ebfff36f 	bl	3000c830 <crc32>
3000fa70:	e5850018 	str	r0, [r5, #24]
3000fa74:	e3a03003 	mov	r3, #3	; 0x3
3000fa78:	e3a06000 	mov	r6, #0	; 0x0
3000fa7c:	e5853000 	str	r3, [r5]
3000fa80:	e1a07006 	mov	r7, r6
3000fa84:	e59d202c 	ldr	r2, [sp, #44]
3000fa88:	ea000006 	b	3000faa8 <inflate+0x420>
3000fa8c:	e35a0000 	cmp	sl, #0	; 0x0
3000fa90:	e2822001 	add	r2, r2, #1	; 0x1
3000fa94:	0a00042f 	beq	30010b58 <inflate+0x14d0>
3000fa98:	e5523001 	ldrb	r3, [r2, #-1]
3000fa9c:	e24aa001 	sub	sl, sl, #1	; 0x1
3000faa0:	e0866713 	add	r6, r6, r3, lsl r7
3000faa4:	e2877008 	add	r7, r7, #8	; 0x8
3000faa8:	e357000f 	cmp	r7, #15	; 0xf
3000faac:	e58d202c 	str	r2, [sp, #44]
3000fab0:	9afffff5 	bls	3000fa8c <inflate+0x404>
3000fab4:	e5951020 	ldr	r1, [r5, #32]
3000fab8:	e3510000 	cmp	r1, #0	; 0x0
3000fabc:	11a03426 	lsrne	r3, r6, #8
3000fac0:	120620ff 	andne	r2, r6, #255	; 0xff
3000fac4:	1581300c 	strne	r3, [r1, #12]
3000fac8:	15812008 	strne	r2, [r1, #8]
3000facc:	e5953010 	ldr	r3, [r5, #16]
3000fad0:	e3130c02 	tst	r3, #512	; 0x200
3000fad4:	0a000007 	beq	3000faf8 <inflate+0x470>
3000fad8:	e1a03426 	lsr	r3, r6, #8
3000fadc:	e5cd3055 	strb	r3, [sp, #85]
3000fae0:	e5cd6054 	strb	r6, [sp, #84]
3000fae4:	e28d1054 	add	r1, sp, #84	; 0x54
3000fae8:	e5950018 	ldr	r0, [r5, #24]
3000faec:	e3a02002 	mov	r2, #2	; 0x2
3000faf0:	ebfff34e 	bl	3000c830 <crc32>
3000faf4:	e5850018 	str	r0, [r5, #24]
3000faf8:	e3a03004 	mov	r3, #4	; 0x4
3000fafc:	e3a06000 	mov	r6, #0	; 0x0
3000fb00:	e5853000 	str	r3, [r5]
3000fb04:	e1a07006 	mov	r7, r6
3000fb08:	e5953010 	ldr	r3, [r5, #16]
3000fb0c:	e2133b01 	ands	r3, r3, #1024	; 0x400
3000fb10:	159d202c 	ldrne	r2, [sp, #44]
3000fb14:	1a000007 	bne	3000fb38 <inflate+0x4b0>
3000fb18:	ea00001c 	b	3000fb90 <inflate+0x508>
3000fb1c:	e35a0000 	cmp	sl, #0	; 0x0
3000fb20:	e2822001 	add	r2, r2, #1	; 0x1
3000fb24:	0a00040b 	beq	30010b58 <inflate+0x14d0>
3000fb28:	e5523001 	ldrb	r3, [r2, #-1]
3000fb2c:	e24aa001 	sub	sl, sl, #1	; 0x1
3000fb30:	e0866713 	add	r6, r6, r3, lsl r7
3000fb34:	e2877008 	add	r7, r7, #8	; 0x8
3000fb38:	e357000f 	cmp	r7, #15	; 0xf
3000fb3c:	e58d202c 	str	r2, [sp, #44]
3000fb40:	9afffff5 	bls	3000fb1c <inflate+0x494>
3000fb44:	e5953020 	ldr	r3, [r5, #32]
3000fb48:	e3530000 	cmp	r3, #0	; 0x0
3000fb4c:	e5856040 	str	r6, [r5, #64]
3000fb50:	15836014 	strne	r6, [r3, #20]
3000fb54:	e5953010 	ldr	r3, [r5, #16]
3000fb58:	e2133c02 	ands	r3, r3, #512	; 0x200
3000fb5c:	01a06003 	moveq	r6, r3
3000fb60:	0a000008 	beq	3000fb88 <inflate+0x500>
3000fb64:	e1a03426 	lsr	r3, r6, #8
3000fb68:	e5cd6054 	strb	r6, [sp, #84]
3000fb6c:	e5cd3055 	strb	r3, [sp, #85]
3000fb70:	e28d1054 	add	r1, sp, #84	; 0x54
3000fb74:	e5950018 	ldr	r0, [r5, #24]
3000fb78:	e3a02002 	mov	r2, #2	; 0x2
3000fb7c:	ebfff32b 	bl	3000c830 <crc32>
3000fb80:	e5850018 	str	r0, [r5, #24]
3000fb84:	e3a06000 	mov	r6, #0	; 0x0
3000fb88:	e1a07006 	mov	r7, r6
3000fb8c:	ea000002 	b	3000fb9c <inflate+0x514>
3000fb90:	e5952020 	ldr	r2, [r5, #32]
3000fb94:	e3520000 	cmp	r2, #0	; 0x0
3000fb98:	15823010 	strne	r3, [r2, #16]
3000fb9c:	e3a03005 	mov	r3, #5	; 0x5
3000fba0:	e5853000 	str	r3, [r5]
3000fba4:	e5953010 	ldr	r3, [r5, #16]
3000fba8:	e3130b01 	tst	r3, #1024	; 0x400
3000fbac:	0a000027 	beq	3000fc50 <inflate+0x5c8>
3000fbb0:	e5951040 	ldr	r1, [r5, #64]
3000fbb4:	e15a0001 	cmp	sl, r1
3000fbb8:	31a0400a 	movcc	r4, sl
3000fbbc:	21a04001 	movcs	r4, r1
3000fbc0:	e3540000 	cmp	r4, #0	; 0x0
3000fbc4:	0a00001e 	beq	3000fc44 <inflate+0x5bc>
3000fbc8:	e5952020 	ldr	r2, [r5, #32]
3000fbcc:	e3520000 	cmp	r2, #0	; 0x0
3000fbd0:	0a00000c 	beq	3000fc08 <inflate+0x580>
3000fbd4:	e5920010 	ldr	r0, [r2, #16]
3000fbd8:	e3500000 	cmp	r0, #0	; 0x0
3000fbdc:	0a000009 	beq	3000fc08 <inflate+0x580>
3000fbe0:	e5923014 	ldr	r3, [r2, #20]
3000fbe4:	e5922018 	ldr	r2, [r2, #24]
3000fbe8:	e0611003 	rsb	r1, r1, r3
3000fbec:	e0843001 	add	r3, r4, r1
3000fbf0:	e1530002 	cmp	r3, r2
3000fbf4:	80612002 	rsbhi	r2, r1, r2
3000fbf8:	e0800001 	add	r0, r0, r1
3000fbfc:	91a02004 	movls	r2, r4
3000fc00:	e59d102c 	ldr	r1, [sp, #44]
3000fc04:	ebfff6c1 	bl	3000d710 <memcpy>
3000fc08:	e5953010 	ldr	r3, [r5, #16]
3000fc0c:	e3130c02 	tst	r3, #512	; 0x200
3000fc10:	0a000004 	beq	3000fc28 <inflate+0x5a0>
3000fc14:	e5950018 	ldr	r0, [r5, #24]
3000fc18:	e59d102c 	ldr	r1, [sp, #44]
3000fc1c:	e1a02004 	mov	r2, r4
3000fc20:	ebfff302 	bl	3000c830 <crc32>
3000fc24:	e5850018 	str	r0, [r5, #24]
3000fc28:	e5953040 	ldr	r3, [r5, #64]
3000fc2c:	e59dc02c 	ldr	ip, [sp, #44]
3000fc30:	e0643003 	rsb	r3, r4, r3
3000fc34:	e08cc004 	add	ip, ip, r4
3000fc38:	e5853040 	str	r3, [r5, #64]
3000fc3c:	e58dc02c 	str	ip, [sp, #44]
3000fc40:	e064a00a 	rsb	sl, r4, sl
3000fc44:	e5953040 	ldr	r3, [r5, #64]
3000fc48:	e3530000 	cmp	r3, #0	; 0x0
3000fc4c:	1a0003c1 	bne	30010b58 <inflate+0x14d0>
3000fc50:	e3a03000 	mov	r3, #0	; 0x0
3000fc54:	e5853040 	str	r3, [r5, #64]
3000fc58:	e2833006 	add	r3, r3, #6	; 0x6
3000fc5c:	e5853000 	str	r3, [r5]
3000fc60:	e5953010 	ldr	r3, [r5, #16]
3000fc64:	e2133b02 	ands	r3, r3, #2048	; 0x800
3000fc68:	0a000023 	beq	3000fcfc <inflate+0x674>
3000fc6c:	e35a0000 	cmp	sl, #0	; 0x0
3000fc70:	0a0003b8 	beq	30010b58 <inflate+0x14d0>
3000fc74:	e3a04000 	mov	r4, #0	; 0x0
3000fc78:	e5953020 	ldr	r3, [r5, #32]
3000fc7c:	e59d002c 	ldr	r0, [sp, #44]
3000fc80:	e3530000 	cmp	r3, #0	; 0x0
3000fc84:	e7d09004 	ldrb	r9, [r0, r4]
3000fc88:	e2844001 	add	r4, r4, #1	; 0x1
3000fc8c:	0a000008 	beq	3000fcb4 <inflate+0x62c>
3000fc90:	e593101c 	ldr	r1, [r3, #28]
3000fc94:	e3510000 	cmp	r1, #0	; 0x0
3000fc98:	0a000005 	beq	3000fcb4 <inflate+0x62c>
3000fc9c:	e5933020 	ldr	r3, [r3, #32]
3000fca0:	e5952040 	ldr	r2, [r5, #64]
3000fca4:	e1520003 	cmp	r2, r3
3000fca8:	e2823001 	add	r3, r2, #1	; 0x1
3000fcac:	37c19002 	strbcc	r9, [r1, r2]
3000fcb0:	35853040 	strcc	r3, [r5, #64]
3000fcb4:	e3590000 	cmp	r9, #0	; 0x0
3000fcb8:	1154000a 	cmpne	r4, sl
3000fcbc:	3affffed 	bcc	3000fc78 <inflate+0x5f0>
3000fcc0:	e5953010 	ldr	r3, [r5, #16]
3000fcc4:	e3130c02 	tst	r3, #512	; 0x200
3000fcc8:	0a000004 	beq	3000fce0 <inflate+0x658>
3000fccc:	e5950018 	ldr	r0, [r5, #24]
3000fcd0:	e59d102c 	ldr	r1, [sp, #44]
3000fcd4:	e1a02004 	mov	r2, r4
3000fcd8:	ebfff2d4 	bl	3000c830 <crc32>
3000fcdc:	e5850018 	str	r0, [r5, #24]
3000fce0:	e59d102c 	ldr	r1, [sp, #44]
3000fce4:	e3590000 	cmp	r9, #0	; 0x0
3000fce8:	e0811004 	add	r1, r1, r4
3000fcec:	e58d102c 	str	r1, [sp, #44]
3000fcf0:	e064a00a 	rsb	sl, r4, sl
3000fcf4:	0a000003 	beq	3000fd08 <inflate+0x680>
3000fcf8:	ea000396 	b	30010b58 <inflate+0x14d0>
3000fcfc:	e5952020 	ldr	r2, [r5, #32]
3000fd00:	e3520000 	cmp	r2, #0	; 0x0
3000fd04:	1582301c 	strne	r3, [r2, #28]
3000fd08:	e3a03000 	mov	r3, #0	; 0x0
3000fd0c:	e5853040 	str	r3, [r5, #64]
3000fd10:	e2833007 	add	r3, r3, #7	; 0x7
3000fd14:	e5853000 	str	r3, [r5]
3000fd18:	e5953010 	ldr	r3, [r5, #16]
3000fd1c:	e2133a01 	ands	r3, r3, #4096	; 0x1000
3000fd20:	0a000023 	beq	3000fdb4 <inflate+0x72c>
3000fd24:	e35a0000 	cmp	sl, #0	; 0x0
3000fd28:	0a00038a 	beq	30010b58 <inflate+0x14d0>
3000fd2c:	e3a04000 	mov	r4, #0	; 0x0
3000fd30:	e5953020 	ldr	r3, [r5, #32]
3000fd34:	e59d202c 	ldr	r2, [sp, #44]
3000fd38:	e3530000 	cmp	r3, #0	; 0x0
3000fd3c:	e7d29004 	ldrb	r9, [r2, r4]
3000fd40:	e2844001 	add	r4, r4, #1	; 0x1
3000fd44:	0a000008 	beq	3000fd6c <inflate+0x6e4>
3000fd48:	e5931024 	ldr	r1, [r3, #36]
3000fd4c:	e3510000 	cmp	r1, #0	; 0x0
3000fd50:	0a000005 	beq	3000fd6c <inflate+0x6e4>
3000fd54:	e5933028 	ldr	r3, [r3, #40]
3000fd58:	e5952040 	ldr	r2, [r5, #64]
3000fd5c:	e1520003 	cmp	r2, r3
3000fd60:	e2823001 	add	r3, r2, #1	; 0x1
3000fd64:	37c19002 	strbcc	r9, [r1, r2]
3000fd68:	35853040 	strcc	r3, [r5, #64]
3000fd6c:	e3590000 	cmp	r9, #0	; 0x0
3000fd70:	1154000a 	cmpne	r4, sl
3000fd74:	3affffed 	bcc	3000fd30 <inflate+0x6a8>
3000fd78:	e5953010 	ldr	r3, [r5, #16]
3000fd7c:	e3130c02 	tst	r3, #512	; 0x200
3000fd80:	0a000004 	beq	3000fd98 <inflate+0x710>
3000fd84:	e5950018 	ldr	r0, [r5, #24]
3000fd88:	e59d102c 	ldr	r1, [sp, #44]
3000fd8c:	e1a02004 	mov	r2, r4
3000fd90:	ebfff2a6 	bl	3000c830 <crc32>
3000fd94:	e5850018 	str	r0, [r5, #24]
3000fd98:	e59d302c 	ldr	r3, [sp, #44]
3000fd9c:	e3590000 	cmp	r9, #0	; 0x0
3000fda0:	e0833004 	add	r3, r3, r4
3000fda4:	e58d302c 	str	r3, [sp, #44]
3000fda8:	e064a00a 	rsb	sl, r4, sl
3000fdac:	0a000003 	beq	3000fdc0 <inflate+0x738>
3000fdb0:	ea000368 	b	30010b58 <inflate+0x14d0>
3000fdb4:	e5952020 	ldr	r2, [r5, #32]
3000fdb8:	e3520000 	cmp	r2, #0	; 0x0
3000fdbc:	15823024 	strne	r3, [r2, #36]
3000fdc0:	e3a03008 	mov	r3, #8	; 0x8
3000fdc4:	e5853000 	str	r3, [r5]
3000fdc8:	e5950010 	ldr	r0, [r5, #16]
3000fdcc:	e3100c02 	tst	r0, #512	; 0x200
3000fdd0:	159d202c 	ldrne	r2, [sp, #44]
3000fdd4:	1a000007 	bne	3000fdf8 <inflate+0x770>
3000fdd8:	ea00000f 	b	3000fe1c <inflate+0x794>
3000fddc:	e35a0000 	cmp	sl, #0	; 0x0
3000fde0:	e2822001 	add	r2, r2, #1	; 0x1
3000fde4:	0a00035b 	beq	30010b58 <inflate+0x14d0>
3000fde8:	e5523001 	ldrb	r3, [r2, #-1]
3000fdec:	e24aa001 	sub	sl, sl, #1	; 0x1
3000fdf0:	e0866713 	add	r6, r6, r3, lsl r7
3000fdf4:	e2877008 	add	r7, r7, #8	; 0x8
3000fdf8:	e357000f 	cmp	r7, #15	; 0xf
3000fdfc:	e58d202c 	str	r2, [sp, #44]
3000fe00:	9afffff5 	bls	3000fddc <inflate+0x754>
3000fe04:	e1d531b8 	ldrh	r3, [r5, #24]
3000fe08:	e1560003 	cmp	r6, r3
3000fe0c:	159f3964 	ldrne	r3, [pc, #2404]	; 30010778 <inflate+0x10f0>
3000fe10:	1afffeaf 	bne	3000f8d4 <inflate+0x24c>
3000fe14:	e3a06000 	mov	r6, #0	; 0x0
3000fe18:	e1a07006 	mov	r7, r6
3000fe1c:	e5951020 	ldr	r1, [r5, #32]
3000fe20:	e3510000 	cmp	r1, #0	; 0x0
3000fe24:	11a034c0 	asrne	r3, r0, #9
3000fe28:	12033001 	andne	r3, r3, #1	; 0x1
3000fe2c:	13a02001 	movne	r2, #1	; 0x1
3000fe30:	e3a00000 	mov	r0, #0	; 0x0
3000fe34:	15812030 	strne	r2, [r1, #48]
3000fe38:	1581302c 	strne	r3, [r1, #44]
3000fe3c:	e1a02000 	mov	r2, r0
3000fe40:	e1a01000 	mov	r1, r0
3000fe44:	ebfff279 	bl	3000c830 <crc32>
3000fe48:	e3a0300b 	mov	r3, #11	; 0xb
3000fe4c:	e5850018 	str	r0, [r5, #24]
3000fe50:	e5853000 	str	r3, [r5]
3000fe54:	e58b0034 	str	r0, [fp, #52]
3000fe58:	eafffe37 	b	3000f73c <inflate+0xb4>
3000fe5c:	e35a0000 	cmp	sl, #0	; 0x0
3000fe60:	e2822001 	add	r2, r2, #1	; 0x1
3000fe64:	0a00033b 	beq	30010b58 <inflate+0x14d0>
3000fe68:	e5523001 	ldrb	r3, [r2, #-1]
3000fe6c:	e24aa001 	sub	sl, sl, #1	; 0x1
3000fe70:	e0866713 	add	r6, r6, r3, lsl r7
3000fe74:	e2877008 	add	r7, r7, #8	; 0x8
3000fe78:	e357001f 	cmp	r7, #31	; 0x1f
3000fe7c:	e58d202c 	str	r2, [sp, #44]
3000fe80:	9afffff5 	bls	3000fe5c <inflate+0x7d4>
3000fe84:	e1a03c26 	lsr	r3, r6, #24
3000fe88:	e1a02426 	lsr	r2, r6, #8
3000fe8c:	e0833c06 	add	r3, r3, r6, lsl #24
3000fe90:	e2022cff 	and	r2, r2, #65280	; 0xff00
3000fe94:	e0833002 	add	r3, r3, r2
3000fe98:	e2062cff 	and	r2, r6, #65280	; 0xff00
3000fe9c:	e0833402 	add	r3, r3, r2, lsl #8
3000fea0:	e3a0200a 	mov	r2, #10	; 0xa
3000fea4:	e5853018 	str	r3, [r5, #24]
3000fea8:	e3a06000 	mov	r6, #0	; 0x0
3000feac:	e5852000 	str	r2, [r5]
3000feb0:	e58b3034 	str	r3, [fp, #52]
3000feb4:	e1a07006 	mov	r7, r6
3000feb8:	e595300c 	ldr	r3, [r5, #12]
3000febc:	e3530000 	cmp	r3, #0	; 0x0
3000fec0:	1a00000b 	bne	3000fef4 <inflate+0x86c>
3000fec4:	e28d0030 	add	r0, sp, #48	; 0x30
3000fec8:	e8901001 	ldm	r0, {r0, ip}
3000fecc:	e59d102c 	ldr	r1, [sp, #44]
3000fed0:	e3a02002 	mov	r2, #2	; 0x2
3000fed4:	e58ba004 	str	sl, [fp, #4]
3000fed8:	e58bc010 	str	ip, [fp, #16]
3000fedc:	e58b000c 	str	r0, [fp, #12]
3000fee0:	e585703c 	str	r7, [r5, #60]
3000fee4:	e58b1000 	str	r1, [fp]
3000fee8:	e5856038 	str	r6, [r5, #56]
3000feec:	e58d203c 	str	r2, [sp, #60]
3000fef0:	ea0003b2 	b	30010dc0 <inflate+0x1738>
3000fef4:	e3a00000 	mov	r0, #0	; 0x0
3000fef8:	e1a01000 	mov	r1, r0
3000fefc:	e1a02000 	mov	r2, r0
3000ff00:	ebfffd0d 	bl	3000f33c <adler32>
3000ff04:	e3a0300b 	mov	r3, #11	; 0xb
3000ff08:	e5850018 	str	r0, [r5, #24]
3000ff0c:	e5853000 	str	r3, [r5]
3000ff10:	e58b0034 	str	r0, [fp, #52]
3000ff14:	e59d3008 	ldr	r3, [sp, #8]
3000ff18:	e3530005 	cmp	r3, #5	; 0x5
3000ff1c:	0a00030d 	beq	30010b58 <inflate+0x14d0>
3000ff20:	e5953004 	ldr	r3, [r5, #4]
3000ff24:	e3530000 	cmp	r3, #0	; 0x0
3000ff28:	059d202c 	ldreq	r2, [sp, #44]
3000ff2c:	0a00000c 	beq	3000ff64 <inflate+0x8dc>
3000ff30:	e2073007 	and	r3, r7, #7	; 0x7
3000ff34:	e1a06336 	lsr	r6, r6, r3
3000ff38:	e3a03018 	mov	r3, #24	; 0x18
3000ff3c:	e5853000 	str	r3, [r5]
3000ff40:	e3c77007 	bic	r7, r7, #7	; 0x7
3000ff44:	eafffdfc 	b	3000f73c <inflate+0xb4>
3000ff48:	e35a0000 	cmp	sl, #0	; 0x0
3000ff4c:	e2822001 	add	r2, r2, #1	; 0x1
3000ff50:	0a000300 	beq	30010b58 <inflate+0x14d0>
3000ff54:	e5523001 	ldrb	r3, [r2, #-1]
3000ff58:	e24aa001 	sub	sl, sl, #1	; 0x1
3000ff5c:	e0866713 	add	r6, r6, r3, lsl r7
3000ff60:	e2877008 	add	r7, r7, #8	; 0x8
3000ff64:	e3570002 	cmp	r7, #2	; 0x2
3000ff68:	e58d202c 	str	r2, [sp, #44]
3000ff6c:	9afffff5 	bls	3000ff48 <inflate+0x8c0>
3000ff70:	e1a000a6 	lsr	r0, r6, #1
3000ff74:	e2062001 	and	r2, r6, #1	; 0x1
3000ff78:	e2003003 	and	r3, r0, #3	; 0x3
3000ff7c:	e5852004 	str	r2, [r5, #4]
3000ff80:	e3530003 	cmp	r3, #3	; 0x3
3000ff84:	979ff103 	ldrls	pc, [pc, r3, lsl #2]
3000ff88:	ea000016 	b	3000ffe8 <inflate+0x960>
3000ff8c:	3000ff9c 	.word	0x3000ff9c
3000ff90:	3000ffa4 	.word	0x3000ffa4
3000ff94:	3000ffd0 	.word	0x3000ffd0
3000ff98:	3000ffd8 	.word	0x3000ffd8
3000ff9c:	e3a0300d 	mov	r3, #13	; 0xd
3000ffa0:	ea00000f 	b	3000ffe4 <inflate+0x95c>
3000ffa4:	e59f17d0 	ldr	r1, [pc, #2000]	; 3001077c <inflate+0x10f4>
3000ffa8:	e3a03009 	mov	r3, #9	; 0x9
3000ffac:	e5853054 	str	r3, [r5, #84]
3000ffb0:	e3a03005 	mov	r3, #5	; 0x5
3000ffb4:	e2812b02 	add	r2, r1, #2048	; 0x800
3000ffb8:	e5853058 	str	r3, [r5, #88]
3000ffbc:	e283300d 	add	r3, r3, #13	; 0xd
3000ffc0:	e5852050 	str	r2, [r5, #80]
3000ffc4:	e5853000 	str	r3, [r5]
3000ffc8:	e585104c 	str	r1, [r5, #76]
3000ffcc:	ea000005 	b	3000ffe8 <inflate+0x960>
3000ffd0:	e3a0300f 	mov	r3, #15	; 0xf
3000ffd4:	ea000002 	b	3000ffe4 <inflate+0x95c>
3000ffd8:	e59f37a0 	ldr	r3, [pc, #1952]	; 30010780 <inflate+0x10f8>
3000ffdc:	e58b3018 	str	r3, [fp, #24]
3000ffe0:	e3a0301b 	mov	r3, #27	; 0x1b
3000ffe4:	e5853000 	str	r3, [r5]
3000ffe8:	e1a06120 	lsr	r6, r0, #2
3000ffec:	e2477003 	sub	r7, r7, #3	; 0x3
3000fff0:	eafffdd1 	b	3000f73c <inflate+0xb4>
3000fff4:	e2073007 	and	r3, r7, #7	; 0x7
3000fff8:	e1a06336 	lsr	r6, r6, r3
3000fffc:	e3c77007 	bic	r7, r7, #7	; 0x7
30010000:	e59d202c 	ldr	r2, [sp, #44]
30010004:	ea000006 	b	30010024 <inflate+0x99c>
30010008:	e35a0000 	cmp	sl, #0	; 0x0
3001000c:	e2822001 	add	r2, r2, #1	; 0x1
30010010:	0a0002d0 	beq	30010b58 <inflate+0x14d0>
30010014:	e5523001 	ldrb	r3, [r2, #-1]
30010018:	e24aa001 	sub	sl, sl, #1	; 0x1
3001001c:	e0866713 	add	r6, r6, r3, lsl r7
30010020:	e2877008 	add	r7, r7, #8	; 0x8
30010024:	e357001f 	cmp	r7, #31	; 0x1f
30010028:	e58d202c 	str	r2, [sp, #44]
3001002c:	9afffff5 	bls	30010008 <inflate+0x980>
30010030:	e59f374c 	ldr	r3, [pc, #1868]	; 30010784 <inflate+0x10fc>
30010034:	e1a02806 	lsl	r2, r6, #16
30010038:	e0233826 	eor	r3, r3, r6, lsr #16
3001003c:	e1a02822 	lsr	r2, r2, #16
30010040:	e1520003 	cmp	r2, r3
30010044:	159f373c 	ldrne	r3, [pc, #1852]	; 30010788 <inflate+0x1100>
30010048:	1afffe21 	bne	3000f8d4 <inflate+0x24c>
3001004c:	e3a0300e 	mov	r3, #14	; 0xe
30010050:	e3a06000 	mov	r6, #0	; 0x0
30010054:	e5852040 	str	r2, [r5, #64]
30010058:	e5853000 	str	r3, [r5]
3001005c:	e1a07006 	mov	r7, r6
30010060:	e5953040 	ldr	r3, [r5, #64]
30010064:	e3530000 	cmp	r3, #0	; 0x0
30010068:	0a000185 	beq	30010684 <inflate+0xffc>
3001006c:	e59dc034 	ldr	ip, [sp, #52]
30010070:	e15c0003 	cmp	ip, r3
30010074:	31a0300c 	movcc	r3, ip
30010078:	e153000a 	cmp	r3, sl
3001007c:	31a04003 	movcc	r4, r3
30010080:	21a0400a 	movcs	r4, sl
30010084:	e3540000 	cmp	r4, #0	; 0x0
30010088:	0a0002b2 	beq	30010b58 <inflate+0x14d0>
3001008c:	e59d102c 	ldr	r1, [sp, #44]
30010090:	e1a02004 	mov	r2, r4
30010094:	e59d0030 	ldr	r0, [sp, #48]
30010098:	ebfff59c 	bl	3000d710 <memcpy>
3001009c:	e5953040 	ldr	r3, [r5, #64]
300100a0:	e59d002c 	ldr	r0, [sp, #44]
300100a4:	e59d1034 	ldr	r1, [sp, #52]
300100a8:	e59d2030 	ldr	r2, [sp, #48]
300100ac:	e0643003 	rsb	r3, r4, r3
300100b0:	e0800004 	add	r0, r0, r4
300100b4:	e0641001 	rsb	r1, r4, r1
300100b8:	e0822004 	add	r2, r2, r4
300100bc:	e5853040 	str	r3, [r5, #64]
300100c0:	e064a00a 	rsb	sl, r4, sl
300100c4:	e58d002c 	str	r0, [sp, #44]
300100c8:	e58d1034 	str	r1, [sp, #52]
300100cc:	e58d2030 	str	r2, [sp, #48]
300100d0:	eafffd99 	b	3000f73c <inflate+0xb4>
300100d4:	e35a0000 	cmp	sl, #0	; 0x0
300100d8:	e2822001 	add	r2, r2, #1	; 0x1
300100dc:	0a00029d 	beq	30010b58 <inflate+0x14d0>
300100e0:	e5523001 	ldrb	r3, [r2, #-1]
300100e4:	e24aa001 	sub	sl, sl, #1	; 0x1
300100e8:	e0866713 	add	r6, r6, r3, lsl r7
300100ec:	e2877008 	add	r7, r7, #8	; 0x8
300100f0:	e357000d 	cmp	r7, #13	; 0xd
300100f4:	e58d202c 	str	r2, [sp, #44]
300100f8:	9afffff5 	bls	300100d4 <inflate+0xa4c>
300100fc:	e206101f 	and	r1, r6, #31	; 0x1f
30010100:	e1a002a6 	lsr	r0, r6, #5
30010104:	e1a02526 	lsr	r2, r6, #10
30010108:	e2811c01 	add	r1, r1, #256	; 0x100
3001010c:	e59f3678 	ldr	r3, [pc, #1656]	; 3001078c <inflate+0x1104>
30010110:	e2811001 	add	r1, r1, #1	; 0x1
30010114:	e200001f 	and	r0, r0, #31	; 0x1f
30010118:	e202200f 	and	r2, r2, #15	; 0xf
3001011c:	e2800001 	add	r0, r0, #1	; 0x1
30010120:	e2822004 	add	r2, r2, #4	; 0x4
30010124:	e1510003 	cmp	r1, r3
30010128:	e585205c 	str	r2, [r5, #92]
3001012c:	e5851060 	str	r1, [r5, #96]
30010130:	e5850064 	str	r0, [r5, #100]
30010134:	e1a06726 	lsr	r6, r6, #14
30010138:	e247700e 	sub	r7, r7, #14	; 0xe
3001013c:	8a000001 	bhi	30010148 <inflate+0xac0>
30010140:	e350001e 	cmp	r0, #30	; 0x1e
30010144:	9a000001 	bls	30010150 <inflate+0xac8>
30010148:	e59f3640 	ldr	r3, [pc, #1600]	; 30010790 <inflate+0x1108>
3001014c:	eafffde0 	b	3000f8d4 <inflate+0x24c>
30010150:	e3a03000 	mov	r3, #0	; 0x0
30010154:	e5853068 	str	r3, [r5, #104]
30010158:	e2833010 	add	r3, r3, #16	; 0x10
3001015c:	e5853000 	str	r3, [r5]
30010160:	ea000015 	b	300101bc <inflate+0xb34>
30010164:	e35a0000 	cmp	sl, #0	; 0x0
30010168:	e2822001 	add	r2, r2, #1	; 0x1
3001016c:	0a000279 	beq	30010b58 <inflate+0x14d0>
30010170:	e5523001 	ldrb	r3, [r2, #-1]
30010174:	e24aa001 	sub	sl, sl, #1	; 0x1
30010178:	e0866713 	add	r6, r6, r3, lsl r7
3001017c:	e2877008 	add	r7, r7, #8	; 0x8
30010180:	e3570002 	cmp	r7, #2	; 0x2
30010184:	e58d202c 	str	r2, [sp, #44]
30010188:	9afffff5 	bls	30010164 <inflate+0xadc>
3001018c:	e59f3600 	ldr	r3, [pc, #1536]	; 30010794 <inflate+0x110c>
30010190:	e0833081 	add	r3, r3, r1, lsl #1
30010194:	e2833e97 	add	r3, r3, #2416	; 0x970
30010198:	e283300c 	add	r3, r3, #12	; 0xc
3001019c:	e1d330b0 	ldrh	r3, [r3]
300101a0:	e2062007 	and	r2, r6, #7	; 0x7
300101a4:	e2811001 	add	r1, r1, #1	; 0x1
300101a8:	e0853083 	add	r3, r5, r3, lsl #1
300101ac:	e1c327b0 	strh	r2, [r3, #112]
300101b0:	e5851068 	str	r1, [r5, #104]
300101b4:	e1a061a6 	lsr	r6, r6, #3
300101b8:	e2477003 	sub	r7, r7, #3	; 0x3
300101bc:	e5951068 	ldr	r1, [r5, #104]
300101c0:	e595305c 	ldr	r3, [r5, #92]
300101c4:	e1510003 	cmp	r1, r3
300101c8:	2a000006 	bcs	300101e8 <inflate+0xb60>
300101cc:	e59d202c 	ldr	r2, [sp, #44]
300101d0:	eaffffea 	b	30010180 <inflate+0xaf8>
300101d4:	e1d330b0 	ldrh	r3, [r3]
300101d8:	e3a0c000 	mov	ip, #0	; 0x0
300101dc:	e0853083 	add	r3, r5, r3, lsl #1
300101e0:	e5851068 	str	r1, [r5, #104]
300101e4:	e1c3c7b0 	strh	ip, [r3, #112]
300101e8:	e5952068 	ldr	r2, [r5, #104]
300101ec:	e59f35a0 	ldr	r3, [pc, #1440]	; 30010794 <inflate+0x110c>
300101f0:	e0833082 	add	r3, r3, r2, lsl #1
300101f4:	e2833e97 	add	r3, r3, #2416	; 0x970
300101f8:	e3520012 	cmp	r2, #18	; 0x12
300101fc:	e283300c 	add	r3, r3, #12	; 0xc
30010200:	e2821001 	add	r1, r2, #1	; 0x1
30010204:	9afffff2 	bls	300101d4 <inflate+0xb4c>
30010208:	e59d000c 	ldr	r0, [sp, #12]
3001020c:	e59dc018 	ldr	ip, [sp, #24]
30010210:	e3a03007 	mov	r3, #7	; 0x7
30010214:	e5853054 	str	r3, [r5, #84]
30010218:	e585006c 	str	r0, [r5, #108]
3001021c:	e585004c 	str	r0, [r5, #76]
30010220:	e58dc000 	str	ip, [sp]
30010224:	e59dc01c 	ldr	ip, [sp, #28]
30010228:	e59d3014 	ldr	r3, [sp, #20]
3001022c:	e3a00000 	mov	r0, #0	; 0x0
30010230:	e59d1010 	ldr	r1, [sp, #16]
30010234:	e3a02013 	mov	r2, #19	; 0x13
30010238:	e58dc004 	str	ip, [sp, #4]
3001023c:	ebfffa49 	bl	3000eb68 <inflate_table>
30010240:	e3500000 	cmp	r0, #0	; 0x0
30010244:	e58d003c 	str	r0, [sp, #60]
30010248:	159f3548 	ldrne	r3, [pc, #1352]	; 30010798 <inflate+0x1110>
3001024c:	1afffda0 	bne	3000f8d4 <inflate+0x24c>
30010250:	e59d003c 	ldr	r0, [sp, #60]
30010254:	e3a03011 	mov	r3, #17	; 0x11
30010258:	e5853000 	str	r3, [r5]
3001025c:	e5850068 	str	r0, [r5, #104]
30010260:	ea000079 	b	3001044c <inflate+0xdc4>
30010264:	e5952054 	ldr	r2, [r5, #84]
30010268:	e3e03000 	mvn	r3, #0	; 0x0
3001026c:	e1e09213 	mvn	r9, r3, lsl r2
30010270:	e595404c 	ldr	r4, [r5, #76]
30010274:	e59d202c 	ldr	r2, [sp, #44]
30010278:	e0063009 	and	r3, r6, r9
3001027c:	e0843103 	add	r3, r4, r3, lsl #2
30010280:	e5d31001 	ldrb	r1, [r3, #1]
30010284:	e1510007 	cmp	r1, r7
30010288:	e58d202c 	str	r2, [sp, #44]
3001028c:	e1d300b2 	ldrh	r0, [r3, #2]
30010290:	9a000007 	bls	300102b4 <inflate+0xc2c>
30010294:	e35a0000 	cmp	sl, #0	; 0x0
30010298:	e2822001 	add	r2, r2, #1	; 0x1
3001029c:	0a00022d 	beq	30010b58 <inflate+0x14d0>
300102a0:	e5523001 	ldrb	r3, [r2, #-1]
300102a4:	e24aa001 	sub	sl, sl, #1	; 0x1
300102a8:	e0866713 	add	r6, r6, r3, lsl r7
300102ac:	e2877008 	add	r7, r7, #8	; 0x8
300102b0:	eafffff0 	b	30010278 <inflate+0xbf0>
300102b4:	e350000f 	cmp	r0, #15	; 0xf
300102b8:	8a000011 	bhi	30010304 <inflate+0xc7c>
300102bc:	ea000006 	b	300102dc <inflate+0xc54>
300102c0:	e35a0000 	cmp	sl, #0	; 0x0
300102c4:	e2822001 	add	r2, r2, #1	; 0x1
300102c8:	0a000222 	beq	30010b58 <inflate+0x14d0>
300102cc:	e5523001 	ldrb	r3, [r2, #-1]
300102d0:	e24aa001 	sub	sl, sl, #1	; 0x1
300102d4:	e0866713 	add	r6, r6, r3, lsl r7
300102d8:	e2877008 	add	r7, r7, #8	; 0x8
300102dc:	e1570001 	cmp	r7, r1
300102e0:	e58d202c 	str	r2, [sp, #44]
300102e4:	3afffff5 	bcc	300102c0 <inflate+0xc38>
300102e8:	e28c2001 	add	r2, ip, #1	; 0x1
300102ec:	e085308c 	add	r3, r5, ip, lsl #1
300102f0:	e1c307b0 	strh	r0, [r3, #112]
300102f4:	e0617007 	rsb	r7, r1, r7
300102f8:	e5852068 	str	r2, [r5, #104]
300102fc:	e1a06136 	lsr	r6, r6, r1
30010300:	ea000051 	b	3001044c <inflate+0xdc4>
30010304:	e3500010 	cmp	r0, #16	; 0x10
30010308:	1a000016 	bne	30010368 <inflate+0xce0>
3001030c:	ea000006 	b	3001032c <inflate+0xca4>
30010310:	e35a0000 	cmp	sl, #0	; 0x0
30010314:	e2822001 	add	r2, r2, #1	; 0x1
30010318:	0a00020e 	beq	30010b58 <inflate+0x14d0>
3001031c:	e5523001 	ldrb	r3, [r2, #-1]
30010320:	e24aa001 	sub	sl, sl, #1	; 0x1
30010324:	e0866713 	add	r6, r6, r3, lsl r7
30010328:	e2877008 	add	r7, r7, #8	; 0x8
3001032c:	e2813002 	add	r3, r1, #2	; 0x2
30010330:	e1570003 	cmp	r7, r3
30010334:	e58d202c 	str	r2, [sp, #44]
30010338:	3afffff4 	bcc	30010310 <inflate+0xc88>
3001033c:	e35c0000 	cmp	ip, #0	; 0x0
30010340:	e0617007 	rsb	r7, r1, r7
30010344:	e1a06136 	lsr	r6, r6, r1
30010348:	0a000033 	beq	3001041c <inflate+0xd94>
3001034c:	e2062003 	and	r2, r6, #3	; 0x3
30010350:	e085308c 	add	r3, r5, ip, lsl #1
30010354:	e1d306be 	ldrh	r0, [r3, #110]
30010358:	e2821003 	add	r1, r2, #3	; 0x3
3001035c:	e1a06126 	lsr	r6, r6, #2
30010360:	e2477002 	sub	r7, r7, #2	; 0x2
30010364:	ea000028 	b	3001040c <inflate+0xd84>
30010368:	e3500011 	cmp	r0, #17	; 0x11
3001036c:	1a00001a 	bne	300103dc <inflate+0xd54>
30010370:	ea000006 	b	30010390 <inflate+0xd08>
30010374:	e35a0000 	cmp	sl, #0	; 0x0
30010378:	e2822001 	add	r2, r2, #1	; 0x1
3001037c:	0a0001f5 	beq	30010b58 <inflate+0x14d0>
30010380:	e5523001 	ldrb	r3, [r2, #-1]
30010384:	e24aa001 	sub	sl, sl, #1	; 0x1
30010388:	e0866713 	add	r6, r6, r3, lsl r7
3001038c:	e2877008 	add	r7, r7, #8	; 0x8
30010390:	e2813003 	add	r3, r1, #3	; 0x3
30010394:	e1570003 	cmp	r7, r3
30010398:	e58d202c 	str	r2, [sp, #44]
3001039c:	3afffff4 	bcc	30010374 <inflate+0xcec>
300103a0:	e1a03136 	lsr	r3, r6, r1
300103a4:	e3e02002 	mvn	r2, #2	; 0x2
300103a8:	e0612002 	rsb	r2, r1, r2
300103ac:	e2031007 	and	r1, r3, #7	; 0x7
300103b0:	e0877002 	add	r7, r7, r2
300103b4:	e2811003 	add	r1, r1, #3	; 0x3
300103b8:	e1a061a3 	lsr	r6, r3, #3
300103bc:	ea000011 	b	30010408 <inflate+0xd80>
300103c0:	e35a0000 	cmp	sl, #0	; 0x0
300103c4:	e2822001 	add	r2, r2, #1	; 0x1
300103c8:	0a0001e2 	beq	30010b58 <inflate+0x14d0>
300103cc:	e5523001 	ldrb	r3, [r2, #-1]
300103d0:	e24aa001 	sub	sl, sl, #1	; 0x1
300103d4:	e0866713 	add	r6, r6, r3, lsl r7
300103d8:	e2877008 	add	r7, r7, #8	; 0x8
300103dc:	e2813007 	add	r3, r1, #7	; 0x7
300103e0:	e1570003 	cmp	r7, r3
300103e4:	e58d202c 	str	r2, [sp, #44]
300103e8:	3afffff4 	bcc	300103c0 <inflate+0xd38>
300103ec:	e1a03136 	lsr	r3, r6, r1
300103f0:	e3e02006 	mvn	r2, #6	; 0x6
300103f4:	e0612002 	rsb	r2, r1, r2
300103f8:	e203107f 	and	r1, r3, #127	; 0x7f
300103fc:	e0877002 	add	r7, r7, r2
30010400:	e281100b 	add	r1, r1, #11	; 0xb
30010404:	e1a063a3 	lsr	r6, r3, #7
30010408:	e3a00000 	mov	r0, #0	; 0x0
3001040c:	e59d2020 	ldr	r2, [sp, #32]
30010410:	e081300c 	add	r3, r1, ip
30010414:	e1530002 	cmp	r3, r2
30010418:	9a000004 	bls	30010430 <inflate+0xda8>
3001041c:	e59f3378 	ldr	r3, [pc, #888]	; 3001079c <inflate+0x1114>
30010420:	e58b3018 	str	r3, [fp, #24]
30010424:	e3a0301b 	mov	r3, #27	; 0x1b
30010428:	e5853000 	str	r3, [r5]
3001042c:	ea00000d 	b	30010468 <inflate+0xde0>
30010430:	e5953068 	ldr	r3, [r5, #104]
30010434:	e2511001 	subs	r1, r1, #1	; 0x1
30010438:	e2832001 	add	r2, r3, #1	; 0x1
3001043c:	e0853083 	add	r3, r5, r3, lsl #1
30010440:	e1c307b0 	strh	r0, [r3, #112]
30010444:	e5852068 	str	r2, [r5, #104]
30010448:	1afffff8 	bne	30010430 <inflate+0xda8>
3001044c:	e2850064 	add	r0, r5, #100	; 0x64
30010450:	e8100009 	ldmda	r0, {r0, r3}
30010454:	e0833000 	add	r3, r3, r0
30010458:	e595c068 	ldr	ip, [r5, #104]
3001045c:	e15c0003 	cmp	ip, r3
30010460:	e58d3020 	str	r3, [sp, #32]
30010464:	3affff7e 	bcc	30010264 <inflate+0xbdc>
30010468:	e5953000 	ldr	r3, [r5]
3001046c:	e353001b 	cmp	r3, #27	; 0x1b
30010470:	0afffcb1 	beq	3000f73c <inflate+0xb4>
30010474:	e3a03009 	mov	r3, #9	; 0x9
30010478:	e5853054 	str	r3, [r5, #84]
3001047c:	e59d100c 	ldr	r1, [sp, #12]
30010480:	e28d2018 	add	r2, sp, #24	; 0x18
30010484:	e892000c 	ldm	r2, {r2, r3}
30010488:	e585106c 	str	r1, [r5, #108]
3001048c:	e585104c 	str	r1, [r5, #76]
30010490:	e88d000c 	stm	sp, {r2, r3}
30010494:	e59d3014 	ldr	r3, [sp, #20]
30010498:	e3a00001 	mov	r0, #1	; 0x1
3001049c:	e59d1010 	ldr	r1, [sp, #16]
300104a0:	e5952060 	ldr	r2, [r5, #96]
300104a4:	ebfff9af 	bl	3000eb68 <inflate_table>
300104a8:	e3500000 	cmp	r0, #0	; 0x0
300104ac:	e58d003c 	str	r0, [sp, #60]
300104b0:	159f32e8 	ldrne	r3, [pc, #744]	; 300107a0 <inflate+0x1118>
300104b4:	1afffd06 	bne	3000f8d4 <inflate+0x24c>
300104b8:	e595306c 	ldr	r3, [r5, #108]
300104bc:	e59d001c 	ldr	r0, [sp, #28]
300104c0:	e59dc024 	ldr	ip, [sp, #36]
300104c4:	e5951060 	ldr	r1, [r5, #96]
300104c8:	e5853050 	str	r3, [r5, #80]
300104cc:	e3a03006 	mov	r3, #6	; 0x6
300104d0:	e5853058 	str	r3, [r5, #88]
300104d4:	e58d0004 	str	r0, [sp, #4]
300104d8:	e58dc000 	str	ip, [sp]
300104dc:	e2811038 	add	r1, r1, #56	; 0x38
300104e0:	e59d3014 	ldr	r3, [sp, #20]
300104e4:	e0851081 	add	r1, r5, r1, lsl #1
300104e8:	e3a00002 	mov	r0, #2	; 0x2
300104ec:	e5952064 	ldr	r2, [r5, #100]
300104f0:	ebfff99c 	bl	3000eb68 <inflate_table>
300104f4:	e3500000 	cmp	r0, #0	; 0x0
300104f8:	e58d003c 	str	r0, [sp, #60]
300104fc:	159f32a0 	ldrne	r3, [pc, #672]	; 300107a4 <inflate+0x111c>
30010500:	1afffcf3 	bne	3000f8d4 <inflate+0x24c>
30010504:	e3a03012 	mov	r3, #18	; 0x12
30010508:	e5853000 	str	r3, [r5]
3001050c:	e59b3030 	ldr	r3, [fp, #48]
30010510:	e3530000 	cmp	r3, #0	; 0x0
30010514:	13a00000 	movne	r0, #0	; 0x0
30010518:	11a01000 	movne	r1, r0
3001051c:	11a0e00f 	movne	lr, pc
30010520:	11a0f003 	movne	pc, r3
30010524:	e59f327c 	ldr	r3, [pc, #636]	; 300107a8 <inflate+0x1120>
30010528:	e59d1034 	ldr	r1, [sp, #52]
3001052c:	e35a0005 	cmp	sl, #5	; 0x5
30010530:	81510003 	cmphi	r1, r3
30010534:	9a000014 	bls	3001058c <inflate+0xf04>
30010538:	e59d2030 	ldr	r2, [sp, #48]
3001053c:	e59d302c 	ldr	r3, [sp, #44]
30010540:	e58b1010 	str	r1, [fp, #16]
30010544:	e58ba004 	str	sl, [fp, #4]
30010548:	e5856038 	str	r6, [r5, #56]
3001054c:	e585703c 	str	r7, [r5, #60]
30010550:	e1a0000b 	mov	r0, fp
30010554:	e59d1038 	ldr	r1, [sp, #56]
30010558:	e58b200c 	str	r2, [fp, #12]
3001055c:	e58b3000 	str	r3, [fp]
30010560:	ebfff820 	bl	3000e5e8 <inflate_fast>
30010564:	e59bc00c 	ldr	ip, [fp, #12]
30010568:	e59b0010 	ldr	r0, [fp, #16]
3001056c:	e59b1000 	ldr	r1, [fp]
30010570:	e58dc030 	str	ip, [sp, #48]
30010574:	e58d0034 	str	r0, [sp, #52]
30010578:	e58d102c 	str	r1, [sp, #44]
3001057c:	e59ba004 	ldr	sl, [fp, #4]
30010580:	e2856038 	add	r6, r5, #56	; 0x38
30010584:	e89600c0 	ldm	r6, {r6, r7}
30010588:	eafffc6b 	b	3000f73c <inflate+0xb4>
3001058c:	e5952054 	ldr	r2, [r5, #84]
30010590:	e3e03000 	mvn	r3, #0	; 0x0
30010594:	e1e0c213 	mvn	ip, r3, lsl r2
30010598:	e595904c 	ldr	r9, [r5, #76]
3001059c:	e59d102c 	ldr	r1, [sp, #44]
300105a0:	e006300c 	and	r3, r6, ip
300105a4:	e0892103 	add	r2, r9, r3, lsl #2
300105a8:	e5d20001 	ldrb	r0, [r2, #1]
300105ac:	e1500007 	cmp	r0, r7
300105b0:	e7d93103 	ldrb	r3, [r9, r3, lsl #2]
300105b4:	e1d220b2 	ldrh	r2, [r2, #2]
300105b8:	e58d102c 	str	r1, [sp, #44]
300105bc:	e1a04000 	mov	r4, r0
300105c0:	9a000007 	bls	300105e4 <inflate+0xf5c>
300105c4:	e35a0000 	cmp	sl, #0	; 0x0
300105c8:	e2811001 	add	r1, r1, #1	; 0x1
300105cc:	0a000161 	beq	30010b58 <inflate+0x14d0>
300105d0:	e5513001 	ldrb	r3, [r1, #-1]
300105d4:	e24aa001 	sub	sl, sl, #1	; 0x1
300105d8:	e0866713 	add	r6, r6, r3, lsl r7
300105dc:	e2877008 	add	r7, r7, #8	; 0x8
300105e0:	eaffffee 	b	300105a0 <inflate+0xf18>
300105e4:	e3530000 	cmp	r3, #0	; 0x0
300105e8:	e58d2048 	str	r2, [sp, #72]
300105ec:	0a00001c 	beq	30010664 <inflate+0xfdc>
300105f0:	e31300f0 	tst	r3, #240	; 0xf0
300105f4:	1a00001a 	bne	30010664 <inflate+0xfdc>
300105f8:	e0802003 	add	r2, r0, r3
300105fc:	e3e03000 	mvn	r3, #0	; 0x0
30010600:	e1e03213 	mvn	r3, r3, lsl r2
30010604:	e58d3028 	str	r3, [sp, #40]
30010608:	e1a0c001 	mov	ip, r1
3001060c:	e59d2028 	ldr	r2, [sp, #40]
30010610:	e59d1048 	ldr	r1, [sp, #72]
30010614:	e0063002 	and	r3, r6, r2
30010618:	e0813033 	add	r3, r1, r3, lsr r0
3001061c:	e0891103 	add	r1, r9, r3, lsl #2
30010620:	e5d14001 	ldrb	r4, [r1, #1]
30010624:	e0802004 	add	r2, r0, r4
30010628:	e1520007 	cmp	r2, r7
3001062c:	e7d93103 	ldrb	r3, [r9, r3, lsl #2]
30010630:	e1d120b2 	ldrh	r2, [r1, #2]
30010634:	e58dc02c 	str	ip, [sp, #44]
30010638:	e28cc001 	add	ip, ip, #1	; 0x1
3001063c:	9a000006 	bls	3001065c <inflate+0xfd4>
30010640:	e35a0000 	cmp	sl, #0	; 0x0
30010644:	0a000143 	beq	30010b58 <inflate+0x14d0>
30010648:	e55c3001 	ldrb	r3, [ip, #-1]
3001064c:	e24aa001 	sub	sl, sl, #1	; 0x1
30010650:	e0866713 	add	r6, r6, r3, lsl r7
30010654:	e2877008 	add	r7, r7, #8	; 0x8
30010658:	eaffffeb 	b	3001060c <inflate+0xf84>
3001065c:	e1a06036 	lsr	r6, r6, r0
30010660:	e0607007 	rsb	r7, r0, r7
30010664:	e3530000 	cmp	r3, #0	; 0x0
30010668:	e0647007 	rsb	r7, r4, r7
3001066c:	e5852040 	str	r2, [r5, #64]
30010670:	e1a06436 	lsr	r6, r6, r4
30010674:	02833017 	addeq	r3, r3, #23	; 0x17
30010678:	0afffc97 	beq	3000f8dc <inflate+0x254>
3001067c:	e3130020 	tst	r3, #32	; 0x20
30010680:	0a000001 	beq	3001068c <inflate+0x1004>
30010684:	e3a0300b 	mov	r3, #11	; 0xb
30010688:	eafffc93 	b	3000f8dc <inflate+0x254>
3001068c:	e3130040 	tst	r3, #64	; 0x40
30010690:	159f3114 	ldrne	r3, [pc, #276]	; 300107ac <inflate+0x1124>
30010694:	1afffc8e 	bne	3000f8d4 <inflate+0x24c>
30010698:	e203300f 	and	r3, r3, #15	; 0xf
3001069c:	e5853048 	str	r3, [r5, #72]
300106a0:	e3a03013 	mov	r3, #19	; 0x13
300106a4:	e5853000 	str	r3, [r5]
300106a8:	e5951048 	ldr	r1, [r5, #72]
300106ac:	e3510000 	cmp	r1, #0	; 0x0
300106b0:	159d202c 	ldrne	r2, [sp, #44]
300106b4:	1a000007 	bne	300106d8 <inflate+0x1050>
300106b8:	ea000011 	b	30010704 <inflate+0x107c>
300106bc:	e35a0000 	cmp	sl, #0	; 0x0
300106c0:	e2822001 	add	r2, r2, #1	; 0x1
300106c4:	0a000123 	beq	30010b58 <inflate+0x14d0>
300106c8:	e5523001 	ldrb	r3, [r2, #-1]
300106cc:	e24aa001 	sub	sl, sl, #1	; 0x1
300106d0:	e0866713 	add	r6, r6, r3, lsl r7
300106d4:	e2877008 	add	r7, r7, #8	; 0x8
300106d8:	e1570001 	cmp	r7, r1
300106dc:	e58d202c 	str	r2, [sp, #44]
300106e0:	3afffff5 	bcc	300106bc <inflate+0x1034>
300106e4:	e3e03000 	mvn	r3, #0	; 0x0
300106e8:	e1c63113 	bic	r3, r6, r3, lsl r1
300106ec:	e5951048 	ldr	r1, [r5, #72]
300106f0:	e1a06136 	lsr	r6, r6, r1
300106f4:	e5952040 	ldr	r2, [r5, #64]
300106f8:	e0822003 	add	r2, r2, r3
300106fc:	e5852040 	str	r2, [r5, #64]
30010700:	e0617007 	rsb	r7, r1, r7
30010704:	e3a03014 	mov	r3, #20	; 0x14
30010708:	e5853000 	str	r3, [r5]
3001070c:	e5952058 	ldr	r2, [r5, #88]
30010710:	e3e03000 	mvn	r3, #0	; 0x0
30010714:	e1e04213 	mvn	r4, r3, lsl r2
30010718:	e5959050 	ldr	r9, [r5, #80]
3001071c:	e59d102c 	ldr	r1, [sp, #44]
30010720:	e0063004 	and	r3, r6, r4
30010724:	e0892103 	add	r2, r9, r3, lsl #2
30010728:	e5d20001 	ldrb	r0, [r2, #1]
3001072c:	e1500007 	cmp	r0, r7
30010730:	e7d93103 	ldrb	r3, [r9, r3, lsl #2]
30010734:	e1d220b2 	ldrh	r2, [r2, #2]
30010738:	e58d102c 	str	r1, [sp, #44]
3001073c:	e1a0c000 	mov	ip, r0
30010740:	9a00001e 	bls	300107c0 <inflate+0x1138>
30010744:	e35a0000 	cmp	sl, #0	; 0x0
30010748:	e2811001 	add	r1, r1, #1	; 0x1
3001074c:	0a000101 	beq	30010b58 <inflate+0x14d0>
30010750:	e5513001 	ldrb	r3, [r1, #-1]
30010754:	e24aa001 	sub	sl, sl, #1	; 0x1
30010758:	e0866713 	add	r6, r6, r3, lsl r7
3001075c:	e2877008 	add	r7, r7, #8	; 0x8
30010760:	eaffffee 	b	30010720 <inflate+0x1098>
30010764:	00008b1f 	.word	0x00008b1f
30010768:	3001a9fe 	.word	0x3001a9fe
3001076c:	3001aa30 	.word	0x3001aa30
30010770:	3001aa15 	.word	0x3001aa15
30010774:	3001aa44 	.word	0x3001aa44
30010778:	3001aa5d 	.word	0x3001aa5d
3001077c:	3001650c 	.word	0x3001650c
30010780:	3001aa71 	.word	0x3001aa71
30010784:	0000ffff 	.word	0x0000ffff
30010788:	3001aa84 	.word	0x3001aa84
3001078c:	0000011e 	.word	0x0000011e
30010790:	3001aaa1 	.word	0x3001aaa1
30010794:	30016410 	.word	0x30016410
30010798:	3001aac5 	.word	0x3001aac5
3001079c:	3001aade 	.word	0x3001aade
300107a0:	3001aaf8 	.word	0x3001aaf8
300107a4:	3001ab14 	.word	0x3001ab14
300107a8:	00000101 	.word	0x00000101
300107ac:	3001a9e2 	.word	0x3001a9e2
300107b0:	3001a9cc 	.word	0x3001a9cc
300107b4:	3001a9ae 	.word	0x3001a9ae
300107b8:	3001ab2a 	.word	0x3001ab2a
300107bc:	3001ab3f 	.word	0x3001ab3f
300107c0:	e31300f0 	tst	r3, #240	; 0xf0
300107c4:	e58d204c 	str	r2, [sp, #76]
300107c8:	1a00001a 	bne	30010838 <inflate+0x11b0>
300107cc:	e0802003 	add	r2, r0, r3
300107d0:	e3e03000 	mvn	r3, #0	; 0x0
300107d4:	e1e03213 	mvn	r3, r3, lsl r2
300107d8:	e58d3044 	str	r3, [sp, #68]
300107dc:	e1a04001 	mov	r4, r1
300107e0:	e59d2044 	ldr	r2, [sp, #68]
300107e4:	e59dc04c 	ldr	ip, [sp, #76]
300107e8:	e0063002 	and	r3, r6, r2
300107ec:	e08c3033 	add	r3, ip, r3, lsr r0
300107f0:	e0891103 	add	r1, r9, r3, lsl #2
300107f4:	e5d1c001 	ldrb	ip, [r1, #1]
300107f8:	e080200c 	add	r2, r0, ip
300107fc:	e1520007 	cmp	r2, r7
30010800:	e7d93103 	ldrb	r3, [r9, r3, lsl #2]
30010804:	e1d120b2 	ldrh	r2, [r1, #2]
30010808:	e58d402c 	str	r4, [sp, #44]
3001080c:	e2844001 	add	r4, r4, #1	; 0x1
30010810:	9a000006 	bls	30010830 <inflate+0x11a8>
30010814:	e35a0000 	cmp	sl, #0	; 0x0
30010818:	0a0000ce 	beq	30010b58 <inflate+0x14d0>
3001081c:	e5543001 	ldrb	r3, [r4, #-1]
30010820:	e24aa001 	sub	sl, sl, #1	; 0x1
30010824:	e0866713 	add	r6, r6, r3, lsl r7
30010828:	e2877008 	add	r7, r7, #8	; 0x8
3001082c:	eaffffeb 	b	300107e0 <inflate+0x1158>
30010830:	e1a06036 	lsr	r6, r6, r0
30010834:	e0607007 	rsb	r7, r0, r7
30010838:	e3130040 	tst	r3, #64	; 0x40
3001083c:	e06c7007 	rsb	r7, ip, r7
30010840:	e1a06c36 	lsr	r6, r6, ip
30010844:	151f309c 	ldrne	r3, [pc, #-156]	; 300107b0 <inflate+0x1128>
30010848:	1afffc21 	bne	3000f8d4 <inflate+0x24c>
3001084c:	e203300f 	and	r3, r3, #15	; 0xf
30010850:	e5853048 	str	r3, [r5, #72]
30010854:	e3a03015 	mov	r3, #21	; 0x15
30010858:	e5852044 	str	r2, [r5, #68]
3001085c:	e5853000 	str	r3, [r5]
30010860:	e5951048 	ldr	r1, [r5, #72]
30010864:	e3510000 	cmp	r1, #0	; 0x0
30010868:	159d202c 	ldrne	r2, [sp, #44]
3001086c:	1a000007 	bne	30010890 <inflate+0x1208>
30010870:	ea000011 	b	300108bc <inflate+0x1234>
30010874:	e35a0000 	cmp	sl, #0	; 0x0
30010878:	e2822001 	add	r2, r2, #1	; 0x1
3001087c:	0a0000b5 	beq	30010b58 <inflate+0x14d0>
30010880:	e5523001 	ldrb	r3, [r2, #-1]
30010884:	e24aa001 	sub	sl, sl, #1	; 0x1
30010888:	e0866713 	add	r6, r6, r3, lsl r7
3001088c:	e2877008 	add	r7, r7, #8	; 0x8
30010890:	e1570001 	cmp	r7, r1
30010894:	e58d202c 	str	r2, [sp, #44]
30010898:	3afffff5 	bcc	30010874 <inflate+0x11ec>
3001089c:	e3e03000 	mvn	r3, #0	; 0x0
300108a0:	e1c63113 	bic	r3, r6, r3, lsl r1
300108a4:	e5951048 	ldr	r1, [r5, #72]
300108a8:	e1a06136 	lsr	r6, r6, r1
300108ac:	e5952044 	ldr	r2, [r5, #68]
300108b0:	e0822003 	add	r2, r2, r3
300108b4:	e5852044 	str	r2, [r5, #68]
300108b8:	e0617007 	rsb	r7, r1, r7
300108bc:	e595302c 	ldr	r3, [r5, #44]
300108c0:	e59d0038 	ldr	r0, [sp, #56]
300108c4:	e59d1034 	ldr	r1, [sp, #52]
300108c8:	e0803003 	add	r3, r0, r3
300108cc:	e5952044 	ldr	r2, [r5, #68]
300108d0:	e0613003 	rsb	r3, r1, r3
300108d4:	e1520003 	cmp	r2, r3
300108d8:	851f312c 	ldrhi	r3, [pc, #-300]	; 300107b4 <inflate+0x112c>
300108dc:	8afffbfc 	bhi	3000f8d4 <inflate+0x24c>
300108e0:	e3a03016 	mov	r3, #22	; 0x16
300108e4:	e5853000 	str	r3, [r5]
300108e8:	e59d2034 	ldr	r2, [sp, #52]
300108ec:	e3520000 	cmp	r2, #0	; 0x0
300108f0:	0a000098 	beq	30010b58 <inflate+0x14d0>
300108f4:	e59dc038 	ldr	ip, [sp, #56]
300108f8:	e5953044 	ldr	r3, [r5, #68]
300108fc:	e062100c 	rsb	r1, r2, ip
30010900:	e1530001 	cmp	r3, r1
30010904:	959d1030 	ldrls	r1, [sp, #48]
30010908:	95952040 	ldrls	r2, [r5, #64]
3001090c:	90630001 	rsbls	r0, r3, r1
30010910:	9a00000b 	bls	30010944 <inflate+0x12bc>
30010914:	e5952030 	ldr	r2, [r5, #48]
30010918:	e0611003 	rsb	r1, r1, r3
3001091c:	e1510002 	cmp	r1, r2
30010920:	85953028 	ldrhi	r3, [r5, #40]
30010924:	80621001 	rsbhi	r1, r2, r1
30010928:	90613002 	rsbls	r3, r1, r2
3001092c:	e5950034 	ldr	r0, [r5, #52]
30010930:	e5952040 	ldr	r2, [r5, #64]
30010934:	80613003 	rsbhi	r3, r1, r3
30010938:	e0800003 	add	r0, r0, r3
3001093c:	e1520001 	cmp	r2, r1
30010940:	21a02001 	movcs	r2, r1
30010944:	e59d1034 	ldr	r1, [sp, #52]
30010948:	e5953040 	ldr	r3, [r5, #64]
3001094c:	e1520001 	cmp	r2, r1
30010950:	31a01002 	movcc	r1, r2
30010954:	e59d2034 	ldr	r2, [sp, #52]
30010958:	e0613003 	rsb	r3, r1, r3
3001095c:	e0612002 	rsb	r2, r1, r2
30010960:	e5853040 	str	r3, [r5, #64]
30010964:	e58d2034 	str	r2, [sp, #52]
30010968:	e3a02000 	mov	r2, #0	; 0x0
3001096c:	e7d03002 	ldrb	r3, [r0, r2]
30010970:	e59dc030 	ldr	ip, [sp, #48]
30010974:	e7cc3002 	strb	r3, [ip, r2]
30010978:	e2822001 	add	r2, r2, #1	; 0x1
3001097c:	e1510002 	cmp	r1, r2
30010980:	1afffff9 	bne	3001096c <inflate+0x12e4>
30010984:	e5953040 	ldr	r3, [r5, #64]
30010988:	e08cc001 	add	ip, ip, r1
3001098c:	e3530000 	cmp	r3, #0	; 0x0
30010990:	e58dc030 	str	ip, [sp, #48]
30010994:	02833012 	addeq	r3, r3, #18	; 0x12
30010998:	0afffbcf 	beq	3000f8dc <inflate+0x254>
3001099c:	eafffb66 	b	3000f73c <inflate+0xb4>
300109a0:	e59d0034 	ldr	r0, [sp, #52]
300109a4:	e3500000 	cmp	r0, #0	; 0x0
300109a8:	0a00006a 	beq	30010b58 <inflate+0x14d0>
300109ac:	e5953040 	ldr	r3, [r5, #64]
300109b0:	e59d1030 	ldr	r1, [sp, #48]
300109b4:	e4c13001 	strb	r3, [r1], #1
300109b8:	e2400001 	sub	r0, r0, #1	; 0x1
300109bc:	e3a03012 	mov	r3, #18	; 0x12
300109c0:	e58d1030 	str	r1, [sp, #48]
300109c4:	e5853000 	str	r3, [r5]
300109c8:	e58d0034 	str	r0, [sp, #52]
300109cc:	eafffb5a 	b	3000f73c <inflate+0xb4>
300109d0:	e5953008 	ldr	r3, [r5, #8]
300109d4:	e3530000 	cmp	r3, #0	; 0x0
300109d8:	159d202c 	ldrne	r2, [sp, #44]
300109dc:	1a000007 	bne	30010a00 <inflate+0x1378>
300109e0:	ea00003b 	b	30010ad4 <inflate+0x144c>
300109e4:	e35a0000 	cmp	sl, #0	; 0x0
300109e8:	e2822001 	add	r2, r2, #1	; 0x1
300109ec:	0a000059 	beq	30010b58 <inflate+0x14d0>
300109f0:	e5523001 	ldrb	r3, [r2, #-1]
300109f4:	e24aa001 	sub	sl, sl, #1	; 0x1
300109f8:	e0866713 	add	r6, r6, r3, lsl r7
300109fc:	e2877008 	add	r7, r7, #8	; 0x8
30010a00:	e357001f 	cmp	r7, #31	; 0x1f
30010a04:	e58d202c 	str	r2, [sp, #44]
30010a08:	9afffff5 	bls	300109e4 <inflate+0x135c>
30010a0c:	e28d0034 	add	r0, sp, #52	; 0x34
30010a10:	e8901001 	ldm	r0, {r0, ip}
30010a14:	e59b3014 	ldr	r3, [fp, #20]
30010a18:	e060200c 	rsb	r2, r0, ip
30010a1c:	e0833002 	add	r3, r3, r2
30010a20:	e58b3014 	str	r3, [fp, #20]
30010a24:	e595301c 	ldr	r3, [r5, #28]
30010a28:	e3520000 	cmp	r2, #0	; 0x0
30010a2c:	e0833002 	add	r3, r3, r2
30010a30:	e585301c 	str	r3, [r5, #28]
30010a34:	0a00000e 	beq	30010a74 <inflate+0x13ec>
30010a38:	e5953010 	ldr	r3, [r5, #16]
30010a3c:	e3530000 	cmp	r3, #0	; 0x0
30010a40:	e2623000 	rsb	r3, r2, #0	; 0x0
30010a44:	0a000004 	beq	30010a5c <inflate+0x13d4>
30010a48:	e59dc030 	ldr	ip, [sp, #48]
30010a4c:	e5950018 	ldr	r0, [r5, #24]
30010a50:	e08c1003 	add	r1, ip, r3
30010a54:	ebffef75 	bl	3000c830 <crc32>
30010a58:	ea000003 	b	30010a6c <inflate+0x13e4>
30010a5c:	e59d0030 	ldr	r0, [sp, #48]
30010a60:	e0801003 	add	r1, r0, r3
30010a64:	e5950018 	ldr	r0, [r5, #24]
30010a68:	ebfffa33 	bl	3000f33c <adler32>
30010a6c:	e5850018 	str	r0, [r5, #24]
30010a70:	e58b0034 	str	r0, [fp, #52]
30010a74:	e5953010 	ldr	r3, [r5, #16]
30010a78:	e3530000 	cmp	r3, #0	; 0x0
30010a7c:	01a03c26 	lsreq	r3, r6, #24
30010a80:	01a02426 	lsreq	r2, r6, #8
30010a84:	00833c06 	addeq	r3, r3, r6, lsl #24
30010a88:	02022cff 	andeq	r2, r2, #65280	; 0xff00
30010a8c:	00833002 	addeq	r3, r3, r2
30010a90:	02062cff 	andeq	r2, r6, #65280	; 0xff00
30010a94:	00832402 	addeq	r2, r3, r2, lsl #8
30010a98:	e5953018 	ldr	r3, [r5, #24]
30010a9c:	11a02006 	movne	r2, r6
30010aa0:	e1520003 	cmp	r2, r3
30010aa4:	0a000006 	beq	30010ac4 <inflate+0x143c>
30010aa8:	e51f32f8 	ldr	r3, [pc, #-760]	; 300107b8 <inflate+0x1130>
30010aac:	e59d1034 	ldr	r1, [sp, #52]
30010ab0:	e58b3018 	str	r3, [fp, #24]
30010ab4:	e3a0301b 	mov	r3, #27	; 0x1b
30010ab8:	e5853000 	str	r3, [r5]
30010abc:	e58d1038 	str	r1, [sp, #56]
30010ac0:	eafffb1d 	b	3000f73c <inflate+0xb4>
30010ac4:	e59d2034 	ldr	r2, [sp, #52]
30010ac8:	e3a06000 	mov	r6, #0	; 0x0
30010acc:	e58d2038 	str	r2, [sp, #56]
30010ad0:	e1a07006 	mov	r7, r6
30010ad4:	e3a03019 	mov	r3, #25	; 0x19
30010ad8:	e5853000 	str	r3, [r5]
30010adc:	e5953008 	ldr	r3, [r5, #8]
30010ae0:	e3530000 	cmp	r3, #0	; 0x0
30010ae4:	0a000014 	beq	30010b3c <inflate+0x14b4>
30010ae8:	e5953010 	ldr	r3, [r5, #16]
30010aec:	e3530000 	cmp	r3, #0	; 0x0
30010af0:	0a000011 	beq	30010b3c <inflate+0x14b4>
30010af4:	e59d202c 	ldr	r2, [sp, #44]
30010af8:	ea000006 	b	30010b18 <inflate+0x1490>
30010afc:	e35a0000 	cmp	sl, #0	; 0x0
30010b00:	e2822001 	add	r2, r2, #1	; 0x1
30010b04:	0a000013 	beq	30010b58 <inflate+0x14d0>
30010b08:	e5523001 	ldrb	r3, [r2, #-1]
30010b0c:	e24aa001 	sub	sl, sl, #1	; 0x1
30010b10:	e0866713 	add	r6, r6, r3, lsl r7
30010b14:	e2877008 	add	r7, r7, #8	; 0x8
30010b18:	e357001f 	cmp	r7, #31	; 0x1f
30010b1c:	e58d202c 	str	r2, [sp, #44]
30010b20:	9afffff5 	bls	30010afc <inflate+0x1474>
30010b24:	e595301c 	ldr	r3, [r5, #28]
30010b28:	e1560003 	cmp	r6, r3
30010b2c:	151f3378 	ldrne	r3, [pc, #-888]	; 300107bc <inflate+0x1134>
30010b30:	1afffb67 	bne	3000f8d4 <inflate+0x24c>
30010b34:	e3a06000 	mov	r6, #0	; 0x0
30010b38:	e1a07006 	mov	r7, r6
30010b3c:	e3a0301a 	mov	r3, #26	; 0x1a
30010b40:	e5853000 	str	r3, [r5]
30010b44:	e3a03001 	mov	r3, #1	; 0x1
30010b48:	e58d303c 	str	r3, [sp, #60]
30010b4c:	ea000001 	b	30010b58 <inflate+0x14d0>
30010b50:	e3e0c002 	mvn	ip, #2	; 0x2
30010b54:	e58dc03c 	str	ip, [sp, #60]
30010b58:	e59d0034 	ldr	r0, [sp, #52]
30010b5c:	e58ba004 	str	sl, [fp, #4]
30010b60:	e58b0010 	str	r0, [fp, #16]
30010b64:	e5953028 	ldr	r3, [r5, #40]
30010b68:	e59d1030 	ldr	r1, [sp, #48]
30010b6c:	e59d202c 	ldr	r2, [sp, #44]
30010b70:	e3530000 	cmp	r3, #0	; 0x0
30010b74:	e58b100c 	str	r1, [fp, #12]
30010b78:	e58b2000 	str	r2, [fp]
30010b7c:	e5856038 	str	r6, [r5, #56]
30010b80:	e585703c 	str	r7, [r5, #60]
30010b84:	1a000006 	bne	30010ba4 <inflate+0x151c>
30010b88:	e5953000 	ldr	r3, [r5]
30010b8c:	e3530017 	cmp	r3, #23	; 0x17
30010b90:	8a00004d 	bhi	30010ccc <inflate+0x1644>
30010b94:	e59b3010 	ldr	r3, [fp, #16]
30010b98:	e59dc038 	ldr	ip, [sp, #56]
30010b9c:	e15c0003 	cmp	ip, r3
30010ba0:	0a000049 	beq	30010ccc <inflate+0x1644>
30010ba4:	e59b401c 	ldr	r4, [fp, #28]
30010ba8:	e5943034 	ldr	r3, [r4, #52]
30010bac:	e3530000 	cmp	r3, #0	; 0x0
30010bb0:	1a000008 	bne	30010bd8 <inflate+0x1550>
30010bb4:	e5941024 	ldr	r1, [r4, #36]
30010bb8:	e3a02001 	mov	r2, #1	; 0x1
30010bbc:	e1a01112 	lsl	r1, r2, r1
30010bc0:	e59b0028 	ldr	r0, [fp, #40]
30010bc4:	e1a0e00f 	mov	lr, pc
30010bc8:	e59bf020 	ldr	pc, [fp, #32]
30010bcc:	e3500000 	cmp	r0, #0	; 0x0
30010bd0:	e5840034 	str	r0, [r4, #52]
30010bd4:	0a000038 	beq	30010cbc <inflate+0x1634>
30010bd8:	e5941028 	ldr	r1, [r4, #40]
30010bdc:	e3510000 	cmp	r1, #0	; 0x0
30010be0:	1a000005 	bne	30010bfc <inflate+0x1574>
30010be4:	e5942024 	ldr	r2, [r4, #36]
30010be8:	e3a03001 	mov	r3, #1	; 0x1
30010bec:	e1a03213 	lsl	r3, r3, r2
30010bf0:	e584102c 	str	r1, [r4, #44]
30010bf4:	e5843028 	str	r3, [r4, #40]
30010bf8:	e5841030 	str	r1, [r4, #48]
30010bfc:	e59b3010 	ldr	r3, [fp, #16]
30010c00:	e59d0038 	ldr	r0, [sp, #56]
30010c04:	e5942028 	ldr	r2, [r4, #40]
30010c08:	e0636000 	rsb	r6, r3, r0
30010c0c:	e1560002 	cmp	r6, r2
30010c10:	e59b100c 	ldr	r1, [fp, #12]
30010c14:	3a000007 	bcc	30010c38 <inflate+0x15b0>
30010c18:	e0621001 	rsb	r1, r2, r1
30010c1c:	e5940034 	ldr	r0, [r4, #52]
30010c20:	ebfff2ba 	bl	3000d710 <memcpy>
30010c24:	e5943028 	ldr	r3, [r4, #40]
30010c28:	e584302c 	str	r3, [r4, #44]
30010c2c:	e3a03000 	mov	r3, #0	; 0x0
30010c30:	e5843030 	str	r3, [r4, #48]
30010c34:	ea000024 	b	30010ccc <inflate+0x1644>
30010c38:	e5940030 	ldr	r0, [r4, #48]
30010c3c:	e0603002 	rsb	r3, r0, r2
30010c40:	e5942034 	ldr	r2, [r4, #52]
30010c44:	e1560003 	cmp	r6, r3
30010c48:	31a07006 	movcc	r7, r6
30010c4c:	21a07003 	movcs	r7, r3
30010c50:	e0820000 	add	r0, r2, r0
30010c54:	e0661001 	rsb	r1, r6, r1
30010c58:	e1a02007 	mov	r2, r7
30010c5c:	ebfff2ab 	bl	3000d710 <memcpy>
30010c60:	e0566007 	subs	r6, r6, r7
30010c64:	0a000008 	beq	30010c8c <inflate+0x1604>
30010c68:	e59b100c 	ldr	r1, [fp, #12]
30010c6c:	e5940034 	ldr	r0, [r4, #52]
30010c70:	e0661001 	rsb	r1, r6, r1
30010c74:	e1a02006 	mov	r2, r6
30010c78:	ebfff2a4 	bl	3000d710 <memcpy>
30010c7c:	e5943028 	ldr	r3, [r4, #40]
30010c80:	e5846030 	str	r6, [r4, #48]
30010c84:	e584302c 	str	r3, [r4, #44]
30010c88:	ea00000f 	b	30010ccc <inflate+0x1644>
30010c8c:	e5943030 	ldr	r3, [r4, #48]
30010c90:	e5942028 	ldr	r2, [r4, #40]
30010c94:	e0873003 	add	r3, r7, r3
30010c98:	e1530002 	cmp	r3, r2
30010c9c:	e5843030 	str	r3, [r4, #48]
30010ca0:	e594202c 	ldr	r2, [r4, #44]
30010ca4:	e5943028 	ldr	r3, [r4, #40]
30010ca8:	05846030 	streq	r6, [r4, #48]
30010cac:	e1520003 	cmp	r2, r3
30010cb0:	30873002 	addcc	r3, r7, r2
30010cb4:	3584302c 	strcc	r3, [r4, #44]
30010cb8:	ea000003 	b	30010ccc <inflate+0x1644>
30010cbc:	e3a0301c 	mov	r3, #28	; 0x1c
30010cc0:	e5853000 	str	r3, [r5]
30010cc4:	e3e01003 	mvn	r1, #3	; 0x3
30010cc8:	ea00003b 	b	30010dbc <inflate+0x1734>
30010ccc:	e59b1010 	ldr	r1, [fp, #16]
30010cd0:	e59dc038 	ldr	ip, [sp, #56]
30010cd4:	e59b0004 	ldr	r0, [fp, #4]
30010cd8:	e061400c 	rsb	r4, r1, ip
30010cdc:	e59d1040 	ldr	r1, [sp, #64]
30010ce0:	e59b3008 	ldr	r3, [fp, #8]
30010ce4:	e59b2014 	ldr	r2, [fp, #20]
30010ce8:	e0606001 	rsb	r6, r0, r1
30010cec:	e0833006 	add	r3, r3, r6
30010cf0:	e0822004 	add	r2, r2, r4
30010cf4:	e58b2014 	str	r2, [fp, #20]
30010cf8:	e58b3008 	str	r3, [fp, #8]
30010cfc:	e5952008 	ldr	r2, [r5, #8]
30010d00:	e595301c 	ldr	r3, [r5, #28]
30010d04:	e3520000 	cmp	r2, #0	; 0x0
30010d08:	13540000 	cmpne	r4, #0	; 0x0
30010d0c:	e0833004 	add	r3, r3, r4
30010d10:	e585301c 	str	r3, [r5, #28]
30010d14:	0a00000f 	beq	30010d58 <inflate+0x16d0>
30010d18:	e5953010 	ldr	r3, [r5, #16]
30010d1c:	e3530000 	cmp	r3, #0	; 0x0
30010d20:	e59b100c 	ldr	r1, [fp, #12]
30010d24:	e2643000 	rsb	r3, r4, #0	; 0x0
30010d28:	0a000004 	beq	30010d40 <inflate+0x16b8>
30010d2c:	e0811003 	add	r1, r1, r3
30010d30:	e5950018 	ldr	r0, [r5, #24]
30010d34:	e1a02004 	mov	r2, r4
30010d38:	ebffeebc 	bl	3000c830 <crc32>
30010d3c:	ea000003 	b	30010d50 <inflate+0x16c8>
30010d40:	e0811003 	add	r1, r1, r3
30010d44:	e5950018 	ldr	r0, [r5, #24]
30010d48:	e1a02004 	mov	r2, r4
30010d4c:	ebfff97a 	bl	3000f33c <adler32>
30010d50:	e5850018 	str	r0, [r5, #24]
30010d54:	e58b0034 	str	r0, [fp, #52]
30010d58:	e895000a 	ldm	r5, {r1, r3}
30010d5c:	e351000b 	cmp	r1, #11	; 0xb
30010d60:	03a01080 	moveq	r1, #128	; 0x80
30010d64:	13a01000 	movne	r1, #0	; 0x0
30010d68:	e3530000 	cmp	r3, #0	; 0x0
30010d6c:	13a03040 	movne	r3, #64	; 0x40
30010d70:	03a03000 	moveq	r3, #0	; 0x0
30010d74:	e595003c 	ldr	r0, [r5, #60]
30010d78:	e1946006 	orrs	r6, r4, r6
30010d7c:	e59dc008 	ldr	ip, [sp, #8]
30010d80:	13a02000 	movne	r2, #0	; 0x0
30010d84:	03a02001 	moveq	r2, #1	; 0x1
30010d88:	e35c0004 	cmp	ip, #4	; 0x4
30010d8c:	03822001 	orreq	r2, r2, #1	; 0x1
30010d90:	e0833000 	add	r3, r3, r0
30010d94:	e0833001 	add	r3, r3, r1
30010d98:	e3520000 	cmp	r2, #0	; 0x0
30010d9c:	e58b302c 	str	r3, [fp, #44]
30010da0:	0a000006 	beq	30010dc0 <inflate+0x1738>
30010da4:	e59d003c 	ldr	r0, [sp, #60]
30010da8:	e3500000 	cmp	r0, #0	; 0x0
30010dac:	03e00004 	mvneq	r0, #4	; 0x4
30010db0:	e58d003c 	str	r0, [sp, #60]
30010db4:	ea000001 	b	30010dc0 <inflate+0x1738>
30010db8:	e3e01001 	mvn	r1, #1	; 0x1
30010dbc:	e58d103c 	str	r1, [sp, #60]
30010dc0:	e59d003c 	ldr	r0, [sp, #60]
30010dc4:	e28dd058 	add	sp, sp, #88	; 0x58
30010dc8:	e8bd8ef0 	pop	{r4, r5, r6, r7, r9, sl, fp, pc}

30010dcc <get_PLLCLK>:
30010dcc:	e3500000 	cmp	r0, #0	; 0x0
30010dd0:	03a03313 	moveq	r3, #1275068416	; 0x4c000000
30010dd4:	e92d4010 	push	{r4, lr}
30010dd8:	0593c004 	ldreq	ip, [r3, #4]
30010ddc:	0a000003 	beq	30010df0 <get_PLLCLK+0x24>
30010de0:	e3500001 	cmp	r0, #1	; 0x1
30010de4:	03a03313 	moveq	r3, #1275068416	; 0x4c000000
30010de8:	0593c008 	ldreq	ip, [r3, #8]
30010dec:	1bffbd8a 	blne	3000041c <hang>
30010df0:	e20c2aff 	and	r2, ip, #1044480	; 0xff000
30010df4:	e20c1e3f 	and	r1, ip, #1008	; 0x3f0
30010df8:	e59f3020 	ldr	r3, [pc, #32]	; 30010e20 <get_PLLCLK+0x54>
30010dfc:	e1a02622 	lsr	r2, r2, #12
30010e00:	e1a01221 	lsr	r1, r1, #4
30010e04:	e2822008 	add	r2, r2, #8	; 0x8
30010e08:	e20cc003 	and	ip, ip, #3	; 0x3
30010e0c:	e2811002 	add	r1, r1, #2	; 0x2
30010e10:	e0000293 	mul	r0, r3, r2
30010e14:	e1a01c11 	lsl	r1, r1, ip
30010e18:	eb00132d 	bl	30015ad4 <__aeabi_uidiv>
30010e1c:	e8bd8010 	pop	{r4, pc}
30010e20:	00b71b00 	.word	0x00b71b00

30010e24 <get_UCLK>:
30010e24:	e3a00001 	mov	r0, #1	; 0x1
30010e28:	eaffffe7 	b	30010dcc <get_PLLCLK>

30010e2c <get_FCLK>:
30010e2c:	e3a00000 	mov	r0, #0	; 0x0
30010e30:	eaffffe5 	b	30010dcc <get_PLLCLK>

30010e34 <get_HCLK>:
30010e34:	e3a03313 	mov	r3, #1275068416	; 0x4c000000
30010e38:	e5933014 	ldr	r3, [r3, #20]
30010e3c:	e3130002 	tst	r3, #2	; 0x2
30010e40:	e92d4010 	push	{r4, lr}
30010e44:	0a000002 	beq	30010e54 <get_HCLK+0x20>
30010e48:	ebfffff7 	bl	30010e2c <get_FCLK>
30010e4c:	e1a000a0 	lsr	r0, r0, #1
30010e50:	e8bd8010 	pop	{r4, pc}
30010e54:	e8bd4010 	pop	{r4, lr}
30010e58:	eafffff3 	b	30010e2c <get_FCLK>

30010e5c <get_PCLK>:
30010e5c:	e3a03313 	mov	r3, #1275068416	; 0x4c000000
30010e60:	e5933014 	ldr	r3, [r3, #20]
30010e64:	e3130001 	tst	r3, #1	; 0x1
30010e68:	e92d4010 	push	{r4, lr}
30010e6c:	0a000002 	beq	30010e7c <get_PCLK+0x20>
30010e70:	ebffffef 	bl	30010e34 <get_HCLK>
30010e74:	e1a000a0 	lsr	r0, r0, #1
30010e78:	e8bd8010 	pop	{r4, pc}
30010e7c:	e8bd4010 	pop	{r4, lr}
30010e80:	eaffffeb 	b	30010e34 <get_HCLK>

30010e84 <READ_TIMER>:
30010e84:	e3a03451 	mov	r3, #1358954496	; 0x51000000
30010e88:	e5930040 	ldr	r0, [r3, #64]
30010e8c:	e1a00800 	lsl	r0, r0, #16
30010e90:	e1a00820 	lsr	r0, r0, #16
30010e94:	e1a0f00e 	mov	pc, lr

30010e98 <set_timer>:
30010e98:	e59f3004 	ldr	r3, [pc, #4]	; 30010ea4 <set_timer+0xc>
30010e9c:	e5830000 	str	r0, [r3]
30010ea0:	e1a0f00e 	mov	pc, lr
30010ea4:	3001e11c 	.word	0x3001e11c

30010ea8 <reset_timer_masked>:
30010ea8:	e92d4010 	push	{r4, lr}
30010eac:	ebfffff4 	bl	30010e84 <READ_TIMER>
30010eb0:	e59f200c 	ldr	r2, [pc, #12]	; 30010ec4 <reset_timer_masked+0x1c>
30010eb4:	e3a03000 	mov	r3, #0	; 0x0
30010eb8:	e5823000 	str	r3, [r2]
30010ebc:	e5820004 	str	r0, [r2, #4]
30010ec0:	e8bd8010 	pop	{r4, pc}
30010ec4:	3001e11c 	.word	0x3001e11c

30010ec8 <reset_timer>:
30010ec8:	eafffff6 	b	30010ea8 <reset_timer_masked>

30010ecc <get_ticks>:
30010ecc:	e92d4010 	push	{r4, lr}
30010ed0:	ebffffeb 	bl	30010e84 <READ_TIMER>
30010ed4:	e59fc038 	ldr	ip, [pc, #56]	; 30010f14 <get_ticks+0x48>
30010ed8:	e59c1004 	ldr	r1, [ip, #4]
30010edc:	e1510000 	cmp	r1, r0
30010ee0:	359c3000 	ldrcc	r3, [ip]
30010ee4:	259c3000 	ldrcs	r3, [ip]
30010ee8:	359c2008 	ldrcc	r2, [ip, #8]
30010eec:	30813003 	addcc	r3, r1, r3
30010ef0:	20813003 	addcs	r3, r1, r3
30010ef4:	30833002 	addcc	r3, r3, r2
30010ef8:	e0603003 	rsb	r3, r0, r3
30010efc:	e58c3000 	str	r3, [ip]
30010f00:	e59f300c 	ldr	r3, [pc, #12]	; 30010f14 <get_ticks+0x48>
30010f04:	e3a01000 	mov	r1, #0	; 0x0
30010f08:	e5830004 	str	r0, [r3, #4]
30010f0c:	e5930000 	ldr	r0, [r3]
30010f10:	e8bd8010 	pop	{r4, pc}
30010f14:	3001e11c 	.word	0x3001e11c

30010f18 <udelay_masked>:
30010f18:	e3500ffa 	cmp	r0, #1000	; 0x3e8
30010f1c:	e92d4010 	push	{r4, lr}
30010f20:	e1a01000 	mov	r1, r0
30010f24:	e59f4058 	ldr	r4, [pc, #88]	; 30010f84 <udelay_masked+0x6c>
30010f28:	3a000007 	bcc	30010f4c <udelay_masked+0x34>
30010f2c:	e3a01ffa 	mov	r1, #1000	; 0x3e8
30010f30:	eb0012e7 	bl	30015ad4 <__aeabi_uidiv>
30010f34:	e5943008 	ldr	r3, [r4, #8]
30010f38:	e3a02064 	mov	r2, #100	; 0x64
30010f3c:	e0030392 	mul	r3, r2, r3
30010f40:	e3a01ffa 	mov	r1, #1000	; 0x3e8
30010f44:	e0000093 	mul	r0, r3, r0
30010f48:	ea000004 	b	30010f60 <udelay_masked+0x48>
30010f4c:	e5943008 	ldr	r3, [r4, #8]
30010f50:	e3a02064 	mov	r2, #100	; 0x64
30010f54:	e0030392 	mul	r3, r2, r3
30010f58:	e0000391 	mul	r0, r1, r3
30010f5c:	e59f1024 	ldr	r1, [pc, #36]	; 30010f88 <udelay_masked+0x70>
30010f60:	eb0012db 	bl	30015ad4 <__aeabi_uidiv>
30010f64:	e1a04000 	mov	r4, r0
30010f68:	ebffffd7 	bl	30010ecc <get_ticks>
30010f6c:	e0844000 	add	r4, r4, r0
30010f70:	ebffffd5 	bl	30010ecc <get_ticks>
30010f74:	e0600004 	rsb	r0, r0, r4
30010f78:	e3500000 	cmp	r0, #0	; 0x0
30010f7c:	aafffffb 	bge	30010f70 <udelay_masked+0x58>
30010f80:	e8bd8010 	pop	{r4, pc}
30010f84:	3001e11c 	.word	0x3001e11c
30010f88:	000f4240 	.word	0x000f4240

30010f8c <get_timer_masked>:
30010f8c:	e92d4010 	push	{r4, lr}
30010f90:	ebffffcd 	bl	30010ecc <get_ticks>
30010f94:	e59f301c 	ldr	r3, [pc, #28]	; 30010fb8 <get_timer_masked+0x2c>
30010f98:	e1a04000 	mov	r4, r0
30010f9c:	e3a01ffa 	mov	r1, #1000	; 0x3e8
30010fa0:	e593000c 	ldr	r0, [r3, #12]
30010fa4:	eb0012ca 	bl	30015ad4 <__aeabi_uidiv>
30010fa8:	e1a01000 	mov	r1, r0
30010fac:	e1a00004 	mov	r0, r4
30010fb0:	eb0012c7 	bl	30015ad4 <__aeabi_uidiv>
30010fb4:	e8bd8010 	pop	{r4, pc}
30010fb8:	3001e11c 	.word	0x3001e11c

30010fbc <get_timer>:
30010fbc:	e92d4010 	push	{r4, lr}
30010fc0:	e1a04000 	mov	r4, r0
30010fc4:	ebfffff0 	bl	30010f8c <get_timer_masked>
30010fc8:	e0640000 	rsb	r0, r4, r0
30010fcc:	e8bd8010 	pop	{r4, pc}

30010fd0 <udelay>:
30010fd0:	e92d4070 	push	{r4, r5, r6, lr}
30010fd4:	e1a04000 	mov	r4, r0
30010fd8:	ebffffbb 	bl	30010ecc <get_ticks>
30010fdc:	e3a01ffa 	mov	r1, #1000	; 0x3e8
30010fe0:	e1a05000 	mov	r5, r0
30010fe4:	e1a00004 	mov	r0, r4
30010fe8:	eb0012b9 	bl	30015ad4 <__aeabi_uidiv>
30010fec:	e59f302c 	ldr	r3, [pc, #44]	; 30011020 <udelay+0x50>
30010ff0:	e5932008 	ldr	r2, [r3, #8]
30010ff4:	e3a03064 	mov	r3, #100	; 0x64
30010ff8:	e0030392 	mul	r3, r2, r3
30010ffc:	e3a01ffa 	mov	r1, #1000	; 0x3e8
30011000:	e0000093 	mul	r0, r3, r0
30011004:	eb0012b2 	bl	30015ad4 <__aeabi_uidiv>
30011008:	e1a04000 	mov	r4, r0
3001100c:	ebffffae 	bl	30010ecc <get_ticks>
30011010:	e0650000 	rsb	r0, r5, r0
30011014:	e1500004 	cmp	r0, r4
30011018:	3afffffb 	bcc	3001100c <udelay+0x3c>
3001101c:	e8bd8070 	pop	{r4, r5, r6, pc}
30011020:	3001e11c 	.word	0x3001e11c

30011024 <get_tbclk>:
30011024:	e3a00ffa 	mov	r0, #1000	; 0x3e8
30011028:	e1a0f00e 	mov	pc, lr

3001102c <reset_cpu>:
3001102c:	e3a02453 	mov	r2, #1392508928	; 0x53000000
30011030:	e3a03000 	mov	r3, #0	; 0x0
30011034:	e5823000 	str	r3, [r2]
30011038:	e2833001 	add	r3, r3, #1	; 0x1
3001103c:	e5823008 	str	r3, [r2, #8]
30011040:	e2833020 	add	r3, r3, #32	; 0x20
30011044:	e5823000 	str	r3, [r2]
30011048:	eafffffe 	b	30011048 <reset_cpu+0x1c>

3001104c <timer_init>:
3001104c:	e92d4010 	push	{r4, lr}
30011050:	e59f406c 	ldr	r4, [pc, #108]	; 300110c4 <timer_init+0x78>
30011054:	e5943008 	ldr	r3, [r4, #8]
30011058:	e3a02c0f 	mov	r2, #3840	; 0xf00
3001105c:	e3530000 	cmp	r3, #0	; 0x0
30011060:	e3a03451 	mov	r3, #1358954496	; 0x51000000
30011064:	e5832000 	str	r2, [r3]
30011068:	1a000006 	bne	30011088 <timer_init+0x3c>
3001106c:	ebffff7a 	bl	30010e5c <get_PCLK>
30011070:	e3a01d32 	mov	r1, #3200	; 0xc80
30011074:	eb001296 	bl	30015ad4 <__aeabi_uidiv>
30011078:	e5840008 	str	r0, [r4, #8]
3001107c:	ebffff76 	bl	30010e5c <get_PCLK>
30011080:	e1a002a0 	lsr	r0, r0, #5
30011084:	e584000c 	str	r0, [r4, #12]
30011088:	e59fc034 	ldr	ip, [pc, #52]	; 300110c4 <timer_init+0x78>
3001108c:	e59c4008 	ldr	r4, [ip, #8]
30011090:	e3a01451 	mov	r1, #1358954496	; 0x51000000
30011094:	e581403c 	str	r4, [r1, #60]
30011098:	e5913008 	ldr	r3, [r1, #8]
3001109c:	e3c33607 	bic	r3, r3, #7340032	; 0x700000
300110a0:	e3833606 	orr	r3, r3, #6291456	; 0x600000
300110a4:	e3c32607 	bic	r2, r3, #7340032	; 0x700000
300110a8:	e3822605 	orr	r2, r2, #5242880	; 0x500000
300110ac:	e3a00000 	mov	r0, #0	; 0x0
300110b0:	e5813008 	str	r3, [r1, #8]
300110b4:	e58c0000 	str	r0, [ip]
300110b8:	e5812008 	str	r2, [r1, #8]
300110bc:	e58c4004 	str	r4, [ip, #4]
300110c0:	e8bd8010 	pop	{r4, pc}
300110c4:	3001e11c 	.word	0x3001e11c

300110c8 <do_bootm_linux>:
300110c8:	e92d4ef0 	push	{r4, r5, r6, r7, r9, sl, fp, lr}
300110cc:	e5987000 	ldr	r7, [r8]
300110d0:	e1a04000 	mov	r4, r0
300110d4:	e59f0194 	ldr	r0, [pc, #404]	; 30011270 <do_bootm_linux+0x1a8>
300110d8:	e1a0a003 	mov	sl, r3
300110dc:	e597500c 	ldr	r5, [r7, #12]
300110e0:	ebffcea2 	bl	30004b70 <getenv>
300110e4:	e3540000 	cmp	r4, #0	; 0x0
300110e8:	13540080 	cmpne	r4, #128	; 0x80
300110ec:	e1a06000 	mov	r6, r0
300110f0:	03a04000 	moveq	r4, #0	; 0x0
300110f4:	13a04001 	movne	r4, #1	; 0x1
300110f8:	1a00005a 	bne	30011268 <do_bootm_linux+0x1a0>
300110fc:	e59f0170 	ldr	r0, [pc, #368]	; 30011274 <do_bootm_linux+0x1ac>
30011100:	e59ab060 	ldr	fp, [sl, #96]
30011104:	ebffce99 	bl	30004b70 <getenv>
30011108:	e3500000 	cmp	r0, #0	; 0x0
3001110c:	01a09005 	moveq	r9, r5
30011110:	0a000006 	beq	30011130 <do_bootm_linux+0x68>
30011114:	e1a01004 	mov	r1, r4
30011118:	e3a02010 	mov	r2, #16	; 0x10
3001111c:	ebfff208 	bl	3000d944 <simple_strtoul>
30011120:	e1a09000 	mov	r9, r0
30011124:	e1a01000 	mov	r1, r0
30011128:	e59f0148 	ldr	r0, [pc, #328]	; 30011278 <do_bootm_linux+0x1b0>
3001112c:	ebffd474 	bl	30006304 <printf>
30011130:	e3a0000f 	mov	r0, #15	; 0xf
30011134:	ebffe41a 	bl	3000a1a4 <__show_boot_progress>
30011138:	e5975010 	ldr	r5, [r7, #16]
3001113c:	e3a03000 	mov	r3, #0	; 0x0
30011140:	e5853010 	str	r3, [r5, #16]
30011144:	e5853008 	str	r3, [r5, #8]
30011148:	e585300c 	str	r3, [r5, #12]
3001114c:	e5973014 	ldr	r3, [r7, #20]
30011150:	e2852014 	add	r2, r5, #20	; 0x14
30011154:	e582300c 	str	r3, [r2, #12]
30011158:	e5973018 	ldr	r3, [r7, #24]
3001115c:	e5823008 	str	r3, [r2, #8]
30011160:	e59f3114 	ldr	r3, [pc, #276]	; 3001127c <do_bootm_linux+0x1b4>
30011164:	e5853004 	str	r3, [r5, #4]
30011168:	e3a03005 	mov	r3, #5	; 0x5
3001116c:	e5853000 	str	r3, [r5]
30011170:	e59f3108 	ldr	r3, [pc, #264]	; 30011280 <do_bootm_linux+0x1b8>
30011174:	e5823004 	str	r3, [r2, #4]
30011178:	e3a03004 	mov	r3, #4	; 0x4
3001117c:	e5853014 	str	r3, [r5, #20]
30011180:	e59f30fc 	ldr	r3, [pc, #252]	; 30011284 <do_bootm_linux+0x1bc>
30011184:	e2851024 	add	r1, r5, #36	; 0x24
30011188:	e3560000 	cmp	r6, #0	; 0x0
3001118c:	e5831000 	str	r1, [r3]
30011190:	1a000001 	bne	3001119c <do_bootm_linux+0xd4>
30011194:	ea000015 	b	300111f0 <do_bootm_linux+0x128>
30011198:	e2866001 	add	r6, r6, #1	; 0x1
3001119c:	e5d63000 	ldrb	r3, [r6]
300111a0:	e3530020 	cmp	r3, #32	; 0x20
300111a4:	0afffffb 	beq	30011198 <do_bootm_linux+0xd0>
300111a8:	e3530000 	cmp	r3, #0	; 0x0
300111ac:	0a00000f 	beq	300111f0 <do_bootm_linux+0x128>
300111b0:	e59f30d0 	ldr	r3, [pc, #208]	; 30011288 <do_bootm_linux+0x1c0>
300111b4:	e1a00006 	mov	r0, r6
300111b8:	e5813004 	str	r3, [r1, #4]
300111bc:	ebfff0a8 	bl	3000d464 <strlen>
300111c0:	e59f40bc 	ldr	r4, [pc, #188]	; 30011284 <do_bootm_linux+0x1bc>
300111c4:	e280000d 	add	r0, r0, #13	; 0xd
300111c8:	e5943000 	ldr	r3, [r4]
300111cc:	e1a00120 	lsr	r0, r0, #2
300111d0:	e5850024 	str	r0, [r5, #36]
300111d4:	e1a01006 	mov	r1, r6
300111d8:	e2830008 	add	r0, r3, #8	; 0x8
300111dc:	ebfff03c 	bl	3000d2d4 <strcpy>
300111e0:	e5943000 	ldr	r3, [r4]
300111e4:	e5932000 	ldr	r2, [r3]
300111e8:	e0833102 	add	r3, r3, r2, lsl #2
300111ec:	e5843000 	str	r3, [r4]
300111f0:	e59ac064 	ldr	ip, [sl, #100]
300111f4:	e35c0000 	cmp	ip, #0	; 0x0
300111f8:	0a00000d 	beq	30011234 <do_bootm_linux+0x16c>
300111fc:	e59a3068 	ldr	r3, [sl, #104]
30011200:	e3530000 	cmp	r3, #0	; 0x0
30011204:	0a00000a 	beq	30011234 <do_bootm_linux+0x16c>
30011208:	e59f1074 	ldr	r1, [pc, #116]	; 30011284 <do_bootm_linux+0x1bc>
3001120c:	e5912000 	ldr	r2, [r1]
30011210:	e06c3003 	rsb	r3, ip, r3
30011214:	e582300c 	str	r3, [r2, #12]
30011218:	e59f306c 	ldr	r3, [pc, #108]	; 3001128c <do_bootm_linux+0x1c4>
3001121c:	e2820010 	add	r0, r2, #16	; 0x10
30011220:	e5823004 	str	r3, [r2, #4]
30011224:	e3a03004 	mov	r3, #4	; 0x4
30011228:	e582c008 	str	ip, [r2, #8]
3001122c:	e5823000 	str	r3, [r2]
30011230:	e5810000 	str	r0, [r1]
30011234:	e59f3048 	ldr	r3, [pc, #72]	; 30011284 <do_bootm_linux+0x1bc>
30011238:	e5933000 	ldr	r3, [r3]
3001123c:	e3a04000 	mov	r4, #0	; 0x0
30011240:	e5834000 	str	r4, [r3]
30011244:	e5834004 	str	r4, [r3, #4]
30011248:	e59f0040 	ldr	r0, [pc, #64]	; 30011290 <do_bootm_linux+0x1c8>
3001124c:	ebffd42c 	bl	30006304 <printf>
30011250:	eb001210 	bl	30015a98 <cleanup_before_linux>
30011254:	e1a00004 	mov	r0, r4
30011258:	e1a01009 	mov	r1, r9
3001125c:	e5972010 	ldr	r2, [r7, #16]
30011260:	e1a0e00f 	mov	lr, pc
30011264:	e1a0f00b 	mov	pc, fp
30011268:	e3a00001 	mov	r0, #1	; 0x1
3001126c:	e8bd8ef0 	pop	{r4, r5, r6, r7, r9, sl, fp, pc}
30011270:	300175c2 	.word	0x300175c2
30011274:	3001abca 	.word	0x3001abca
30011278:	3001abd1 	.word	0x3001abd1
3001127c:	54410001 	.word	0x54410001
30011280:	54410002 	.word	0x54410002
30011284:	3001e12c 	.word	0x3001e12c
30011288:	54410009 	.word	0x54410009
3001128c:	54420005 	.word	0x54420005
30011290:	3001abf5 	.word	0x3001abf5

30011294 <flush_cache>:
30011294:	e1a0f00e 	mov	pc, lr

30011298 <get_cr>:
30011298:	ee110f10 	mrc	15, 0, r0, cr1, cr0, {0}
3001129c:	e1a0f00e 	mov	pc, lr

300112a0 <set_cr>:
300112a0:	ee010f10 	mcr	15, 0, r0, cr1, cr0, {0}
300112a4:	e1a0f00e 	mov	pc, lr

300112a8 <cp_delay>:
300112a8:	e24dd008 	sub	sp, sp, #8	; 0x8
300112ac:	e3a03000 	mov	r3, #0	; 0x0
300112b0:	ea000002 	b	300112c0 <cp_delay+0x18>
300112b4:	e1a00000 	nop			(mov r0,r0)
300112b8:	e59d3004 	ldr	r3, [sp, #4]
300112bc:	e2833001 	add	r3, r3, #1	; 0x1
300112c0:	e58d3004 	str	r3, [sp, #4]
300112c4:	e59d3004 	ldr	r3, [sp, #4]
300112c8:	e3530063 	cmp	r3, #99	; 0x63
300112cc:	dafffff8 	ble	300112b4 <cp_delay+0xc>
300112d0:	e28dd008 	add	sp, sp, #8	; 0x8
300112d4:	e1a0f00e 	mov	pc, lr

300112d8 <cache_enable>:
300112d8:	e92d4070 	push	{r4, r5, r6, lr}
300112dc:	e1a05000 	mov	r5, r0
300112e0:	ebffffec 	bl	30011298 <get_cr>
300112e4:	e1a04000 	mov	r4, r0
300112e8:	ebffffee 	bl	300112a8 <cp_delay>
300112ec:	e1850004 	orr	r0, r5, r4
300112f0:	e8bd4070 	pop	{r4, r5, r6, lr}
300112f4:	eaffffe9 	b	300112a0 <set_cr>

300112f8 <cache_disable>:
300112f8:	e92d4070 	push	{r4, r5, r6, lr}
300112fc:	e1a05000 	mov	r5, r0
30011300:	ebffffe4 	bl	30011298 <get_cr>
30011304:	e1a04000 	mov	r4, r0
30011308:	ebffffe6 	bl	300112a8 <cp_delay>
3001130c:	e1c40005 	bic	r0, r4, r5
30011310:	e8bd4070 	pop	{r4, r5, r6, lr}
30011314:	eaffffe1 	b	300112a0 <set_cr>

30011318 <icache_enable>:
30011318:	e3a00a01 	mov	r0, #4096	; 0x1000
3001131c:	eaffffed 	b	300112d8 <cache_enable>

30011320 <icache_disable>:
30011320:	e3a00a01 	mov	r0, #4096	; 0x1000
30011324:	eafffff3 	b	300112f8 <cache_disable>

30011328 <icache_status>:
30011328:	e92d4010 	push	{r4, lr}
3001132c:	ebffffd9 	bl	30011298 <get_cr>
30011330:	e1a00620 	lsr	r0, r0, #12
30011334:	e2000001 	and	r0, r0, #1	; 0x1
30011338:	e8bd8010 	pop	{r4, pc}

3001133c <dcache_enable>:
3001133c:	e3a00004 	mov	r0, #4	; 0x4
30011340:	eaffffe4 	b	300112d8 <cache_enable>

30011344 <dcache_disable>:
30011344:	e3a00004 	mov	r0, #4	; 0x4
30011348:	eaffffea 	b	300112f8 <cache_disable>

3001134c <dcache_status>:
3001134c:	e92d4010 	push	{r4, lr}
30011350:	ebffffd0 	bl	30011298 <get_cr>
30011354:	e1a00120 	lsr	r0, r0, #2
30011358:	e2000001 	and	r0, r0, #1	; 0x1
3001135c:	e8bd8010 	pop	{r4, pc}

30011360 <do_reset>:
30011360:	e92d4010 	push	{r4, lr}
30011364:	e59f001c 	ldr	r0, [pc, #28]	; 30011388 <do_reset+0x28>
30011368:	ebffd3d3 	bl	300062bc <puts>
3001136c:	e59f0018 	ldr	r0, [pc, #24]	; 3001138c <do_reset+0x2c>
30011370:	ebffff16 	bl	30010fd0 <udelay>
30011374:	ebffbc58 	bl	300004dc <disable_interrupts>
30011378:	e3a00000 	mov	r0, #0	; 0x0
3001137c:	ebffff2a 	bl	3001102c <reset_cpu>
30011380:	e3a00000 	mov	r0, #0	; 0x0
30011384:	e8bd8010 	pop	{r4, pc}
30011388:	3001ac0c 	.word	0x3001ac0c
3001138c:	0000c350 	.word	0x0000c350

30011390 <__fswab16>:
30011390:	e1a03420 	lsr	r3, r0, #8
30011394:	e1833400 	orr	r3, r3, r0, lsl #8
30011398:	e1a03803 	lsl	r3, r3, #16
3001139c:	e1a00823 	lsr	r0, r3, #16
300113a0:	e1a0f00e 	mov	pc, lr

300113a4 <__fswab32>:
300113a4:	e1a03000 	mov	r3, r0
300113a8:	e1a00c00 	lsl	r0, r0, #24
300113ac:	e2032cff 	and	r2, r3, #65280	; 0xff00
300113b0:	e1800c23 	orr	r0, r0, r3, lsr #24
300113b4:	e1800402 	orr	r0, r0, r2, lsl #8
300113b8:	e20338ff 	and	r3, r3, #16711680	; 0xff0000
300113bc:	e1800423 	orr	r0, r0, r3, lsr #8
300113c0:	e1a0f00e 	mov	pc, lr

300113c4 <startAgainTimeout>:
300113c4:	e59f3008 	ldr	r3, [pc, #8]	; 300113d4 <startAgainTimeout+0x10>
300113c8:	e3a02002 	mov	r2, #2	; 0x2
300113cc:	e5832000 	str	r2, [r3]
300113d0:	e1a0f00e 	mov	pc, lr
300113d4:	3001e130 	.word	0x3001e130

300113d8 <startAgainHandler>:
300113d8:	e1a0f00e 	mov	pc, lr

300113dc <NetSetHandler>:
300113dc:	e59f3004 	ldr	r3, [pc, #4]	; 300113e8 <NetSetHandler+0xc>
300113e0:	e5830004 	str	r0, [r3, #4]
300113e4:	e1a0f00e 	mov	pc, lr
300113e8:	3001e130 	.word	0x3001e130

300113ec <NetCksum>:
300113ec:	e3a0c000 	mov	ip, #0	; 0x0
300113f0:	e1a0200c 	mov	r2, ip
300113f4:	ea000002 	b	30011404 <NetCksum+0x18>
300113f8:	e19030b2 	ldrh	r3, [r0, r2]
300113fc:	e2822002 	add	r2, r2, #2	; 0x2
30011400:	e08cc003 	add	ip, ip, r3
30011404:	e3510000 	cmp	r1, #0	; 0x0
30011408:	e2411001 	sub	r1, r1, #1	; 0x1
3001140c:	cafffff9 	bgt	300113f8 <NetCksum+0xc>
30011410:	e1a0380c 	lsl	r3, ip, #16
30011414:	e1a03823 	lsr	r3, r3, #16
30011418:	e083382c 	add	r3, r3, ip, lsr #16
3001141c:	e1a00803 	lsl	r0, r3, #16
30011420:	e1a00820 	lsr	r0, r0, #16
30011424:	e0800823 	add	r0, r0, r3, lsr #16
30011428:	e1a00800 	lsl	r0, r0, #16
3001142c:	e1a00820 	lsr	r0, r0, #16
30011430:	e1a0f00e 	mov	pc, lr

30011434 <NetCksumOk>:
30011434:	e92d4010 	push	{r4, lr}
30011438:	ebffffeb 	bl	300113ec <NetCksum>
3001143c:	e59f3010 	ldr	r3, [pc, #16]	; 30011454 <NetCksumOk+0x20>
30011440:	e2800001 	add	r0, r0, #1	; 0x1
30011444:	e0003003 	and	r3, r0, r3
30011448:	e2730001 	rsbs	r0, r3, #1	; 0x1
3001144c:	33a00000 	movcc	r0, #0	; 0x0
30011450:	e8bd8010 	pop	{r4, pc}
30011454:	0000fffe 	.word	0x0000fffe

30011458 <copy_filename>:
30011458:	e5d13000 	ldrb	r3, [r1]
3001145c:	e3530022 	cmp	r3, #34	; 0x22
30011460:	e92d4010 	push	{r4, lr}
30011464:	02811001 	addeq	r1, r1, #1	; 0x1
30011468:	02422001 	subeq	r2, r2, #1	; 0x1
3001146c:	e3a0c000 	mov	ip, #0	; 0x0
30011470:	ea000000 	b	30011478 <copy_filename+0x20>
30011474:	e5403001 	strb	r3, [r0, #-1]
30011478:	e2422001 	sub	r2, r2, #1	; 0x1
3001147c:	e3520000 	cmp	r2, #0	; 0x0
30011480:	e1a04000 	mov	r4, r0
30011484:	da000006 	ble	300114a4 <copy_filename+0x4c>
30011488:	e7d1300c 	ldrb	r3, [r1, ip]
3001148c:	e3530000 	cmp	r3, #0	; 0x0
30011490:	0a000003 	beq	300114a4 <copy_filename+0x4c>
30011494:	e3530022 	cmp	r3, #34	; 0x22
30011498:	e2800001 	add	r0, r0, #1	; 0x1
3001149c:	e28cc001 	add	ip, ip, #1	; 0x1
300114a0:	1afffff3 	bne	30011474 <copy_filename+0x1c>
300114a4:	e3a03000 	mov	r3, #0	; 0x0
300114a8:	e5c43000 	strb	r3, [r4]
300114ac:	e8bd8010 	pop	{r4, pc}

300114b0 <string_to_VLAN>:
300114b0:	e2503000 	subs	r3, r0, #0	; 0x0
300114b4:	e92d4010 	push	{r4, lr}
300114b8:	1a000001 	bne	300114c4 <string_to_VLAN+0x14>
300114bc:	e59f0030 	ldr	r0, [pc, #48]	; 300114f4 <string_to_VLAN+0x44>
300114c0:	e8bd8010 	pop	{r4, pc}
300114c4:	e5d33000 	ldrb	r3, [r3]
300114c8:	e2433030 	sub	r3, r3, #48	; 0x30
300114cc:	e3530009 	cmp	r3, #9	; 0x9
300114d0:	859f0020 	ldrhi	r0, [pc, #32]	; 300114f8 <string_to_VLAN+0x48>
300114d4:	8a000004 	bhi	300114ec <string_to_VLAN+0x3c>
300114d8:	e3a01000 	mov	r1, #0	; 0x0
300114dc:	e3a0200a 	mov	r2, #10	; 0xa
300114e0:	ebfff117 	bl	3000d944 <simple_strtoul>
300114e4:	e1a00800 	lsl	r0, r0, #16
300114e8:	e1a00820 	lsr	r0, r0, #16
300114ec:	e8bd4010 	pop	{r4, lr}
300114f0:	eaffffa6 	b	30011390 <__fswab16>
300114f4:	0000ff0f 	.word	0x0000ff0f
300114f8:	00000fff 	.word	0x00000fff

300114fc <getenv_VLAN>:
300114fc:	e92d4010 	push	{r4, lr}
30011500:	ebffcd9a 	bl	30004b70 <getenv>
30011504:	e8bd4010 	pop	{r4, lr}
30011508:	eaffffe8 	b	300114b0 <string_to_VLAN>

3001150c <string_to_ip>:
3001150c:	e92d4073 	push	{r0, r1, r4, r5, r6, lr}
30011510:	e2504000 	subs	r4, r0, #0	; 0x0
30011514:	01a00004 	moveq	r0, r4
30011518:	0a000013 	beq	3001156c <string_to_ip+0x60>
3001151c:	e3a05000 	mov	r5, #0	; 0x0
30011520:	e1a06005 	mov	r6, r5
30011524:	e3540000 	cmp	r4, #0	; 0x0
30011528:	e1a00004 	mov	r0, r4
3001152c:	e28d1004 	add	r1, sp, #4	; 0x4
30011530:	e3a0200a 	mov	r2, #10	; 0xa
30011534:	1bfff102 	blne	3000d944 <simple_strtoul>
30011538:	e20030ff 	and	r3, r0, #255	; 0xff
3001153c:	e3540000 	cmp	r4, #0	; 0x0
30011540:	e2866001 	add	r6, r6, #1	; 0x1
30011544:	e1835405 	orr	r5, r3, r5, lsl #8
30011548:	0a000003 	beq	3001155c <string_to_ip+0x50>
3001154c:	e59d4004 	ldr	r4, [sp, #4]
30011550:	e5d43000 	ldrb	r3, [r4]
30011554:	e3530000 	cmp	r3, #0	; 0x0
30011558:	12844001 	addne	r4, r4, #1	; 0x1
3001155c:	e3560004 	cmp	r6, #4	; 0x4
30011560:	1affffef 	bne	30011524 <string_to_ip+0x18>
30011564:	e1a00005 	mov	r0, r5
30011568:	ebffff8d 	bl	300113a4 <__fswab32>
3001156c:	e8bd807c 	pop	{r2, r3, r4, r5, r6, pc}

30011570 <getenv_IPaddr>:
30011570:	e92d4010 	push	{r4, lr}
30011574:	ebffcd7d 	bl	30004b70 <getenv>
30011578:	e8bd4010 	pop	{r4, lr}
3001157c:	eaffffe2 	b	3001150c <string_to_ip>

30011580 <NetEthHdrSize>:
30011580:	e59f3030 	ldr	r3, [pc, #48]	; 300115b8 <NetEthHdrSize+0x38>
30011584:	e92d4010 	push	{r4, lr}
30011588:	e1d300b0 	ldrh	r0, [r3]
3001158c:	ebffff7f 	bl	30011390 <__fswab16>
30011590:	e59f3024 	ldr	r3, [pc, #36]	; 300115bc <NetEthHdrSize+0x3c>
30011594:	e59f2024 	ldr	r2, [pc, #36]	; 300115c0 <NetEthHdrSize+0x40>
30011598:	e1500003 	cmp	r0, r3
3001159c:	01a00002 	moveq	r0, r2
300115a0:	e1a00a00 	lsl	r0, r0, #20
300115a4:	e1a00a20 	lsr	r0, r0, #20
300115a8:	e1500002 	cmp	r0, r2
300115ac:	03a0000e 	moveq	r0, #14	; 0xe
300115b0:	13a00012 	movne	r0, #18	; 0x12
300115b4:	e8bd8010 	pop	{r4, pc}
300115b8:	3001bd30 	.word	0x3001bd30
300115bc:	0000ffff 	.word	0x0000ffff
300115c0:	00000fff 	.word	0x00000fff

300115c4 <VLAN_to_string>:
300115c4:	e92d4010 	push	{r4, lr}
300115c8:	e1a04001 	mov	r4, r1
300115cc:	ebffff6f 	bl	30011390 <__fswab16>
300115d0:	e59f3038 	ldr	r3, [pc, #56]	; 30011610 <VLAN_to_string+0x4c>
300115d4:	e1500003 	cmp	r0, r3
300115d8:	0a000002 	beq	300115e8 <VLAN_to_string+0x24>
300115dc:	e2433a0f 	sub	r3, r3, #61440	; 0xf000
300115e0:	e1500003 	cmp	r0, r3
300115e4:	1a000003 	bne	300115f8 <VLAN_to_string+0x34>
300115e8:	e59f1024 	ldr	r1, [pc, #36]	; 30011614 <VLAN_to_string+0x50>
300115ec:	e1a00004 	mov	r0, r4
300115f0:	e8bd4010 	pop	{r4, lr}
300115f4:	eaffef36 	b	3000d2d4 <strcpy>
300115f8:	e1a02a00 	lsl	r2, r0, #20
300115fc:	e59f1014 	ldr	r1, [pc, #20]	; 30011618 <VLAN_to_string+0x54>
30011600:	e1a00004 	mov	r0, r4
30011604:	e1a02a22 	lsr	r2, r2, #20
30011608:	e8bd4010 	pop	{r4, lr}
3001160c:	eafff3eb 	b	3000e5c0 <sprintf>
30011610:	0000ffff 	.word	0x0000ffff
30011614:	3001a40a 	.word	0x3001a40a
30011618:	3001ac24 	.word	0x3001ac24

3001161c <ip_to_string>:
3001161c:	e92d4037 	push	{r0, r1, r2, r4, r5, lr}
30011620:	e1a05001 	mov	r5, r1
30011624:	ebffff5e 	bl	300113a4 <__fswab32>
30011628:	e1a0c000 	mov	ip, r0
3001162c:	e1a03820 	lsr	r3, r0, #16
30011630:	e1a04420 	lsr	r4, r0, #8
30011634:	e20440ff 	and	r4, r4, #255	; 0xff
30011638:	e1a02c2c 	lsr	r2, ip, #24
3001163c:	e1a00005 	mov	r0, r5
30011640:	e20cc0ff 	and	ip, ip, #255	; 0xff
30011644:	e20330ff 	and	r3, r3, #255	; 0xff
30011648:	e59f1008 	ldr	r1, [pc, #8]	; 30011658 <ip_to_string+0x3c>
3001164c:	e88d1010 	stm	sp, {r4, ip}
30011650:	ebfff3da 	bl	3000e5c0 <sprintf>
30011654:	e8bd803e 	pop	{r1, r2, r3, r4, r5, pc}
30011658:	3001ac1b 	.word	0x3001ac1b

3001165c <random_port>:
3001165c:	e92d4010 	push	{r4, lr}
30011660:	e3a00000 	mov	r0, #0	; 0x0
30011664:	ebfffe54 	bl	30010fbc <get_timer>
30011668:	e1a00880 	lsl	r0, r0, #17
3001166c:	e1a008a0 	lsr	r0, r0, #17
30011670:	e2800b01 	add	r0, r0, #1024	; 0x400
30011674:	e8bd8010 	pop	{r4, pc}

30011678 <NetSetTimeout>:
30011678:	e92d4070 	push	{r4, r5, r6, lr}
3001167c:	e59f4020 	ldr	r4, [pc, #32]	; 300116a4 <NetSetTimeout+0x2c>
30011680:	e2505000 	subs	r5, r0, #0	; 0x0
30011684:	05845008 	streq	r5, [r4, #8]
30011688:	08bd8070 	popeq	{r4, r5, r6, pc}
3001168c:	e3a00000 	mov	r0, #0	; 0x0
30011690:	e5841008 	str	r1, [r4, #8]
30011694:	ebfffe48 	bl	30010fbc <get_timer>
30011698:	e5845010 	str	r5, [r4, #16]
3001169c:	e584000c 	str	r0, [r4, #12]
300116a0:	e8bd8070 	pop	{r4, r5, r6, pc}
300116a4:	3001e130 	.word	0x3001e130

300116a8 <NetCopyIP>:
300116a8:	e3a02004 	mov	r2, #4	; 0x4
300116ac:	eafff017 	b	3000d710 <memcpy>

300116b0 <NetSetIP>:
300116b0:	e92d46f7 	push	{r0, r1, r2, r4, r5, r6, r7, r9, sl, lr}
300116b4:	e59d4028 	ldr	r4, [sp, #40]
300116b8:	e3140001 	tst	r4, #1	; 0x1
300116bc:	e1a09002 	mov	r9, r2
300116c0:	e1a0a003 	mov	sl, r3
300116c4:	1284201c 	addne	r2, r4, #28	; 0x1c
300116c8:	13a03000 	movne	r3, #0	; 0x0
300116cc:	e1a04804 	lsl	r4, r4, #16
300116d0:	e1a07000 	mov	r7, r0
300116d4:	e58d1004 	str	r1, [sp, #4]
300116d8:	e3a06000 	mov	r6, #0	; 0x0
300116dc:	17c03002 	strbne	r3, [r0, r2]
300116e0:	e3a03045 	mov	r3, #69	; 0x45
300116e4:	e2840707 	add	r0, r4, #1835008	; 0x1c0000
300116e8:	e5c73000 	strb	r3, [r7]
300116ec:	e5c76001 	strb	r6, [r7, #1]
300116f0:	e1a00820 	lsr	r0, r0, #16
300116f4:	ebffff25 	bl	30011390 <__fswab16>
300116f8:	e59f50a4 	ldr	r5, [pc, #164]	; 300117a4 <NetSetIP+0xf4>
300116fc:	e5953014 	ldr	r3, [r5, #20]
30011700:	e1a02803 	lsl	r2, r3, #16
30011704:	e1c700b2 	strh	r0, [r7, #2]
30011708:	e2833001 	add	r3, r3, #1	; 0x1
3001170c:	e1a00822 	lsr	r0, r2, #16
30011710:	e5853014 	str	r3, [r5, #20]
30011714:	ebffff1d 	bl	30011390 <__fswab16>
30011718:	e3e03000 	mvn	r3, #0	; 0x0
3001171c:	e5c73008 	strb	r3, [r7, #8]
30011720:	e2833012 	add	r3, r3, #18	; 0x12
30011724:	e5c73009 	strb	r3, [r7, #9]
30011728:	e3a03040 	mov	r3, #64	; 0x40
3001172c:	e1c730b6 	strh	r3, [r7, #6]
30011730:	e1c700b4 	strh	r0, [r7, #4]
30011734:	e2851018 	add	r1, r5, #24	; 0x18
30011738:	e287000c 	add	r0, r7, #12	; 0xc
3001173c:	e1c760ba 	strh	r6, [r7, #10]
30011740:	ebffffd8 	bl	300116a8 <NetCopyIP>
30011744:	e28d1004 	add	r1, sp, #4	; 0x4
30011748:	e2870010 	add	r0, r7, #16	; 0x10
3001174c:	ebffffd5 	bl	300116a8 <NetCopyIP>
30011750:	e1a0080a 	lsl	r0, sl, #16
30011754:	e1a00820 	lsr	r0, r0, #16
30011758:	ebffff0c 	bl	30011390 <__fswab16>
3001175c:	e1a03809 	lsl	r3, r9, #16
30011760:	e1c701b4 	strh	r0, [r7, #20]
30011764:	e1a00823 	lsr	r0, r3, #16
30011768:	ebffff08 	bl	30011390 <__fswab16>
3001176c:	e1a04824 	lsr	r4, r4, #16
30011770:	e2844008 	add	r4, r4, #8	; 0x8
30011774:	e1a04804 	lsl	r4, r4, #16
30011778:	e1c701b6 	strh	r0, [r7, #22]
3001177c:	e1a00824 	lsr	r0, r4, #16
30011780:	ebffff02 	bl	30011390 <__fswab16>
30011784:	e1c761ba 	strh	r6, [r7, #26]
30011788:	e1c701b8 	strh	r0, [r7, #24]
3001178c:	e3a0100a 	mov	r1, #10	; 0xa
30011790:	e1a00007 	mov	r0, r7
30011794:	ebffff14 	bl	300113ec <NetCksum>
30011798:	e1e00000 	mvn	r0, r0
3001179c:	e1c700ba 	strh	r0, [r7, #10]
300117a0:	e8bd86fe 	pop	{r1, r2, r3, r4, r5, r6, r7, r9, sl, pc}
300117a4:	3001e130 	.word	0x3001e130

300117a8 <NetSetEther>:
300117a8:	e59f309c 	ldr	r3, [pc, #156]	; 3001184c <NetSetEther+0xa4>
300117ac:	e92d44f0 	push	{r4, r5, r6, r7, sl, lr}
300117b0:	e1a07000 	mov	r7, r0
300117b4:	e1d300b0 	ldrh	r0, [r3]
300117b8:	e1a06002 	mov	r6, r2
300117bc:	e1a04001 	mov	r4, r1
300117c0:	ebfffef2 	bl	30011390 <__fswab16>
300117c4:	e59f3084 	ldr	r3, [pc, #132]	; 30011850 <NetSetEther+0xa8>
300117c8:	e59f5084 	ldr	r5, [pc, #132]	; 30011854 <NetSetEther+0xac>
300117cc:	e1500003 	cmp	r0, r3
300117d0:	11a0a000 	movne	sl, r0
300117d4:	e1a01004 	mov	r1, r4
300117d8:	e3a02006 	mov	r2, #6	; 0x6
300117dc:	e1a00007 	mov	r0, r7
300117e0:	01a0a005 	moveq	sl, r5
300117e4:	ebffefc9 	bl	3000d710 <memcpy>
300117e8:	e2870006 	add	r0, r7, #6	; 0x6
300117ec:	e59f1064 	ldr	r1, [pc, #100]	; 30011858 <NetSetEther+0xb0>
300117f0:	e3a02006 	mov	r2, #6	; 0x6
300117f4:	ebffefc5 	bl	3000d710 <memcpy>
300117f8:	e1a03a0a 	lsl	r3, sl, #20
300117fc:	e1a03a23 	lsr	r3, r3, #20
30011800:	e1530005 	cmp	r3, r5
30011804:	e1a06806 	lsl	r6, r6, #16
30011808:	1a000004 	bne	30011820 <NetSetEther+0x78>
3001180c:	e1a00826 	lsr	r0, r6, #16
30011810:	ebfffede 	bl	30011390 <__fswab16>
30011814:	e1c700bc 	strh	r0, [r7, #12]
30011818:	e3a0000e 	mov	r0, #14	; 0xe
3001181c:	e8bd84f0 	pop	{r4, r5, r6, r7, sl, pc}
30011820:	e3a03081 	mov	r3, #129	; 0x81
30011824:	e1a00a0a 	lsl	r0, sl, #20
30011828:	e1c730bc 	strh	r3, [r7, #12]
3001182c:	e1a00a20 	lsr	r0, r0, #20
30011830:	ebfffed6 	bl	30011390 <__fswab16>
30011834:	e1c700be 	strh	r0, [r7, #14]
30011838:	e1a00826 	lsr	r0, r6, #16
3001183c:	ebfffed3 	bl	30011390 <__fswab16>
30011840:	e1c701b0 	strh	r0, [r7, #16]
30011844:	e3a00012 	mov	r0, #18	; 0x12
30011848:	e8bd84f0 	pop	{r4, r5, r6, r7, sl, pc}
3001184c:	3001bd30 	.word	0x3001bd30
30011850:	0000ffff 	.word	0x0000ffff
30011854:	00000fff 	.word	0x00000fff
30011858:	3001e14c 	.word	0x3001e14c

3001185c <NetReadIP>:
3001185c:	e92d4007 	push	{r0, r1, r2, lr}
30011860:	e1a01000 	mov	r1, r0
30011864:	e3a02004 	mov	r2, #4	; 0x4
30011868:	e28d0004 	add	r0, sp, #4	; 0x4
3001186c:	ebffefa7 	bl	3000d710 <memcpy>
30011870:	e59d0004 	ldr	r0, [sp, #4]
30011874:	e8bd800e 	pop	{r1, r2, r3, pc}

30011878 <PingHandler>:
30011878:	e92d4010 	push	{r4, lr}
3001187c:	e280000c 	add	r0, r0, #12	; 0xc
30011880:	ebfffff5 	bl	3001185c <NetReadIP>
30011884:	e59f2010 	ldr	r2, [pc, #16]	; 3001189c <PingHandler+0x24>
30011888:	e5923024 	ldr	r3, [r2, #36]
3001188c:	e1500003 	cmp	r0, r3
30011890:	03a03003 	moveq	r3, #3	; 0x3
30011894:	05823000 	streq	r3, [r2]
30011898:	e8bd8010 	pop	{r4, pc}
3001189c:	3001e130 	.word	0x3001e130

300118a0 <NetWriteIP>:
300118a0:	e92d4007 	push	{r0, r1, r2, lr}
300118a4:	e28d3008 	add	r3, sp, #8	; 0x8
300118a8:	e5231004 	str	r1, [r3, #-4]!
300118ac:	e3a02004 	mov	r2, #4	; 0x4
300118b0:	e1a01003 	mov	r1, r3
300118b4:	ebffef95 	bl	3000d710 <memcpy>
300118b8:	e8bd800e 	pop	{r1, r2, r3, pc}

300118bc <NetSendPacket>:
300118bc:	ea000c34 	b	30014994 <eth_send>

300118c0 <NetReceive>:
300118c0:	e59f352c 	ldr	r3, [pc, #1324]	; 30011df4 <NetReceive+0x534>
300118c4:	e351000d 	cmp	r1, #13	; 0xd
300118c8:	e92d4ef3 	push	{r0, r1, r4, r5, r6, r7, r9, sl, fp, lr}
300118cc:	e583102c 	str	r1, [r3, #44]
300118d0:	e1a07001 	mov	r7, r1
300118d4:	e1a09000 	mov	r9, r0
300118d8:	e5830028 	str	r0, [r3, #40]
300118dc:	da000142 	ble	30011dec <NetReceive+0x52c>
300118e0:	e59f4510 	ldr	r4, [pc, #1296]	; 30011df8 <NetReceive+0x538>
300118e4:	e1d400b0 	ldrh	r0, [r4]
300118e8:	ebfffea8 	bl	30011390 <__fswab16>
300118ec:	e1a05000 	mov	r5, r0
300118f0:	e1d400b2 	ldrh	r0, [r4, #2]
300118f4:	ebfffea5 	bl	30011390 <__fswab16>
300118f8:	e59f44fc 	ldr	r4, [pc, #1276]	; 30011dfc <NetReceive+0x53c>
300118fc:	e59fa4fc 	ldr	sl, [pc, #1276]	; 30011e00 <NetReceive+0x540>
30011900:	e1500004 	cmp	r0, r4
30011904:	01a0000a 	moveq	r0, sl
30011908:	e58d0004 	str	r0, [sp, #4]
3001190c:	e1d900bc 	ldrh	r0, [r9, #12]
30011910:	ebfffe9e 	bl	30011390 <__fswab16>
30011914:	e59f34e8 	ldr	r3, [pc, #1256]	; 30011e04 <NetReceive+0x544>
30011918:	e1550004 	cmp	r5, r4
3001191c:	11a0b005 	movne	fp, r5
30011920:	01a0b00a 	moveq	fp, sl
30011924:	e1500003 	cmp	r0, r3
30011928:	e1a06000 	mov	r6, r0
3001192c:	ca000006 	bgt	3001194c <NetReceive+0x8c>
30011930:	e1d901b4 	ldrh	r0, [r9, #20]
30011934:	ebfffe95 	bl	30011390 <__fswab16>
30011938:	e2475016 	sub	r5, r7, #22	; 0x16
3001193c:	e1a06000 	mov	r6, r0
30011940:	e2897016 	add	r7, r9, #22	; 0x16
30011944:	e1a0400a 	mov	r4, sl
30011948:	ea000014 	b	300119a0 <NetReceive+0xe0>
3001194c:	e3500c81 	cmp	r0, #33024	; 0x8100
30011950:	1247500e 	subne	r5, r7, #14	; 0xe
30011954:	11a0400a 	movne	r4, sl
30011958:	1289700e 	addne	r7, r9, #14	; 0xe
3001195c:	1a00000f 	bne	300119a0 <NetReceive+0xe0>
30011960:	e3570011 	cmp	r7, #17	; 0x11
30011964:	da000120 	ble	30011dec <NetReceive+0x52c>
30011968:	e1a03a05 	lsl	r3, r5, #20
3001196c:	e1a03a23 	lsr	r3, r3, #20
30011970:	e153000a 	cmp	r3, sl
30011974:	0a00011c 	beq	30011dec <NetReceive+0x52c>
30011978:	e1d900be 	ldrh	r0, [r9, #14]
3001197c:	ebfffe83 	bl	30011390 <__fswab16>
30011980:	e1a04000 	mov	r4, r0
30011984:	e1d901b0 	ldrh	r0, [r9, #16]
30011988:	ebfffe80 	bl	30011390 <__fswab16>
3001198c:	e1a04a04 	lsl	r4, r4, #20
30011990:	e2475012 	sub	r5, r7, #18	; 0x12
30011994:	e1a06000 	mov	r6, r0
30011998:	e1a04a24 	lsr	r4, r4, #20
3001199c:	e2897012 	add	r7, r9, #18	; 0x12
300119a0:	e1a03a0b 	lsl	r3, fp, #20
300119a4:	e59f2454 	ldr	r2, [pc, #1108]	; 30011e00 <NetReceive+0x540>
300119a8:	e1a03a23 	lsr	r3, r3, #20
300119ac:	e1530002 	cmp	r3, r2
300119b0:	0a000004 	beq	300119c8 <NetReceive+0x108>
300119b4:	e1540002 	cmp	r4, r2
300119b8:	059d2004 	ldreq	r2, [sp, #4]
300119bc:	00024004 	andeq	r4, r2, r4
300119c0:	e1540003 	cmp	r4, r3
300119c4:	1a000108 	bne	30011dec <NetReceive+0x52c>
300119c8:	e59f3438 	ldr	r3, [pc, #1080]	; 30011e08 <NetReceive+0x548>
300119cc:	e1560003 	cmp	r6, r3
300119d0:	0a000005 	beq	300119ec <NetReceive+0x12c>
300119d4:	e59f3430 	ldr	r3, [pc, #1072]	; 30011e0c <NetReceive+0x54c>
300119d8:	e1560003 	cmp	r6, r3
300119dc:	0a00005a 	beq	30011b4c <NetReceive+0x28c>
300119e0:	e3560b02 	cmp	r6, #2048	; 0x800
300119e4:	1a000100 	bne	30011dec <NetReceive+0x52c>
300119e8:	ea000086 	b	30011c08 <NetReceive+0x348>
300119ec:	e355001b 	cmp	r5, #27	; 0x1b
300119f0:	da000057 	ble	30011b54 <NetReceive+0x294>
300119f4:	e1d700b0 	ldrh	r0, [r7]
300119f8:	ebfffe64 	bl	30011390 <__fswab16>
300119fc:	e3500001 	cmp	r0, #1	; 0x1
30011a00:	1a0000f9 	bne	30011dec <NetReceive+0x52c>
30011a04:	e1d700b2 	ldrh	r0, [r7, #2]
30011a08:	ebfffe60 	bl	30011390 <__fswab16>
30011a0c:	e3500b02 	cmp	r0, #2048	; 0x800
30011a10:	1a0000f5 	bne	30011dec <NetReceive+0x52c>
30011a14:	e5d7a004 	ldrb	sl, [r7, #4]
30011a18:	e35a0006 	cmp	sl, #6	; 0x6
30011a1c:	1a0000f2 	bne	30011dec <NetReceive+0x52c>
30011a20:	e5d73005 	ldrb	r3, [r7, #5]
30011a24:	e3530004 	cmp	r3, #4	; 0x4
30011a28:	1a0000ef 	bne	30011dec <NetReceive+0x52c>
30011a2c:	e59fb3c0 	ldr	fp, [pc, #960]	; 30011df4 <NetReceive+0x534>
30011a30:	e59b3018 	ldr	r3, [fp, #24]
30011a34:	e3530000 	cmp	r3, #0	; 0x0
30011a38:	0a0000eb 	beq	30011dec <NetReceive+0x52c>
30011a3c:	e2873018 	add	r3, r7, #24	; 0x18
30011a40:	e1a00003 	mov	r0, r3
30011a44:	e58d3000 	str	r3, [sp]
30011a48:	ebffff83 	bl	3001185c <NetReadIP>
30011a4c:	e59b3018 	ldr	r3, [fp, #24]
30011a50:	e1500003 	cmp	r0, r3
30011a54:	1a0000e4 	bne	30011dec <NetReceive+0x52c>
30011a58:	e1d700b6 	ldrh	r0, [r7, #6]
30011a5c:	ebfffe4b 	bl	30011390 <__fswab16>
30011a60:	e3500001 	cmp	r0, #1	; 0x1
30011a64:	0a000002 	beq	30011a74 <NetReceive+0x1b4>
30011a68:	e3500002 	cmp	r0, #2	; 0x2
30011a6c:	1a0000de 	bne	30011dec <NetReceive+0x52c>
30011a70:	ea000019 	b	30011adc <NetReceive+0x21c>
30011a74:	e1a02006 	mov	r2, r6
30011a78:	e2891006 	add	r1, r9, #6	; 0x6
30011a7c:	e1a00009 	mov	r0, r9
30011a80:	ebffff48 	bl	300117a8 <NetSetEther>
30011a84:	e2874008 	add	r4, r7, #8	; 0x8
30011a88:	e3a02c02 	mov	r2, #512	; 0x200
30011a8c:	e1a06000 	mov	r6, r0
30011a90:	e287500e 	add	r5, r7, #14	; 0xe
30011a94:	e1c720b6 	strh	r2, [r7, #6]
30011a98:	e1a01004 	mov	r1, r4
30011a9c:	e1a0200a 	mov	r2, sl
30011aa0:	e2870012 	add	r0, r7, #18	; 0x12
30011aa4:	ebffef19 	bl	3000d710 <memcpy>
30011aa8:	e59d0000 	ldr	r0, [sp]
30011aac:	e1a01005 	mov	r1, r5
30011ab0:	ebfffefc 	bl	300116a8 <NetCopyIP>
30011ab4:	e1a0200a 	mov	r2, sl
30011ab8:	e28b101c 	add	r1, fp, #28	; 0x1c
30011abc:	e1a00004 	mov	r0, r4
30011ac0:	ebffef12 	bl	3000d710 <memcpy>
30011ac4:	e1a00005 	mov	r0, r5
30011ac8:	e28b1018 	add	r1, fp, #24	; 0x18
30011acc:	ebfffef5 	bl	300116a8 <NetCopyIP>
30011ad0:	e1a00009 	mov	r0, r9
30011ad4:	e286101c 	add	r1, r6, #28	; 0x1c
30011ad8:	ea0000af 	b	30011d9c <NetReceive+0x4dc>
30011adc:	e59f4310 	ldr	r4, [pc, #784]	; 30011df4 <NetReceive+0x534>
30011ae0:	e5943030 	ldr	r3, [r4, #48]
30011ae4:	e3530000 	cmp	r3, #0	; 0x0
30011ae8:	0a0000bf 	beq	30011dec <NetReceive+0x52c>
30011aec:	e5943034 	ldr	r3, [r4, #52]
30011af0:	e3530000 	cmp	r3, #0	; 0x0
30011af4:	0a0000bc 	beq	30011dec <NetReceive+0x52c>
30011af8:	e287000e 	add	r0, r7, #14	; 0xe
30011afc:	ebffff56 	bl	3001185c <NetReadIP>
30011b00:	e5943038 	ldr	r3, [r4, #56]
30011b04:	e1500003 	cmp	r0, r3
30011b08:	1a0000b7 	bne	30011dec <NetReceive+0x52c>
30011b0c:	e2871008 	add	r1, r7, #8	; 0x8
30011b10:	e3a02006 	mov	r2, #6	; 0x6
30011b14:	e5940034 	ldr	r0, [r4, #52]
30011b18:	ebffeefc 	bl	3000d710 <memcpy>
30011b1c:	e5941034 	ldr	r1, [r4, #52]
30011b20:	e3a02006 	mov	r2, #6	; 0x6
30011b24:	e594003c 	ldr	r0, [r4, #60]
30011b28:	ebffeef8 	bl	3000d710 <memcpy>
30011b2c:	e284003c 	add	r0, r4, #60	; 0x3c
30011b30:	e8900003 	ldm	r0, {r0, r1}
30011b34:	eb000b96 	bl	30014994 <eth_send>
30011b38:	e3a03000 	mov	r3, #0	; 0x0
30011b3c:	e5843034 	str	r3, [r4, #52]
30011b40:	e5843030 	str	r3, [r4, #48]
30011b44:	e5843040 	str	r3, [r4, #64]
30011b48:	ea0000a7 	b	30011dec <NetReceive+0x52c>
30011b4c:	e355001b 	cmp	r5, #27	; 0x1b
30011b50:	ca000003 	bgt	30011b64 <NetReceive+0x2a4>
30011b54:	e1a01005 	mov	r1, r5
30011b58:	e59f02b0 	ldr	r0, [pc, #688]	; 30011e10 <NetReceive+0x550>
30011b5c:	e3a0201c 	mov	r2, #28	; 0x1c
30011b60:	ea000032 	b	30011c30 <NetReceive+0x370>
30011b64:	e1d700b6 	ldrh	r0, [r7, #6]
30011b68:	ebfffe08 	bl	30011390 <__fswab16>
30011b6c:	e3500004 	cmp	r0, #4	; 0x4
30011b70:	1a00000d 	bne	30011bac <NetReceive+0x2ec>
30011b74:	e1d700b0 	ldrh	r0, [r7]
30011b78:	ebfffe04 	bl	30011390 <__fswab16>
30011b7c:	e3500001 	cmp	r0, #1	; 0x1
30011b80:	1a000009 	bne	30011bac <NetReceive+0x2ec>
30011b84:	e1d700b2 	ldrh	r0, [r7, #2]
30011b88:	ebfffe00 	bl	30011390 <__fswab16>
30011b8c:	e3500b02 	cmp	r0, #2048	; 0x800
30011b90:	1a000005 	bne	30011bac <NetReceive+0x2ec>
30011b94:	e5d73004 	ldrb	r3, [r7, #4]
30011b98:	e3530006 	cmp	r3, #6	; 0x6
30011b9c:	1a000002 	bne	30011bac <NetReceive+0x2ec>
30011ba0:	e5d73005 	ldrb	r3, [r7, #5]
30011ba4:	e3530004 	cmp	r3, #4	; 0x4
30011ba8:	0a000001 	beq	30011bb4 <NetReceive+0x2f4>
30011bac:	e59f0260 	ldr	r0, [pc, #608]	; 30011e14 <NetReceive+0x554>
30011bb0:	ea00002e 	b	30011c70 <NetReceive+0x3b0>
30011bb4:	e59f4238 	ldr	r4, [pc, #568]	; 30011df4 <NetReceive+0x534>
30011bb8:	e2871018 	add	r1, r7, #24	; 0x18
30011bbc:	e2840018 	add	r0, r4, #24	; 0x18
30011bc0:	ebfffeb8 	bl	300116a8 <NetCopyIP>
30011bc4:	e5943044 	ldr	r3, [r4, #68]
30011bc8:	e3530000 	cmp	r3, #0	; 0x0
30011bcc:	02840044 	addeq	r0, r4, #68	; 0x44
30011bd0:	0287100e 	addeq	r1, r7, #14	; 0xe
30011bd4:	0bfffeb3 	bleq	300116a8 <NetCopyIP>
30011bd8:	e59f4214 	ldr	r4, [pc, #532]	; 30011df4 <NetReceive+0x534>
30011bdc:	e2871008 	add	r1, r7, #8	; 0x8
30011be0:	e2840048 	add	r0, r4, #72	; 0x48
30011be4:	e3a02006 	mov	r2, #6	; 0x6
30011be8:	ebffeec8 	bl	3000d710 <memcpy>
30011bec:	e3a00000 	mov	r0, #0	; 0x0
30011bf0:	e1a01000 	mov	r1, r0
30011bf4:	e1a02000 	mov	r2, r0
30011bf8:	e1a03000 	mov	r3, r0
30011bfc:	e1a0e00f 	mov	lr, pc
30011c00:	e594f004 	ldr	pc, [r4, #4]
30011c04:	ea000078 	b	30011dec <NetReceive+0x52c>
30011c08:	e355001b 	cmp	r5, #27	; 0x1b
30011c0c:	9a000076 	bls	30011dec <NetReceive+0x52c>
30011c10:	e1d700b2 	ldrh	r0, [r7, #2]
30011c14:	ebfffddd 	bl	30011390 <__fswab16>
30011c18:	e1550000 	cmp	r5, r0
30011c1c:	e1a0a000 	mov	sl, r0
30011c20:	aa000005 	bge	30011c3c <NetReceive+0x37c>
30011c24:	e1a02000 	mov	r2, r0
30011c28:	e59f01e8 	ldr	r0, [pc, #488]	; 30011e18 <NetReceive+0x558>
30011c2c:	e1a01005 	mov	r1, r5
30011c30:	e28dd008 	add	sp, sp, #8	; 0x8
30011c34:	e8bd4ef0 	pop	{r4, r5, r6, r7, r9, sl, fp, lr}
30011c38:	eaffd1b1 	b	30006304 <printf>
30011c3c:	e5d72000 	ldrb	r2, [r7]
30011c40:	e20230f0 	and	r3, r2, #240	; 0xf0
30011c44:	e3530040 	cmp	r3, #64	; 0x40
30011c48:	1a000067 	bne	30011dec <NetReceive+0x52c>
30011c4c:	e202300f 	and	r3, r2, #15	; 0xf
30011c50:	e3530005 	cmp	r3, #5	; 0x5
30011c54:	ca000064 	bgt	30011dec <NetReceive+0x52c>
30011c58:	e1a00007 	mov	r0, r7
30011c5c:	e3a0100a 	mov	r1, #10	; 0xa
30011c60:	ebfffdf3 	bl	30011434 <NetCksumOk>
30011c64:	e3500000 	cmp	r0, #0	; 0x0
30011c68:	1a000003 	bne	30011c7c <NetReceive+0x3bc>
30011c6c:	e59f01a8 	ldr	r0, [pc, #424]	; 30011e1c <NetReceive+0x55c>
30011c70:	e28dd008 	add	sp, sp, #8	; 0x8
30011c74:	e8bd4ef0 	pop	{r4, r5, r6, r7, r9, sl, fp, lr}
30011c78:	eaffd18f 	b	300062bc <puts>
30011c7c:	e287b010 	add	fp, r7, #16	; 0x10
30011c80:	e1a0000b 	mov	r0, fp
30011c84:	ebfffef4 	bl	3001185c <NetReadIP>
30011c88:	e59f3164 	ldr	r3, [pc, #356]	; 30011df4 <NetReceive+0x534>
30011c8c:	e5933018 	ldr	r3, [r3, #24]
30011c90:	e3530000 	cmp	r3, #0	; 0x0
30011c94:	0a000002 	beq	30011ca4 <NetReceive+0x3e4>
30011c98:	e1500003 	cmp	r0, r3
30011c9c:	13700001 	cmnne	r0, #1	; 0x1
30011ca0:	1a000051 	bne	30011dec <NetReceive+0x52c>
30011ca4:	e1d700b6 	ldrh	r0, [r7, #6]
30011ca8:	ebfffdb8 	bl	30011390 <__fswab16>
30011cac:	e1a05900 	lsl	r5, r0, #18
30011cb0:	e1a05925 	lsr	r5, r5, #18
30011cb4:	e3550000 	cmp	r5, #0	; 0x0
30011cb8:	1a00004b 	bne	30011dec <NetReceive+0x52c>
30011cbc:	e5d73009 	ldrb	r3, [r7, #9]
30011cc0:	e3530001 	cmp	r3, #1	; 0x1
30011cc4:	1a000037 	bne	30011da8 <NetReceive+0x4e8>
30011cc8:	e5d71014 	ldrb	r1, [r7, #20]
30011ccc:	e3510005 	cmp	r1, #5	; 0x5
30011cd0:	e2876014 	add	r6, r7, #20	; 0x14
30011cd4:	0a000007 	beq	30011cf8 <NetReceive+0x438>
30011cd8:	e3510008 	cmp	r1, #8	; 0x8
30011cdc:	0a00000d 	beq	30011d18 <NetReceive+0x458>
30011ce0:	e3510000 	cmp	r1, #0	; 0x0
30011ce4:	01a00007 	moveq	r0, r7
30011ce8:	01a02001 	moveq	r2, r1
30011cec:	01a03001 	moveq	r3, r1
30011cf0:	0a00003a 	beq	30011de0 <NetReceive+0x520>
30011cf4:	ea00003c 	b	30011dec <NetReceive+0x52c>
30011cf8:	e5d63001 	ldrb	r3, [r6, #1]
30011cfc:	e3530001 	cmp	r3, #1	; 0x1
30011d00:	1a000039 	bne	30011dec <NetReceive+0x52c>
30011d04:	e59f0114 	ldr	r0, [pc, #276]	; 30011e20 <NetReceive+0x560>
30011d08:	e2871018 	add	r1, r7, #24	; 0x18
30011d0c:	e28dd008 	add	sp, sp, #8	; 0x8
30011d10:	e8bd4ef0 	pop	{r4, r5, r6, r7, r9, sl, fp, lr}
30011d14:	eaffd17a 	b	30006304 <printf>
30011d18:	e2894006 	add	r4, r9, #6	; 0x6
30011d1c:	e1a01004 	mov	r1, r4
30011d20:	e3a02006 	mov	r2, #6	; 0x6
30011d24:	e1a00009 	mov	r0, r9
30011d28:	ebffee78 	bl	3000d710 <memcpy>
30011d2c:	e3a02006 	mov	r2, #6	; 0x6
30011d30:	e1a00004 	mov	r0, r4
30011d34:	e59f10e8 	ldr	r1, [pc, #232]	; 30011e24 <NetReceive+0x564>
30011d38:	e287400c 	add	r4, r7, #12	; 0xc
30011d3c:	ebffee73 	bl	3000d710 <memcpy>
30011d40:	e1a0000b 	mov	r0, fp
30011d44:	e1a01004 	mov	r1, r4
30011d48:	e1c750ba 	strh	r5, [r7, #10]
30011d4c:	e1c750b6 	strh	r5, [r7, #6]
30011d50:	ebfffe54 	bl	300116a8 <NetCopyIP>
30011d54:	e1a00004 	mov	r0, r4
30011d58:	e59f10c8 	ldr	r1, [pc, #200]	; 30011e28 <NetReceive+0x568>
30011d5c:	ebfffe51 	bl	300116a8 <NetCopyIP>
30011d60:	e3a0100a 	mov	r1, #10	; 0xa
30011d64:	e1a00007 	mov	r0, r7
30011d68:	ebfffd9f 	bl	300113ec <NetCksum>
30011d6c:	e24a1014 	sub	r1, sl, #20	; 0x14
30011d70:	e1e00000 	mvn	r0, r0
30011d74:	e1c700ba 	strh	r0, [r7, #10]
30011d78:	e1a010a1 	lsr	r1, r1, #1
30011d7c:	e1c650b2 	strh	r5, [r6, #2]
30011d80:	e5c65000 	strb	r5, [r6]
30011d84:	e1a00006 	mov	r0, r6
30011d88:	ebfffd97 	bl	300113ec <NetCksum>
30011d8c:	e1e00000 	mvn	r0, r0
30011d90:	e1c600b2 	strh	r0, [r6, #2]
30011d94:	e28a100e 	add	r1, sl, #14	; 0xe
30011d98:	e1a00009 	mov	r0, r9
30011d9c:	e28dd008 	add	sp, sp, #8	; 0x8
30011da0:	e8bd4ef0 	pop	{r4, r5, r6, r7, r9, sl, fp, lr}
30011da4:	ea000afa 	b	30014994 <eth_send>
30011da8:	e3530011 	cmp	r3, #17	; 0x11
30011dac:	1a00000e 	bne	30011dec <NetReceive+0x52c>
30011db0:	e1d701b6 	ldrh	r0, [r7, #22]
30011db4:	ebfffd75 	bl	30011390 <__fswab16>
30011db8:	e1a05000 	mov	r5, r0
30011dbc:	e1d701b4 	ldrh	r0, [r7, #20]
30011dc0:	ebfffd72 	bl	30011390 <__fswab16>
30011dc4:	e1a04000 	mov	r4, r0
30011dc8:	e1d701b8 	ldrh	r0, [r7, #24]
30011dcc:	ebfffd6f 	bl	30011390 <__fswab16>
30011dd0:	e1a01005 	mov	r1, r5
30011dd4:	e2403008 	sub	r3, r0, #8	; 0x8
30011dd8:	e1a02004 	mov	r2, r4
30011ddc:	e287001c 	add	r0, r7, #28	; 0x1c
30011de0:	e59fc00c 	ldr	ip, [pc, #12]	; 30011df4 <NetReceive+0x534>
30011de4:	e1a0e00f 	mov	lr, pc
30011de8:	e59cf004 	ldr	pc, [ip, #4]
30011dec:	e28dd008 	add	sp, sp, #8	; 0x8
30011df0:	e8bd8ef0 	pop	{r4, r5, r6, r7, r9, sl, fp, pc}
30011df4:	3001e130 	.word	0x3001e130
30011df8:	3001bd30 	.word	0x3001bd30
30011dfc:	0000ffff 	.word	0x0000ffff
30011e00:	00000fff 	.word	0x00000fff
30011e04:	000005e9 	.word	0x000005e9
30011e08:	00000806 	.word	0x00000806
30011e0c:	00008035 	.word	0x00008035
30011e10:	3001ac27 	.word	0x3001ac27
30011e14:	3001ac3b 	.word	0x3001ac3b
30011e18:	3001ac50 	.word	0x3001ac50
30011e1c:	3001ac61 	.word	0x3001ac61
30011e20:	3001ac6f 	.word	0x3001ac6f
30011e24:	3001e14c 	.word	0x3001e14c
30011e28:	3001e148 	.word	0x3001e148

30011e2c <ArpRequest>:
30011e2c:	e92d4070 	push	{r4, r5, r6, lr}
30011e30:	e59f60d0 	ldr	r6, [pc, #208]	; 30011f08 <ArpRequest+0xdc>
30011e34:	e5964050 	ldr	r4, [r6, #80]
30011e38:	e59f10cc 	ldr	r1, [pc, #204]	; 30011f0c <ArpRequest+0xe0>
30011e3c:	e59f20cc 	ldr	r2, [pc, #204]	; 30011f10 <ArpRequest+0xe4>
30011e40:	e1a00004 	mov	r0, r4
30011e44:	ebfffe57 	bl	300117a8 <NetSetEther>
30011e48:	e3a03c01 	mov	r3, #256	; 0x100
30011e4c:	e0845000 	add	r5, r4, r0
30011e50:	e18430b0 	strh	r3, [r4, r0]
30011e54:	e3a03004 	mov	r3, #4	; 0x4
30011e58:	e5c53005 	strb	r3, [r5, #5]
30011e5c:	e3a03008 	mov	r3, #8	; 0x8
30011e60:	e3a01006 	mov	r1, #6	; 0x6
30011e64:	e1c530b2 	strh	r3, [r5, #2]
30011e68:	e3a03c01 	mov	r3, #256	; 0x100
30011e6c:	e1a02001 	mov	r2, r1
30011e70:	e1c530b6 	strh	r3, [r5, #6]
30011e74:	e5c51004 	strb	r1, [r5, #4]
30011e78:	e2850008 	add	r0, r5, #8	; 0x8
30011e7c:	e286101c 	add	r1, r6, #28	; 0x1c
30011e80:	ebffee22 	bl	3000d710 <memcpy>
30011e84:	e5961018 	ldr	r1, [r6, #24]
30011e88:	e285000e 	add	r0, r5, #14	; 0xe
30011e8c:	ebfffe83 	bl	300118a0 <NetWriteIP>
30011e90:	e3a03000 	mov	r3, #0	; 0x0
30011e94:	e5c53017 	strb	r3, [r5, #23]
30011e98:	e5c53012 	strb	r3, [r5, #18]
30011e9c:	e5c53013 	strb	r3, [r5, #19]
30011ea0:	e5c53014 	strb	r3, [r5, #20]
30011ea4:	e5c53015 	strb	r3, [r5, #21]
30011ea8:	e5c53016 	strb	r3, [r5, #22]
30011eac:	e5961030 	ldr	r1, [r6, #48]
30011eb0:	e5963018 	ldr	r3, [r6, #24]
30011eb4:	e5962054 	ldr	r2, [r6, #84]
30011eb8:	e0213003 	eor	r3, r1, r3
30011ebc:	e1130002 	tst	r3, r2
30011ec0:	05861038 	streq	r1, [r6, #56]
30011ec4:	0a000006 	beq	30011ee4 <ArpRequest+0xb8>
30011ec8:	e5963058 	ldr	r3, [r6, #88]
30011ecc:	e3530000 	cmp	r3, #0	; 0x0
30011ed0:	1a000002 	bne	30011ee0 <ArpRequest+0xb4>
30011ed4:	e59f0038 	ldr	r0, [pc, #56]	; 30011f14 <ArpRequest+0xe8>
30011ed8:	ebffd0f7 	bl	300062bc <puts>
30011edc:	e5963030 	ldr	r3, [r6, #48]
30011ee0:	e5863038 	str	r3, [r6, #56]
30011ee4:	e59f401c 	ldr	r4, [pc, #28]	; 30011f08 <ArpRequest+0xdc>
30011ee8:	e2850018 	add	r0, r5, #24	; 0x18
30011eec:	e5941038 	ldr	r1, [r4, #56]
30011ef0:	ebfffe6a 	bl	300118a0 <NetWriteIP>
30011ef4:	e5940050 	ldr	r0, [r4, #80]
30011ef8:	e260101c 	rsb	r1, r0, #28	; 0x1c
30011efc:	e0851001 	add	r1, r5, r1
30011f00:	e8bd4070 	pop	{r4, r5, r6, lr}
30011f04:	ea000aa2 	b	30014994 <eth_send>
30011f08:	3001e130 	.word	0x3001e130
30011f0c:	3001bd34 	.word	0x3001bd34
30011f10:	00000806 	.word	0x00000806
30011f14:	3001ac8c 	.word	0x3001ac8c

30011f18 <PingSend>:
30011f18:	e92d44f0 	push	{r4, r5, r6, r7, sl, lr}
30011f1c:	e59f512c 	ldr	r5, [pc, #300]	; 30012050 <PingSend+0x138>
30011f20:	e285405c 	add	r4, r5, #92	; 0x5c
30011f24:	e2851062 	add	r1, r5, #98	; 0x62
30011f28:	e3a02006 	mov	r2, #6	; 0x6
30011f2c:	e1a00004 	mov	r0, r4
30011f30:	ebffedf6 	bl	3000d710 <memcpy>
30011f34:	e595603c 	ldr	r6, [r5, #60]
30011f38:	e5953024 	ldr	r3, [r5, #36]
30011f3c:	e1a01004 	mov	r1, r4
30011f40:	e3a02b02 	mov	r2, #2048	; 0x800
30011f44:	e1a00006 	mov	r0, r6
30011f48:	e5853030 	str	r3, [r5, #48]
30011f4c:	e5854034 	str	r4, [r5, #52]
30011f50:	ebfffe14 	bl	300117a8 <NetSetEther>
30011f54:	e3a07000 	mov	r7, #0	; 0x0
30011f58:	e0864000 	add	r4, r6, r0
30011f5c:	e3a03045 	mov	r3, #69	; 0x45
30011f60:	e7c63000 	strb	r3, [r6, r0]
30011f64:	e5c47001 	strb	r7, [r4, #1]
30011f68:	e5953014 	ldr	r3, [r5, #20]
30011f6c:	e3a02b07 	mov	r2, #7168	; 0x1c00
30011f70:	e1a00803 	lsl	r0, r3, #16
30011f74:	e1c420b2 	strh	r2, [r4, #2]
30011f78:	e2833001 	add	r3, r3, #1	; 0x1
30011f7c:	e1a00820 	lsr	r0, r0, #16
30011f80:	e5853014 	str	r3, [r5, #20]
30011f84:	ebfffd01 	bl	30011390 <__fswab16>
30011f88:	e3a03040 	mov	r3, #64	; 0x40
30011f8c:	e1c400b4 	strh	r0, [r4, #4]
30011f90:	e3a0a001 	mov	sl, #1	; 0x1
30011f94:	e1c430b6 	strh	r3, [r4, #6]
30011f98:	e3e03000 	mvn	r3, #0	; 0x0
30011f9c:	e5c43008 	strb	r3, [r4, #8]
30011fa0:	e284000c 	add	r0, r4, #12	; 0xc
30011fa4:	e5c4a009 	strb	sl, [r4, #9]
30011fa8:	e2851018 	add	r1, r5, #24	; 0x18
30011fac:	e1c470ba 	strh	r7, [r4, #10]
30011fb0:	ebfffdbc 	bl	300116a8 <NetCopyIP>
30011fb4:	e2851024 	add	r1, r5, #36	; 0x24
30011fb8:	e2840010 	add	r0, r4, #16	; 0x10
30011fbc:	ebfffdb9 	bl	300116a8 <NetCopyIP>
30011fc0:	e3a0100a 	mov	r1, #10	; 0xa
30011fc4:	e1a00004 	mov	r0, r4
30011fc8:	ebfffd07 	bl	300113ec <NetCksum>
30011fcc:	e1e00000 	mvn	r0, r0
30011fd0:	e1a00800 	lsl	r0, r0, #16
30011fd4:	e3a02008 	mov	r2, #8	; 0x8
30011fd8:	e1a00820 	lsr	r0, r0, #16
30011fdc:	e1c400ba 	strh	r0, [r4, #10]
30011fe0:	e1c421b4 	strh	r2, [r4, #20]
30011fe4:	e1c471b6 	strh	r7, [r4, #22]
30011fe8:	e1c471b8 	strh	r7, [r4, #24]
30011fec:	e1d536b8 	ldrh	r3, [r5, #104]
30011ff0:	e1a00003 	mov	r0, r3
30011ff4:	e083300a 	add	r3, r3, sl
30011ff8:	e1c536b8 	strh	r3, [r5, #104]
30011ffc:	ebfffce3 	bl	30011390 <__fswab16>
30012000:	e2846014 	add	r6, r4, #20	; 0x14
30012004:	e3a01004 	mov	r1, #4	; 0x4
30012008:	e1c401ba 	strh	r0, [r4, #26]
3001200c:	e1a00006 	mov	r0, r6
30012010:	ebfffcf5 	bl	300113ec <NetCksum>
30012014:	e595303c 	ldr	r3, [r5, #60]
30012018:	e1e00000 	mvn	r0, r0
3001201c:	e1a00800 	lsl	r0, r0, #16
30012020:	e0633004 	rsb	r3, r3, r4
30012024:	e1a00820 	lsr	r0, r0, #16
30012028:	e283301c 	add	r3, r3, #28	; 0x1c
3001202c:	e1c401b6 	strh	r0, [r4, #22]
30012030:	e1a00007 	mov	r0, r7
30012034:	e5853040 	str	r3, [r5, #64]
30012038:	e585a06c 	str	sl, [r5, #108]
3001203c:	ebfffbde 	bl	30010fbc <get_timer>
30012040:	e5850070 	str	r0, [r5, #112]
30012044:	ebffff78 	bl	30011e2c <ArpRequest>
30012048:	e1a0000a 	mov	r0, sl
3001204c:	e8bd84f0 	pop	{r4, r5, r6, r7, sl, pc}
30012050:	3001e130 	.word	0x3001e130

30012054 <NetSendUDPPacket>:
30012054:	e92d4eff 	push	{r0, r1, r2, r3, r4, r5, r6, r7, r9, sl, fp, lr}
30012058:	e2517000 	subs	r7, r1, #0	; 0x0
3001205c:	e1a05000 	mov	r5, r0
30012060:	e1a0b002 	mov	fp, r2
30012064:	e1a09003 	mov	r9, r3
30012068:	e59da030 	ldr	sl, [sp, #48]
3001206c:	059f5114 	ldreq	r5, [pc, #276]	; 30012188 <NetSendUDPPacket+0x134>
30012070:	03e07000 	mvneq	r7, #0	; 0x0
30012074:	0a000002 	beq	30012084 <NetSendUDPPacket+0x30>
30012078:	e59f3108 	ldr	r3, [pc, #264]	; 30012188 <NetSendUDPPacket+0x134>
3001207c:	e3770001 	cmn	r7, #1	; 0x1
30012080:	01a05003 	moveq	r5, r3
30012084:	e59f6100 	ldr	r6, [pc, #256]	; 3001218c <NetSendUDPPacket+0x138>
30012088:	e1a00005 	mov	r0, r5
3001208c:	e2861062 	add	r1, r6, #98	; 0x62
30012090:	e3a02006 	mov	r2, #6	; 0x6
30012094:	ebffedd3 	bl	3000d7e8 <memcmp>
30012098:	e28a301c 	add	r3, sl, #28	; 0x1c
3001209c:	e3500000 	cmp	r0, #0	; 0x0
300120a0:	e58d000c 	str	r0, [sp, #12]
300120a4:	e58d3008 	str	r3, [sp, #8]
300120a8:	1a000022 	bne	30012138 <NetSendUDPPacket+0xe4>
300120ac:	e596403c 	ldr	r4, [r6, #60]
300120b0:	e1a01005 	mov	r1, r5
300120b4:	e3a02b02 	mov	r2, #2048	; 0x800
300120b8:	e1a00004 	mov	r0, r4
300120bc:	e5865034 	str	r5, [r6, #52]
300120c0:	e5867030 	str	r7, [r6, #48]
300120c4:	ebfffdb7 	bl	300117a8 <NetSetEther>
300120c8:	e0844000 	add	r4, r4, r0
300120cc:	e1a00004 	mov	r0, r4
300120d0:	e1a03009 	mov	r3, r9
300120d4:	e1a01007 	mov	r1, r7
300120d8:	e1a0200b 	mov	r2, fp
300120dc:	e58da000 	str	sl, [sp]
300120e0:	ebfffd72 	bl	300116b0 <NetSetIP>
300120e4:	e596103c 	ldr	r1, [r6, #60]
300120e8:	e5963050 	ldr	r3, [r6, #80]
300120ec:	e0611004 	rsb	r1, r1, r4
300120f0:	e281101c 	add	r1, r1, #28	; 0x1c
300120f4:	e0831001 	add	r1, r3, r1
300120f8:	e1a0200a 	mov	r2, sl
300120fc:	e284001c 	add	r0, r4, #28	; 0x1c
30012100:	ebffed82 	bl	3000d710 <memcpy>
30012104:	e596303c 	ldr	r3, [r6, #60]
30012108:	e0634004 	rsb	r4, r3, r4
3001210c:	e59d3008 	ldr	r3, [sp, #8]
30012110:	e3a05001 	mov	r5, #1	; 0x1
30012114:	e0834004 	add	r4, r3, r4
30012118:	e59d000c 	ldr	r0, [sp, #12]
3001211c:	e5864040 	str	r4, [r6, #64]
30012120:	e586506c 	str	r5, [r6, #108]
30012124:	ebfffba4 	bl	30010fbc <get_timer>
30012128:	e5860070 	str	r0, [r6, #112]
3001212c:	ebffff3e 	bl	30011e2c <ArpRequest>
30012130:	e1a00005 	mov	r0, r5
30012134:	ea000011 	b	30012180 <NetSendUDPPacket+0x12c>
30012138:	e5964050 	ldr	r4, [r6, #80]
3001213c:	e1a01005 	mov	r1, r5
30012140:	e3a02b02 	mov	r2, #2048	; 0x800
30012144:	e1a00004 	mov	r0, r4
30012148:	ebfffd96 	bl	300117a8 <NetSetEther>
3001214c:	e0844000 	add	r4, r4, r0
30012150:	e1a00004 	mov	r0, r4
30012154:	e1a01007 	mov	r1, r7
30012158:	e1a0200b 	mov	r2, fp
3001215c:	e1a03009 	mov	r3, r9
30012160:	e58da000 	str	sl, [sp]
30012164:	ebfffd51 	bl	300116b0 <NetSetIP>
30012168:	e5960050 	ldr	r0, [r6, #80]
3001216c:	e59d3008 	ldr	r3, [sp, #8]
30012170:	e0604004 	rsb	r4, r0, r4
30012174:	e0831004 	add	r1, r3, r4
30012178:	eb000a05 	bl	30014994 <eth_send>
3001217c:	e3a00000 	mov	r0, #0	; 0x0
30012180:	e28dd010 	add	sp, sp, #16	; 0x10
30012184:	e8bd8ef0 	pop	{r4, r5, r6, r7, r9, sl, fp, pc}
30012188:	3001bd34 	.word	0x3001bd34
3001218c:	3001e130 	.word	0x3001e130

30012190 <PingTimeout>:
30012190:	e92d4010 	push	{r4, lr}
30012194:	eb0009f1 	bl	30014960 <eth_halt>
30012198:	e59f3008 	ldr	r3, [pc, #8]	; 300121a8 <PingTimeout+0x18>
3001219c:	e3a02004 	mov	r2, #4	; 0x4
300121a0:	e5832000 	str	r2, [r3]
300121a4:	e8bd8010 	pop	{r4, pc}
300121a8:	3001e130 	.word	0x3001e130

300121ac <NetStartAgain>:
300121ac:	e92d4010 	push	{r4, lr}
300121b0:	e59f00dc 	ldr	r0, [pc, #220]	; 30012294 <NetStartAgain+0xe8>
300121b4:	ebffca6d 	bl	30004b70 <getenv>
300121b8:	e2504000 	subs	r4, r0, #0	; 0x0
300121bc:	0a000017 	beq	30012220 <NetStartAgain+0x74>
300121c0:	e59f10d0 	ldr	r1, [pc, #208]	; 30012298 <NetStartAgain+0xec>
300121c4:	ebffec79 	bl	3000d3b0 <strcmp>
300121c8:	e3500000 	cmp	r0, #0	; 0x0
300121cc:	0a000013 	beq	30012220 <NetStartAgain+0x74>
300121d0:	e1a00004 	mov	r0, r4
300121d4:	e59f10c0 	ldr	r1, [pc, #192]	; 3001229c <NetStartAgain+0xf0>
300121d8:	ebffec74 	bl	3000d3b0 <strcmp>
300121dc:	e3500000 	cmp	r0, #0	; 0x0
300121e0:	0a000008 	beq	30012208 <NetStartAgain+0x5c>
300121e4:	e1a00004 	mov	r0, r4
300121e8:	e59f10b0 	ldr	r1, [pc, #176]	; 300122a0 <NetStartAgain+0xf4>
300121ec:	ebffec6f 	bl	3000d3b0 <strcmp>
300121f0:	e3500000 	cmp	r0, #0	; 0x0
300121f4:	02800001 	addeq	r0, r0, #1	; 0x1
300121f8:	13a01000 	movne	r1, #0	; 0x0
300121fc:	11a00004 	movne	r0, r4
30012200:	11a02001 	movne	r2, r1
30012204:	1bffedce 	blne	3000d944 <simple_strtoul>
30012208:	e59f4094 	ldr	r4, [pc, #148]	; 300122a4 <NetStartAgain+0xf8>
3001220c:	e5943074 	ldr	r3, [r4, #116]
30012210:	e1530000 	cmp	r3, r0
30012214:	3a000001 	bcc	30012220 <NetStartAgain+0x74>
30012218:	eb0009d0 	bl	30014960 <eth_halt>
3001221c:	ea000019 	b	30012288 <NetStartAgain+0xdc>
30012220:	e59f407c 	ldr	r4, [pc, #124]	; 300122a4 <NetStartAgain+0xf8>
30012224:	e5943074 	ldr	r3, [r4, #116]
30012228:	e2833001 	add	r3, r3, #1	; 0x1
3001222c:	e5843074 	str	r3, [r4, #116]
30012230:	eb0009ca 	bl	30014960 <eth_halt>
30012234:	e5940078 	ldr	r0, [r4, #120]
30012238:	e2700001 	rsbs	r0, r0, #1	; 0x1
3001223c:	33a00000 	movcc	r0, #0	; 0x0
30012240:	eb000a31 	bl	30014b0c <eth_try_another>
30012244:	e5980000 	ldr	r0, [r8]
30012248:	eb000acc 	bl	30014d80 <eth_init>
3001224c:	e594307c 	ldr	r3, [r4, #124]
30012250:	e3530000 	cmp	r3, #0	; 0x0
30012254:	03a03002 	moveq	r3, #2	; 0x2
30012258:	0a00000b 	beq	3001228c <NetStartAgain+0xe0>
3001225c:	e5943080 	ldr	r3, [r4, #128]
30012260:	e3530000 	cmp	r3, #0	; 0x0
30012264:	e3a03000 	mov	r3, #0	; 0x0
30012268:	e584307c 	str	r3, [r4, #124]
3001226c:	0a000005 	beq	30012288 <NetStartAgain+0xdc>
30012270:	e59f0030 	ldr	r0, [pc, #48]	; 300122a8 <NetStartAgain+0xfc>
30012274:	e59f1030 	ldr	r1, [pc, #48]	; 300122ac <NetStartAgain+0x100>
30012278:	ebfffcfe 	bl	30011678 <NetSetTimeout>
3001227c:	e59f002c 	ldr	r0, [pc, #44]	; 300122b0 <NetStartAgain+0x104>
30012280:	e8bd4010 	pop	{r4, lr}
30012284:	eafffc54 	b	300113dc <NetSetHandler>
30012288:	e3a03004 	mov	r3, #4	; 0x4
3001228c:	e5843000 	str	r3, [r4]
30012290:	e8bd8010 	pop	{r4, pc}
30012294:	3001acb6 	.word	0x3001acb6
30012298:	300192cf 	.word	0x300192cf
3001229c:	300178ff 	.word	0x300178ff
300122a0:	3001acbf 	.word	0x3001acbf
300122a4:	3001e130 	.word	0x3001e130
300122a8:	00002710 	.word	0x00002710
300122ac:	300113c4 	.word	0x300113c4
300122b0:	300113d8 	.word	0x300113d8

300122b4 <ArpTimeoutCheck>:
300122b4:	e92d4010 	push	{r4, lr}
300122b8:	e59f405c 	ldr	r4, [pc, #92]	; 3001231c <ArpTimeoutCheck+0x68>
300122bc:	e5943030 	ldr	r3, [r4, #48]
300122c0:	e3530000 	cmp	r3, #0	; 0x0
300122c4:	08bd8010 	popeq	{r4, pc}
300122c8:	e3a00000 	mov	r0, #0	; 0x0
300122cc:	ebfffb3a 	bl	30010fbc <get_timer>
300122d0:	e5943070 	ldr	r3, [r4, #112]
300122d4:	e59f2044 	ldr	r2, [pc, #68]	; 30012320 <ArpTimeoutCheck+0x6c>
300122d8:	e0633000 	rsb	r3, r3, r0
300122dc:	e1530002 	cmp	r3, r2
300122e0:	98bd8010 	popls	{r4, pc}
300122e4:	e594306c 	ldr	r3, [r4, #108]
300122e8:	e2833001 	add	r3, r3, #1	; 0x1
300122ec:	e3530004 	cmp	r3, #4	; 0x4
300122f0:	e584306c 	str	r3, [r4, #108]
300122f4:	da000005 	ble	30012310 <ArpTimeoutCheck+0x5c>
300122f8:	e59f0024 	ldr	r0, [pc, #36]	; 30012324 <ArpTimeoutCheck+0x70>
300122fc:	ebffcfee 	bl	300062bc <puts>
30012300:	e3a03000 	mov	r3, #0	; 0x0
30012304:	e584306c 	str	r3, [r4, #108]
30012308:	e8bd4010 	pop	{r4, lr}
3001230c:	eaffffa6 	b	300121ac <NetStartAgain>
30012310:	e5840070 	str	r0, [r4, #112]
30012314:	e8bd4010 	pop	{r4, lr}
30012318:	eafffec3 	b	30011e2c <ArpRequest>
3001231c:	3001e130 	.word	0x3001e130
30012320:	00001388 	.word	0x00001388
30012324:	3001acc4 	.word	0x3001acc4

30012328 <NetLoop>:
30012328:	e59f23b4 	ldr	r2, [pc, #948]	; 300126e4 <NetLoop+0x3bc>
3001232c:	e92d44f0 	push	{r4, r5, r6, r7, sl, lr}
30012330:	e28210a3 	add	r1, r2, #163	; 0xa3
30012334:	e3c1101f 	bic	r1, r1, #31	; 0x1f
30012338:	e59fe3a8 	ldr	lr, [pc, #936]	; 300126e8 <NetLoop+0x3c0>
3001233c:	e59f43a8 	ldr	r4, [pc, #936]	; 300126ec <NetLoop+0x3c4>
30012340:	e2813b06 	add	r3, r1, #6144	; 0x1800
30012344:	e3a0c000 	mov	ip, #0	; 0x0
30012348:	e2817c12 	add	r7, r1, #4608	; 0x1200
3001234c:	e2815c06 	add	r5, r1, #1536	; 0x600
30012350:	e2816b03 	add	r6, r1, #3072	; 0xc00
30012354:	e50e3148 	str	r3, [lr, #-328]
30012358:	e3c4401f 	bic	r4, r4, #31	; 0x1f
3001235c:	e3a03001 	mov	r3, #1	; 0x1
30012360:	e50e714c 	str	r7, [lr, #-332]
30012364:	e582403c 	str	r4, [r2, #60]
30012368:	e24dd018 	sub	sp, sp, #24	; 0x18
3001236c:	e582c040 	str	ip, [r2, #64]
30012370:	e5823074 	str	r3, [r2, #116]
30012374:	e50e5154 	str	r5, [lr, #-340]
30012378:	e50e6150 	str	r6, [lr, #-336]
3001237c:	e582c078 	str	ip, [r2, #120]
30012380:	e582c080 	str	ip, [r2, #128]
30012384:	e582c034 	str	ip, [r2, #52]
30012388:	e582c030 	str	ip, [r2, #48]
3001238c:	e582c038 	str	ip, [r2, #56]
30012390:	e5821050 	str	r1, [r2, #80]
30012394:	e5984000 	ldr	r4, [r8]
30012398:	e1a07000 	mov	r7, r0
3001239c:	e1a0a008 	mov	sl, r8
300123a0:	eb00096e 	bl	30014960 <eth_halt>
300123a4:	eb0009af 	bl	30014a68 <eth_set_current>
300123a8:	e1a00004 	mov	r0, r4
300123ac:	eb000a73 	bl	30014d80 <eth_init>
300123b0:	e3500000 	cmp	r0, #0	; 0x0
300123b4:	ba0000c7 	blt	300126d8 <NetLoop+0x3b0>
300123b8:	eb000941 	bl	300148c4 <eth_get_dev>
300123bc:	e59f5320 	ldr	r5, [pc, #800]	; 300126e4 <NetLoop+0x3bc>
300123c0:	e2801010 	add	r1, r0, #16	; 0x10
300123c4:	e3a02006 	mov	r2, #6	; 0x6
300123c8:	e285001c 	add	r0, r5, #28	; 0x1c
300123cc:	ebffeccf 	bl	3000d710 <memcpy>
300123d0:	e3a03001 	mov	r3, #1	; 0x1
300123d4:	e5853000 	str	r3, [r5]
300123d8:	e5984000 	ldr	r4, [r8]
300123dc:	ebffc993 	bl	30004a30 <get_env_id>
300123e0:	e59fa300 	ldr	sl, [pc, #768]	; 300126e8 <NetLoop+0x3c0>
300123e4:	e59a34dc 	ldr	r3, [sl, #1244]
300123e8:	e1530000 	cmp	r3, r0
300123ec:	e1a06000 	mov	r6, r0
300123f0:	0a000013 	beq	30012444 <NetLoop+0x11c>
300123f4:	e2841004 	add	r1, r4, #4	; 0x4
300123f8:	e2850018 	add	r0, r5, #24	; 0x18
300123fc:	ebfffca9 	bl	300116a8 <NetCopyIP>
30012400:	e59f02e8 	ldr	r0, [pc, #744]	; 300126f0 <NetLoop+0x3c8>
30012404:	ebfffc59 	bl	30011570 <getenv_IPaddr>
30012408:	e5850058 	str	r0, [r5, #88]
3001240c:	e59f02e0 	ldr	r0, [pc, #736]	; 300126f4 <NetLoop+0x3cc>
30012410:	ebfffc56 	bl	30011570 <getenv_IPaddr>
30012414:	e5850054 	str	r0, [r5, #84]
30012418:	e59f02d8 	ldr	r0, [pc, #728]	; 300126f8 <NetLoop+0x3d0>
3001241c:	ebfffc53 	bl	30011570 <getenv_IPaddr>
30012420:	e5850044 	str	r0, [r5, #68]
30012424:	e59f02d0 	ldr	r0, [pc, #720]	; 300126fc <NetLoop+0x3d4>
30012428:	ebfffc33 	bl	300114fc <getenv_VLAN>
3001242c:	e59f42cc 	ldr	r4, [pc, #716]	; 30012700 <NetLoop+0x3d8>
30012430:	e1c400b2 	strh	r0, [r4, #2]
30012434:	e59f02c8 	ldr	r0, [pc, #712]	; 30012704 <NetLoop+0x3dc>
30012438:	ebfffc2f 	bl	300114fc <getenv_VLAN>
3001243c:	e58a64dc 	str	r6, [sl, #1244]
30012440:	e1c400b0 	strh	r0, [r4]
30012444:	e3570009 	cmp	r7, #9	; 0x9
30012448:	8a000030 	bhi	30012510 <NetLoop+0x1e8>
3001244c:	e3a03001 	mov	r3, #1	; 0x1
30012450:	e1a02713 	lsl	r2, r3, r7
30012454:	e3120fa2 	tst	r2, #648	; 0x288
30012458:	1a00000b 	bne	3001248c <NetLoop+0x164>
3001245c:	e59f32a4 	ldr	r3, [pc, #676]	; 30012708 <NetLoop+0x3e0>
30012460:	e0023003 	and	r3, r2, r3
30012464:	e3530000 	cmp	r3, #0	; 0x0
30012468:	1a000011 	bne	300124b4 <NetLoop+0x18c>
3001246c:	e3120020 	tst	r2, #32	; 0x20
30012470:	0a000026 	beq	30012510 <NetLoop+0x1e8>
30012474:	e59f3268 	ldr	r3, [pc, #616]	; 300126e4 <NetLoop+0x3bc>
30012478:	e5933024 	ldr	r3, [r3, #36]
3001247c:	e3530000 	cmp	r3, #0	; 0x0
30012480:	1a000006 	bne	300124a0 <NetLoop+0x178>
30012484:	e59f0280 	ldr	r0, [pc, #640]	; 3001270c <NetLoop+0x3e4>
30012488:	ea000016 	b	300124e8 <NetLoop+0x1c0>
3001248c:	e59f3250 	ldr	r3, [pc, #592]	; 300126e4 <NetLoop+0x3bc>
30012490:	e5933044 	ldr	r3, [r3, #68]
30012494:	e3530000 	cmp	r3, #0	; 0x0
30012498:	059f0270 	ldreq	r0, [pc, #624]	; 30012710 <NetLoop+0x3e8>
3001249c:	0a000011 	beq	300124e8 <NetLoop+0x1c0>
300124a0:	e59f323c 	ldr	r3, [pc, #572]	; 300126e4 <NetLoop+0x3bc>
300124a4:	e5933018 	ldr	r3, [r3, #24]
300124a8:	e3530000 	cmp	r3, #0	; 0x0
300124ac:	059f0260 	ldreq	r0, [pc, #608]	; 30012714 <NetLoop+0x3ec>
300124b0:	0a00000c 	beq	300124e8 <NetLoop+0x1c0>
300124b4:	e59f025c 	ldr	r0, [pc, #604]	; 30012718 <NetLoop+0x3f0>
300124b8:	e59f125c 	ldr	r1, [pc, #604]	; 3001271c <NetLoop+0x3f4>
300124bc:	e3a02006 	mov	r2, #6	; 0x6
300124c0:	ebffecc8 	bl	3000d7e8 <memcmp>
300124c4:	e3500000 	cmp	r0, #0	; 0x0
300124c8:	1a000010 	bne	30012510 <NetLoop+0x1e8>
300124cc:	eb000910 	bl	30014914 <eth_get_dev_index>
300124d0:	e3700001 	cmn	r0, #1	; 0x1
300124d4:	0a000002 	beq	300124e4 <NetLoop+0x1bc>
300124d8:	e3500000 	cmp	r0, #0	; 0x0
300124dc:	0a000003 	beq	300124f0 <NetLoop+0x1c8>
300124e0:	ea000005 	b	300124fc <NetLoop+0x1d4>
300124e4:	e59f0234 	ldr	r0, [pc, #564]	; 30012720 <NetLoop+0x3f8>
300124e8:	ebffcf73 	bl	300062bc <puts>
300124ec:	ea000079 	b	300126d8 <NetLoop+0x3b0>
300124f0:	e59f022c 	ldr	r0, [pc, #556]	; 30012724 <NetLoop+0x3fc>
300124f4:	ebffcf70 	bl	300062bc <puts>
300124f8:	ea000002 	b	30012508 <NetLoop+0x1e0>
300124fc:	e1a01000 	mov	r1, r0
30012500:	e59f0220 	ldr	r0, [pc, #544]	; 30012728 <NetLoop+0x400>
30012504:	ebffcf7e 	bl	30006304 <printf>
30012508:	ebffff27 	bl	300121ac <NetStartAgain>
3001250c:	ea000033 	b	300125e0 <NetLoop+0x2b8>
30012510:	e59f31cc 	ldr	r3, [pc, #460]	; 300126e4 <NetLoop+0x3bc>
30012514:	e3a02001 	mov	r2, #1	; 0x1
30012518:	e5832080 	str	r2, [r3, #128]
3001251c:	e3570007 	cmp	r7, #7	; 0x7
30012520:	979ff107 	ldrls	pc, [pc, r7, lsl #2]
30012524:	ea00002a 	b	300125d4 <NetLoop+0x2ac>
30012528:	3001256c 	.word	0x3001256c
3001252c:	30012588 	.word	0x30012588
30012530:	300125d4 	.word	0x300125d4
30012534:	30012548 	.word	0x30012548
30012538:	30012550 	.word	0x30012550
3001253c:	300125a4 	.word	0x300125a4
30012540:	300125d4 	.word	0x300125d4
30012544:	300125d0 	.word	0x300125d0
30012548:	eb0004f7 	bl	3001392c <TftpStart>
3001254c:	ea000020 	b	300125d4 <NetLoop+0x2ac>
30012550:	e59f218c 	ldr	r2, [pc, #396]	; 300126e4 <NetLoop+0x3bc>
30012554:	e3a03000 	mov	r3, #0	; 0x0
30012558:	e5823018 	str	r3, [r2, #24]
3001255c:	e59f21c8 	ldr	r2, [pc, #456]	; 3001272c <NetLoop+0x404>
30012560:	e5823000 	str	r3, [r2]
30012564:	eb0007eb 	bl	30014518 <DhcpRequest>
30012568:	ea000019 	b	300125d4 <NetLoop+0x2ac>
3001256c:	e59f2170 	ldr	r2, [pc, #368]	; 300126e4 <NetLoop+0x3bc>
30012570:	e3a03000 	mov	r3, #0	; 0x0
30012574:	e5823018 	str	r3, [r2, #24]
30012578:	e59f21ac 	ldr	r2, [pc, #428]	; 3001272c <NetLoop+0x404>
3001257c:	e5823000 	str	r3, [r2]
30012580:	eb000772 	bl	30014350 <BootpRequest>
30012584:	ea000012 	b	300125d4 <NetLoop+0x2ac>
30012588:	e59f2154 	ldr	r2, [pc, #340]	; 300126e4 <NetLoop+0x3bc>
3001258c:	e3a03000 	mov	r3, #0	; 0x0
30012590:	e5823018 	str	r3, [r2, #24]
30012594:	e59f2194 	ldr	r2, [pc, #404]	; 30012730 <NetLoop+0x408>
30012598:	e5823000 	str	r3, [r2]
3001259c:	eb000411 	bl	300135e8 <RarpRequest>
300125a0:	ea00000b 	b	300125d4 <NetLoop+0x2ac>
300125a4:	eb000912 	bl	300149f4 <eth_get_name>
300125a8:	e1a01000 	mov	r1, r0
300125ac:	e59f0180 	ldr	r0, [pc, #384]	; 30012734 <NetLoop+0x40c>
300125b0:	ebffcf53 	bl	30006304 <printf>
300125b4:	e59f117c 	ldr	r1, [pc, #380]	; 30012738 <NetLoop+0x410>
300125b8:	e59f017c 	ldr	r0, [pc, #380]	; 3001273c <NetLoop+0x414>
300125bc:	ebfffc2d 	bl	30011678 <NetSetTimeout>
300125c0:	e59f0178 	ldr	r0, [pc, #376]	; 30012740 <NetLoop+0x418>
300125c4:	ebfffb84 	bl	300113dc <NetSetHandler>
300125c8:	ebfffe52 	bl	30011f18 <PingSend>
300125cc:	ea000000 	b	300125d4 <NetLoop+0x2ac>
300125d0:	eb000262 	bl	30012f60 <NfsStart>
300125d4:	e59f310c 	ldr	r3, [pc, #268]	; 300126e8 <NetLoop+0x3c0>
300125d8:	e3a02000 	mov	r2, #0	; 0x0
300125dc:	e58324e0 	str	r2, [r3, #1248]
300125e0:	eb0008f8 	bl	300149c8 <eth_rx>
300125e4:	ebffcfe0 	bl	3000656c <ctrlc>
300125e8:	e2505000 	subs	r5, r0, #0	; 0x0
300125ec:	e59f40f0 	ldr	r4, [pc, #240]	; 300126e4 <NetLoop+0x3bc>
300125f0:	0a000003 	beq	30012604 <NetLoop+0x2dc>
300125f4:	eb0008d9 	bl	30014960 <eth_halt>
300125f8:	e59f0144 	ldr	r0, [pc, #324]	; 30012744 <NetLoop+0x41c>
300125fc:	ebffcf2e 	bl	300062bc <puts>
30012600:	ea000035 	b	300126dc <NetLoop+0x3b4>
30012604:	ebffff2a 	bl	300122b4 <ArpTimeoutCheck>
30012608:	e5943008 	ldr	r3, [r4, #8]
3001260c:	e3530000 	cmp	r3, #0	; 0x0
30012610:	e1a00005 	mov	r0, r5
30012614:	0a000008 	beq	3001263c <NetLoop+0x314>
30012618:	ebfffa67 	bl	30010fbc <get_timer>
3001261c:	e594300c 	ldr	r3, [r4, #12]
30012620:	e5942010 	ldr	r2, [r4, #16]
30012624:	e0630000 	rsb	r0, r3, r0
30012628:	e1500002 	cmp	r0, r2
3001262c:	85943008 	ldrhi	r3, [r4, #8]
30012630:	85845008 	strhi	r5, [r4, #8]
30012634:	81a0e00f 	movhi	lr, pc
30012638:	81a0f003 	movhi	pc, r3
3001263c:	e59f20a0 	ldr	r2, [pc, #160]	; 300126e4 <NetLoop+0x3bc>
30012640:	e5923000 	ldr	r3, [r2]
30012644:	e3530003 	cmp	r3, #3	; 0x3
30012648:	0a000006 	beq	30012668 <NetLoop+0x340>
3001264c:	e3530004 	cmp	r3, #4	; 0x4
30012650:	0a000021 	beq	300126dc <NetLoop+0x3b4>
30012654:	e3530002 	cmp	r3, #2	; 0x2
30012658:	1affffe0 	bne	300125e0 <NetLoop+0x2b8>
3001265c:	e3a03001 	mov	r3, #1	; 0x1
30012660:	e5823078 	str	r3, [r2, #120]
30012664:	eaffff53 	b	300123b8 <NetLoop+0x90>
30012668:	e59f5078 	ldr	r5, [pc, #120]	; 300126e8 <NetLoop+0x3c0>
3001266c:	e59514e0 	ldr	r1, [r5, #1248]
30012670:	e3510000 	cmp	r1, #0	; 0x0
30012674:	0a000012 	beq	300126c4 <NetLoop+0x39c>
30012678:	e28d4004 	add	r4, sp, #4	; 0x4
3001267c:	e1a02001 	mov	r2, r1
30012680:	e59f00c0 	ldr	r0, [pc, #192]	; 30012748 <NetLoop+0x420>
30012684:	ebffcf1e 	bl	30006304 <printf>
30012688:	e59524e0 	ldr	r2, [r5, #1248]
3001268c:	e59f10b8 	ldr	r1, [pc, #184]	; 3001274c <NetLoop+0x424>
30012690:	e1a00004 	mov	r0, r4
30012694:	ebffefc9 	bl	3000e5c0 <sprintf>
30012698:	e1a01004 	mov	r1, r4
3001269c:	e59f00ac 	ldr	r0, [pc, #172]	; 30012750 <NetLoop+0x428>
300126a0:	ebffcac6 	bl	300051c0 <setenv>
300126a4:	e59f30a8 	ldr	r3, [pc, #168]	; 30012754 <NetLoop+0x42c>
300126a8:	e59f109c 	ldr	r1, [pc, #156]	; 3001274c <NetLoop+0x424>
300126ac:	e5932000 	ldr	r2, [r3]
300126b0:	e1a00004 	mov	r0, r4
300126b4:	ebffefc1 	bl	3000e5c0 <sprintf>
300126b8:	e1a01004 	mov	r1, r4
300126bc:	e59f0094 	ldr	r0, [pc, #148]	; 30012758 <NetLoop+0x430>
300126c0:	ebffcabe 	bl	300051c0 <setenv>
300126c4:	eb0008a5 	bl	30014960 <eth_halt>
300126c8:	e59f3018 	ldr	r3, [pc, #24]	; 300126e8 <NetLoop+0x3c0>
300126cc:	e59304e0 	ldr	r0, [r3, #1248]
300126d0:	e28dd018 	add	sp, sp, #24	; 0x18
300126d4:	e8bd84f0 	pop	{r4, r5, r6, r7, sl, pc}
300126d8:	eb0008a0 	bl	30014960 <eth_halt>
300126dc:	e3e00000 	mvn	r0, #0	; 0x0
300126e0:	eafffffa 	b	300126d0 <NetLoop+0x3a8>
300126e4:	3001e130 	.word	0x3001e130
300126e8:	30020128 	.word	0x30020128
300126ec:	30020003 	.word	0x30020003
300126f0:	300192a7 	.word	0x300192a7
300126f4:	300192b1 	.word	0x300192b1
300126f8:	300180d8 	.word	0x300180d8
300126fc:	3001acef 	.word	0x3001acef
30012700:	3001bd30 	.word	0x3001bd30
30012704:	3001acf0 	.word	0x3001acf0
30012708:	00000113 	.word	0x00000113
3001270c:	3001acf5 	.word	0x3001acf5
30012710:	3001ad18 	.word	0x3001ad18
30012714:	3001ad37 	.word	0x3001ad37
30012718:	3001e14c 	.word	0x3001e14c
3001271c:	3001705b 	.word	0x3001705b
30012720:	3001ad54 	.word	0x3001ad54
30012724:	3001ad73 	.word	0x3001ad73
30012728:	3001ad91 	.word	0x3001ad91
3001272c:	30021088 	.word	0x30021088
30012730:	30020fc4 	.word	0x30020fc4
30012734:	3001adb1 	.word	0x3001adb1
30012738:	30012190 	.word	0x30012190
3001273c:	00002710 	.word	0x00002710
30012740:	30011878 	.word	0x30011878
30012744:	3001adc2 	.word	0x3001adc2
30012748:	3001adca 	.word	0x3001adca
3001274c:	30017902 	.word	0x30017902
30012750:	30017906 	.word	0x30017906
30012754:	3001b2e8 	.word	0x3001b2e8
30012758:	30019ad5 	.word	0x30019ad5

3001275c <__fswab32>:
3001275c:	e1a03000 	mov	r3, r0
30012760:	e1a00c00 	lsl	r0, r0, #24
30012764:	e2032cff 	and	r2, r3, #65280	; 0xff00
30012768:	e1800c23 	orr	r0, r0, r3, lsr #24
3001276c:	e1800402 	orr	r0, r0, r2, lsl #8
30012770:	e20338ff 	and	r3, r3, #16711680	; 0xff0000
30012774:	e1800423 	orr	r0, r0, r3, lsr #8
30012778:	e1a0f00e 	mov	pc, lr

3001277c <basename>:
3001277c:	e92d4010 	push	{r4, lr}
30012780:	e1a04000 	mov	r4, r0
30012784:	ebffeb36 	bl	3000d464 <strlen>
30012788:	e2400001 	sub	r0, r0, #1	; 0x1
3001278c:	e0840000 	add	r0, r4, r0
30012790:	ea000005 	b	300127ac <basename+0x30>
30012794:	e5d03000 	ldrb	r3, [r0]
30012798:	e353002f 	cmp	r3, #47	; 0x2f
3001279c:	1a000001 	bne	300127a8 <basename+0x2c>
300127a0:	e2800001 	add	r0, r0, #1	; 0x1
300127a4:	e8bd8010 	pop	{r4, pc}
300127a8:	e2400001 	sub	r0, r0, #1	; 0x1
300127ac:	e1500004 	cmp	r0, r4
300127b0:	2afffff7 	bcs	30012794 <basename+0x18>
300127b4:	e8bd8010 	pop	{r4, pc}

300127b8 <dirname>:
300127b8:	e92d4010 	push	{r4, lr}
300127bc:	e1a04000 	mov	r4, r0
300127c0:	ebffffed 	bl	3001277c <basename>
300127c4:	e3a03000 	mov	r3, #0	; 0x0
300127c8:	e5403001 	strb	r3, [r0, #-1]
300127cc:	e1a00004 	mov	r0, r4
300127d0:	e8bd8010 	pop	{r4, pc}

300127d4 <rpc_add_credentials>:
300127d4:	e92d46f0 	push	{r4, r5, r6, r7, r9, sl, lr}
300127d8:	e24ddf41 	sub	sp, sp, #260	; 0x104
300127dc:	e1a05000 	mov	r5, r0
300127e0:	e59f10c0 	ldr	r1, [pc, #192]	; 300128a8 <rpc_add_credentials+0xd4>
300127e4:	e1a0000d 	mov	r0, sp
300127e8:	ebffeab9 	bl	3000d2d4 <strcpy>
300127ec:	e1a0000d 	mov	r0, sp
300127f0:	ebffeb1b 	bl	3000d464 <strlen>
300127f4:	e280a003 	add	sl, r0, #3	; 0x3
300127f8:	e1a04005 	mov	r4, r5
300127fc:	e3a03401 	mov	r3, #16777216	; 0x1000000
30012800:	e3ca7003 	bic	r7, sl, #3	; 0x3
30012804:	e4843004 	str	r3, [r4], #4
30012808:	e1a06000 	mov	r6, r0
3001280c:	e2870014 	add	r0, r7, #20	; 0x14
30012810:	ebffffd1 	bl	3001275c <__fswab32>
30012814:	e3a09000 	mov	r9, #0	; 0x0
30012818:	e5850004 	str	r0, [r5, #4]
3001281c:	e5849004 	str	r9, [r4, #4]
30012820:	e1a00006 	mov	r0, r6
30012824:	ebffffcc 	bl	3001275c <__fswab32>
30012828:	e2844004 	add	r4, r4, #4	; 0x4
3001282c:	e2843004 	add	r3, r4, #4	; 0x4
30012830:	e3160003 	tst	r6, #3	; 0x3
30012834:	e5840004 	str	r0, [r4, #4]
30012838:	e2835004 	add	r5, r3, #4	; 0x4
3001283c:	0a000004 	beq	30012854 <rpc_add_credentials+0x80>
30012840:	e1560009 	cmp	r6, r9
30012844:	a1a03006 	movge	r3, r6
30012848:	b1a0300a 	movlt	r3, sl
3001284c:	e1a03143 	asr	r3, r3, #2
30012850:	e7859103 	str	r9, [r5, r3, lsl #2]
30012854:	e1a02006 	mov	r2, r6
30012858:	e1a0100d 	mov	r1, sp
3001285c:	e1a00005 	mov	r0, r5
30012860:	ebffebaa 	bl	3000d710 <memcpy>
30012864:	e3570000 	cmp	r7, #0	; 0x0
30012868:	e2872003 	add	r2, r7, #3	; 0x3
3001286c:	a1a02007 	movge	r2, r7
30012870:	e1a02142 	asr	r2, r2, #2
30012874:	e0851102 	add	r1, r5, r2, lsl #2
30012878:	e281c004 	add	ip, r1, #4	; 0x4
3001287c:	e28c4004 	add	r4, ip, #4	; 0x4
30012880:	e3a03000 	mov	r3, #0	; 0x0
30012884:	e2840004 	add	r0, r4, #4	; 0x4
30012888:	e7853102 	str	r3, [r5, r2, lsl #2]
3001288c:	e5813004 	str	r3, [r1, #4]
30012890:	e58c3004 	str	r3, [ip, #4]
30012894:	e5843004 	str	r3, [r4, #4]
30012898:	e5803004 	str	r3, [r0, #4]
3001289c:	e2800008 	add	r0, r0, #8	; 0x8
300128a0:	e28ddf41 	add	sp, sp, #260	; 0x104
300128a4:	e8bd86f0 	pop	{r4, r5, r6, r7, r9, sl, pc}
300128a8:	30018e0b 	.word	0x30018e0b

300128ac <rpc_lookup_reply>:
300128ac:	e92d4070 	push	{r4, r5, r6, lr}
300128b0:	e24ddb02 	sub	sp, sp, #2048	; 0x800
300128b4:	e1a06000 	mov	r6, r0
300128b8:	e1a0000d 	mov	r0, sp
300128bc:	ebffeb93 	bl	3000d710 <memcpy>
300128c0:	e59d0000 	ldr	r0, [sp]
300128c4:	ebffffa4 	bl	3001275c <__fswab32>
300128c8:	e59f5074 	ldr	r5, [pc, #116]	; 30012944 <rpc_lookup_reply+0x98>
300128cc:	e5953000 	ldr	r3, [r5]
300128d0:	e1500003 	cmp	r0, r3
300128d4:	1a000017 	bne	30012938 <rpc_lookup_reply+0x8c>
300128d8:	e59d3008 	ldr	r3, [sp, #8]
300128dc:	e3530000 	cmp	r3, #0	; 0x0
300128e0:	1a000014 	bne	30012938 <rpc_lookup_reply+0x8c>
300128e4:	e59d300c 	ldr	r3, [sp, #12]
300128e8:	e3530000 	cmp	r3, #0	; 0x0
300128ec:	1a000011 	bne	30012938 <rpc_lookup_reply+0x8c>
300128f0:	e59d4014 	ldr	r4, [sp, #20]
300128f4:	e3540000 	cmp	r4, #0	; 0x0
300128f8:	1a00000e 	bne	30012938 <rpc_lookup_reply+0x8c>
300128fc:	e59f3044 	ldr	r3, [pc, #68]	; 30012948 <rpc_lookup_reply+0x9c>
30012900:	e1560003 	cmp	r6, r3
30012904:	0a000007 	beq	30012928 <rpc_lookup_reply+0x7c>
30012908:	e2833002 	add	r3, r3, #2	; 0x2
3001290c:	e1560003 	cmp	r6, r3
30012910:	1a000002 	bne	30012920 <rpc_lookup_reply+0x74>
30012914:	e59d0018 	ldr	r0, [sp, #24]
30012918:	ebffff8f 	bl	3001275c <__fswab32>
3001291c:	e5850004 	str	r0, [r5, #4]
30012920:	e1a00004 	mov	r0, r4
30012924:	ea000004 	b	3001293c <rpc_lookup_reply+0x90>
30012928:	e59d0018 	ldr	r0, [sp, #24]
3001292c:	ebffff8a 	bl	3001275c <__fswab32>
30012930:	e5850008 	str	r0, [r5, #8]
30012934:	eafffff9 	b	30012920 <rpc_lookup_reply+0x74>
30012938:	e3e00000 	mvn	r0, #0	; 0x0
3001293c:	e28ddb02 	add	sp, sp, #2048	; 0x800
30012940:	e8bd8070 	pop	{r4, r5, r6, pc}
30012944:	30020714 	.word	0x30020714
30012948:	000186a3 	.word	0x000186a3

3001294c <nfs_mount_reply>:
3001294c:	e92d4030 	push	{r4, r5, lr}
30012950:	e24ddb02 	sub	sp, sp, #2048	; 0x800
30012954:	e24dd004 	sub	sp, sp, #4	; 0x4
30012958:	e1a02001 	mov	r2, r1
3001295c:	e1a01000 	mov	r1, r0
30012960:	e1a0000d 	mov	r0, sp
30012964:	ebffeb69 	bl	3000d710 <memcpy>
30012968:	e59d0000 	ldr	r0, [sp]
3001296c:	ebffff7a 	bl	3001275c <__fswab32>
30012970:	e59fc06c 	ldr	ip, [pc, #108]	; 300129e4 <nfs_mount_reply+0x98>
30012974:	e59c3000 	ldr	r3, [ip]
30012978:	e1500003 	cmp	r0, r3
3001297c:	e1a0500d 	mov	r5, sp
30012980:	1a000013 	bne	300129d4 <nfs_mount_reply+0x88>
30012984:	e59d3008 	ldr	r3, [sp, #8]
30012988:	e3530000 	cmp	r3, #0	; 0x0
3001298c:	1a000010 	bne	300129d4 <nfs_mount_reply+0x88>
30012990:	e59d300c 	ldr	r3, [sp, #12]
30012994:	e3530000 	cmp	r3, #0	; 0x0
30012998:	1a00000d 	bne	300129d4 <nfs_mount_reply+0x88>
3001299c:	e59d3014 	ldr	r3, [sp, #20]
300129a0:	e3530000 	cmp	r3, #0	; 0x0
300129a4:	1a00000a 	bne	300129d4 <nfs_mount_reply+0x88>
300129a8:	e59d4018 	ldr	r4, [sp, #24]
300129ac:	e3540000 	cmp	r4, #0	; 0x0
300129b0:	1a000007 	bne	300129d4 <nfs_mount_reply+0x88>
300129b4:	e2833001 	add	r3, r3, #1	; 0x1
300129b8:	e28c0010 	add	r0, ip, #16	; 0x10
300129bc:	e28d101c 	add	r1, sp, #28	; 0x1c
300129c0:	e3a02020 	mov	r2, #32	; 0x20
300129c4:	e58c300c 	str	r3, [ip, #12]
300129c8:	ebffeb50 	bl	3000d710 <memcpy>
300129cc:	e1a00004 	mov	r0, r4
300129d0:	ea000000 	b	300129d8 <nfs_mount_reply+0x8c>
300129d4:	e3e00000 	mvn	r0, #0	; 0x0
300129d8:	e28dd004 	add	sp, sp, #4	; 0x4
300129dc:	e28ddb02 	add	sp, sp, #2048	; 0x800
300129e0:	e8bd8030 	pop	{r4, r5, pc}
300129e4:	30020714 	.word	0x30020714

300129e8 <nfs_umountall_reply>:
300129e8:	e92d4010 	push	{r4, lr}
300129ec:	e24ddb02 	sub	sp, sp, #2048	; 0x800
300129f0:	e1a02001 	mov	r2, r1
300129f4:	e1a01000 	mov	r1, r0
300129f8:	e1a0000d 	mov	r0, sp
300129fc:	ebffeb43 	bl	3000d710 <memcpy>
30012a00:	e59d0000 	ldr	r0, [sp]
30012a04:	ebffff54 	bl	3001275c <__fswab32>
30012a08:	e59fc054 	ldr	ip, [pc, #84]	; 30012a64 <nfs_umountall_reply+0x7c>
30012a0c:	e59c3000 	ldr	r3, [ip]
30012a10:	e1500003 	cmp	r0, r3
30012a14:	1a00000f 	bne	30012a58 <nfs_umountall_reply+0x70>
30012a18:	e59d3008 	ldr	r3, [sp, #8]
30012a1c:	e3530000 	cmp	r3, #0	; 0x0
30012a20:	1a00000c 	bne	30012a58 <nfs_umountall_reply+0x70>
30012a24:	e59d300c 	ldr	r3, [sp, #12]
30012a28:	e3530000 	cmp	r3, #0	; 0x0
30012a2c:	1a000009 	bne	30012a58 <nfs_umountall_reply+0x70>
30012a30:	e59d4014 	ldr	r4, [sp, #20]
30012a34:	e3540000 	cmp	r4, #0	; 0x0
30012a38:	1a000006 	bne	30012a58 <nfs_umountall_reply+0x70>
30012a3c:	e28c0010 	add	r0, ip, #16	; 0x10
30012a40:	e1a01004 	mov	r1, r4
30012a44:	e3a02020 	mov	r2, #32	; 0x20
30012a48:	e58c400c 	str	r4, [ip, #12]
30012a4c:	ebffeb05 	bl	3000d668 <memset>
30012a50:	e1a00004 	mov	r0, r4
30012a54:	ea000000 	b	30012a5c <nfs_umountall_reply+0x74>
30012a58:	e3e00000 	mvn	r0, #0	; 0x0
30012a5c:	e28ddb02 	add	sp, sp, #2048	; 0x800
30012a60:	e8bd8010 	pop	{r4, pc}
30012a64:	30020714 	.word	0x30020714

30012a68 <nfs_lookup_reply>:
30012a68:	e92d4030 	push	{r4, r5, lr}
30012a6c:	e24ddb02 	sub	sp, sp, #2048	; 0x800
30012a70:	e24dd004 	sub	sp, sp, #4	; 0x4
30012a74:	e1a02001 	mov	r2, r1
30012a78:	e1a01000 	mov	r1, r0
30012a7c:	e1a0000d 	mov	r0, sp
30012a80:	ebffeb22 	bl	3000d710 <memcpy>
30012a84:	e59d0000 	ldr	r0, [sp]
30012a88:	ebffff33 	bl	3001275c <__fswab32>
30012a8c:	e59f2064 	ldr	r2, [pc, #100]	; 30012af8 <nfs_lookup_reply+0x90>
30012a90:	e5923000 	ldr	r3, [r2]
30012a94:	e1500003 	cmp	r0, r3
30012a98:	e1a0500d 	mov	r5, sp
30012a9c:	1a000011 	bne	30012ae8 <nfs_lookup_reply+0x80>
30012aa0:	e59d3008 	ldr	r3, [sp, #8]
30012aa4:	e3530000 	cmp	r3, #0	; 0x0
30012aa8:	1a00000e 	bne	30012ae8 <nfs_lookup_reply+0x80>
30012aac:	e59d300c 	ldr	r3, [sp, #12]
30012ab0:	e3530000 	cmp	r3, #0	; 0x0
30012ab4:	1a00000b 	bne	30012ae8 <nfs_lookup_reply+0x80>
30012ab8:	e59d3014 	ldr	r3, [sp, #20]
30012abc:	e3530000 	cmp	r3, #0	; 0x0
30012ac0:	1a000008 	bne	30012ae8 <nfs_lookup_reply+0x80>
30012ac4:	e59d4018 	ldr	r4, [sp, #24]
30012ac8:	e3540000 	cmp	r4, #0	; 0x0
30012acc:	1a000005 	bne	30012ae8 <nfs_lookup_reply+0x80>
30012ad0:	e2820030 	add	r0, r2, #48	; 0x30
30012ad4:	e28d101c 	add	r1, sp, #28	; 0x1c
30012ad8:	e3a02020 	mov	r2, #32	; 0x20
30012adc:	ebffeb0b 	bl	3000d710 <memcpy>
30012ae0:	e1a00004 	mov	r0, r4
30012ae4:	ea000000 	b	30012aec <nfs_lookup_reply+0x84>
30012ae8:	e3e00000 	mvn	r0, #0	; 0x0
30012aec:	e28dd004 	add	sp, sp, #4	; 0x4
30012af0:	e28ddb02 	add	sp, sp, #2048	; 0x800
30012af4:	e8bd8030 	pop	{r4, r5, pc}
30012af8:	30020714 	.word	0x30020714

30012afc <rpc_req>:
30012afc:	e92d46f0 	push	{r4, r5, r6, r7, r9, sl, lr}
30012b00:	e59fe0e8 	ldr	lr, [pc, #232]	; 30012bf0 <rpc_req+0xf4>
30012b04:	e59ec000 	ldr	ip, [lr]
30012b08:	e24ddb02 	sub	sp, sp, #2048	; 0x800
30012b0c:	e28cc001 	add	ip, ip, #1	; 0x1
30012b10:	e24dd00c 	sub	sp, sp, #12	; 0xc
30012b14:	e58ec000 	str	ip, [lr]
30012b18:	e1a0a000 	mov	sl, r0
30012b1c:	e1a0000c 	mov	r0, ip
30012b20:	e1a07003 	mov	r7, r3
30012b24:	e1a04001 	mov	r4, r1
30012b28:	e1a09002 	mov	r9, r2
30012b2c:	ebffff0a 	bl	3001275c <__fswab32>
30012b30:	e1a05000 	mov	r5, r0
30012b34:	e1a0000a 	mov	r0, sl
30012b38:	ebffff07 	bl	3001275c <__fswab32>
30012b3c:	e1a06000 	mov	r6, r0
30012b40:	e1a00004 	mov	r0, r4
30012b44:	ebffff04 	bl	3001275c <__fswab32>
30012b48:	e3a02402 	mov	r2, #33554432	; 0x2000000
30012b4c:	e3a03000 	mov	r3, #0	; 0x0
30012b50:	e3570000 	cmp	r7, #0	; 0x0
30012b54:	e58d5008 	str	r5, [sp, #8]
30012b58:	e58d300c 	str	r3, [sp, #12]
30012b5c:	e58d6014 	str	r6, [sp, #20]
30012b60:	e58d2018 	str	r2, [sp, #24]
30012b64:	e58d001c 	str	r0, [sp, #28]
30012b68:	e58d2010 	str	r2, [sp, #16]
30012b6c:	128d0008 	addne	r0, sp, #8	; 0x8
30012b70:	12800018 	addne	r0, r0, #24	; 0x18
30012b74:	11a01009 	movne	r1, r9
30012b78:	11a02107 	lslne	r2, r7, #2
30012b7c:	1bffeae3 	blne	3000d710 <memcpy>
30012b80:	e1a03107 	lsl	r3, r7, #2
30012b84:	e2835018 	add	r5, r3, #24	; 0x18
30012b88:	e59f3064 	ldr	r3, [pc, #100]	; 30012bf4 <rpc_req+0xf8>
30012b8c:	e5934000 	ldr	r4, [r3]
30012b90:	ebfffa7a 	bl	30011580 <NetEthHdrSize>
30012b94:	e280001c 	add	r0, r0, #28	; 0x1c
30012b98:	e1a02005 	mov	r2, r5
30012b9c:	e0840000 	add	r0, r4, r0
30012ba0:	e28d1008 	add	r1, sp, #8	; 0x8
30012ba4:	ebffead9 	bl	3000d710 <memcpy>
30012ba8:	e59f3048 	ldr	r3, [pc, #72]	; 30012bf8 <rpc_req+0xfc>
30012bac:	e15a0003 	cmp	sl, r3
30012bb0:	03a0206f 	moveq	r2, #111	; 0x6f
30012bb4:	0a000004 	beq	30012bcc <rpc_req+0xd0>
30012bb8:	e59f303c 	ldr	r3, [pc, #60]	; 30012bfc <rpc_req+0x100>
30012bbc:	e59f202c 	ldr	r2, [pc, #44]	; 30012bf0 <rpc_req+0xf4>
30012bc0:	e15a0003 	cmp	sl, r3
30012bc4:	05922004 	ldreq	r2, [r2, #4]
30012bc8:	15922008 	ldrne	r2, [r2, #8]
30012bcc:	e59f101c 	ldr	r1, [pc, #28]	; 30012bf0 <rpc_req+0xf4>
30012bd0:	e59f0028 	ldr	r0, [pc, #40]	; 30012c00 <rpc_req+0x104>
30012bd4:	e2811050 	add	r1, r1, #80	; 0x50
30012bd8:	e891000a 	ldm	r1, {r1, r3}
30012bdc:	e58d5000 	str	r5, [sp]
30012be0:	ebfffd1b 	bl	30012054 <NetSendUDPPacket>
30012be4:	e28dd00c 	add	sp, sp, #12	; 0xc
30012be8:	e28ddb02 	add	sp, sp, #2048	; 0x800
30012bec:	e8bd86f0 	pop	{r4, r5, r6, r7, r9, sl, pc}
30012bf0:	30020714 	.word	0x30020714
30012bf4:	3001e180 	.word	0x3001e180
30012bf8:	000186a0 	.word	0x000186a0
30012bfc:	000186a5 	.word	0x000186a5
30012c00:	3001e178 	.word	0x3001e178

30012c04 <rpc_lookup_req>:
30012c04:	e92d4030 	push	{r4, r5, lr}
30012c08:	e24dd044 	sub	sp, sp, #68	; 0x44
30012c0c:	e1a04001 	mov	r4, r1
30012c10:	ebfffed1 	bl	3001275c <__fswab32>
30012c14:	e1a05000 	mov	r5, r0
30012c18:	e1a00004 	mov	r0, r4
30012c1c:	ebfffece 	bl	3001275c <__fswab32>
30012c20:	e3a04000 	mov	r4, #0	; 0x0
30012c24:	e58d0014 	str	r0, [sp, #20]
30012c28:	e3a0c411 	mov	ip, #285212672	; 0x11000000
30012c2c:	e59f0030 	ldr	r0, [pc, #48]	; 30012c64 <rpc_lookup_req+0x60>
30012c30:	e3a01003 	mov	r1, #3	; 0x3
30012c34:	e1a0200d 	mov	r2, sp
30012c38:	e3a03008 	mov	r3, #8	; 0x8
30012c3c:	e58d5010 	str	r5, [sp, #16]
30012c40:	e58dc018 	str	ip, [sp, #24]
30012c44:	e58d401c 	str	r4, [sp, #28]
30012c48:	e58d4000 	str	r4, [sp]
30012c4c:	e58d4004 	str	r4, [sp, #4]
30012c50:	e58d4008 	str	r4, [sp, #8]
30012c54:	e58d400c 	str	r4, [sp, #12]
30012c58:	ebffffa7 	bl	30012afc <rpc_req>
30012c5c:	e28dd044 	add	sp, sp, #68	; 0x44
30012c60:	e8bd8030 	pop	{r4, r5, pc}
30012c64:	000186a0 	.word	0x000186a0

30012c68 <nfs_mount_req>:
30012c68:	e92d4070 	push	{r4, r5, r6, lr}
30012c6c:	e24dda01 	sub	sp, sp, #4096	; 0x1000
30012c70:	e1a06000 	mov	r6, r0
30012c74:	ebffe9fa 	bl	3000d464 <strlen>
30012c78:	e1a05000 	mov	r5, r0
30012c7c:	e1a0000d 	mov	r0, sp
30012c80:	ebfffed3 	bl	300127d4 <rpc_add_credentials>
30012c84:	e1a04000 	mov	r4, r0
30012c88:	e1a00005 	mov	r0, r5
30012c8c:	ebfffeb2 	bl	3001275c <__fswab32>
30012c90:	e3150003 	tst	r5, #3	; 0x3
30012c94:	e4840004 	str	r0, [r4], #4
30012c98:	0a000005 	beq	30012cb4 <nfs_mount_req+0x4c>
30012c9c:	e3550000 	cmp	r5, #0	; 0x0
30012ca0:	e2853003 	add	r3, r5, #3	; 0x3
30012ca4:	a1a03005 	movge	r3, r5
30012ca8:	e1a03143 	asr	r3, r3, #2
30012cac:	e3a02000 	mov	r2, #0	; 0x0
30012cb0:	e7842103 	str	r2, [r4, r3, lsl #2]
30012cb4:	e1a01006 	mov	r1, r6
30012cb8:	e1a02005 	mov	r2, r5
30012cbc:	e1a00004 	mov	r0, r4
30012cc0:	ebffea92 	bl	3000d710 <memcpy>
30012cc4:	e2953003 	adds	r3, r5, #3	; 0x3
30012cc8:	42853006 	addmi	r3, r5, #6	; 0x6
30012ccc:	e3c33003 	bic	r3, r3, #3	; 0x3
30012cd0:	e0843003 	add	r3, r4, r3
30012cd4:	e1a0200d 	mov	r2, sp
30012cd8:	e0623003 	rsb	r3, r2, r3
30012cdc:	e1a03143 	asr	r3, r3, #2
30012ce0:	e59f000c 	ldr	r0, [pc, #12]	; 30012cf4 <nfs_mount_req+0x8c>
30012ce4:	e3a01001 	mov	r1, #1	; 0x1
30012ce8:	ebffff83 	bl	30012afc <rpc_req>
30012cec:	e28dda01 	add	sp, sp, #4096	; 0x1000
30012cf0:	e8bd8070 	pop	{r4, r5, r6, pc}
30012cf4:	000186a5 	.word	0x000186a5

30012cf8 <nfs_umountall_req>:
30012cf8:	e92d4010 	push	{r4, lr}
30012cfc:	e59f2044 	ldr	r2, [pc, #68]	; 30012d48 <nfs_umountall_req+0x50>
30012d00:	e5923004 	ldr	r3, [r2, #4]
30012d04:	e3730001 	cmn	r3, #1	; 0x1
30012d08:	e24dda01 	sub	sp, sp, #4096	; 0x1000
30012d0c:	0a00000b 	beq	30012d40 <nfs_umountall_req+0x48>
30012d10:	e592300c 	ldr	r3, [r2, #12]
30012d14:	e3530000 	cmp	r3, #0	; 0x0
30012d18:	0a000008 	beq	30012d40 <nfs_umountall_req+0x48>
30012d1c:	e1a0000d 	mov	r0, sp
30012d20:	ebfffeab 	bl	300127d4 <rpc_add_credentials>
30012d24:	e1a0400d 	mov	r4, sp
30012d28:	e0643000 	rsb	r3, r4, r0
30012d2c:	e1a0200d 	mov	r2, sp
30012d30:	e1a03143 	asr	r3, r3, #2
30012d34:	e59f0010 	ldr	r0, [pc, #16]	; 30012d4c <nfs_umountall_req+0x54>
30012d38:	e3a01004 	mov	r1, #4	; 0x4
30012d3c:	ebffff6e 	bl	30012afc <rpc_req>
30012d40:	e28dda01 	add	sp, sp, #4096	; 0x1000
30012d44:	e8bd8010 	pop	{r4, pc}
30012d48:	30020714 	.word	0x30020714
30012d4c:	000186a5 	.word	0x000186a5

30012d50 <nfs_lookup_req>:
30012d50:	e92d4070 	push	{r4, r5, r6, lr}
30012d54:	e24dda01 	sub	sp, sp, #4096	; 0x1000
30012d58:	e1a06000 	mov	r6, r0
30012d5c:	ebffe9c0 	bl	3000d464 <strlen>
30012d60:	e1a05000 	mov	r5, r0
30012d64:	e1a0000d 	mov	r0, sp
30012d68:	ebfffe99 	bl	300127d4 <rpc_add_credentials>
30012d6c:	e59f1078 	ldr	r1, [pc, #120]	; 30012dec <nfs_lookup_req+0x9c>
30012d70:	e3a02020 	mov	r2, #32	; 0x20
30012d74:	e1a04000 	mov	r4, r0
30012d78:	ebffea64 	bl	3000d710 <memcpy>
30012d7c:	e1a00005 	mov	r0, r5
30012d80:	ebfffe75 	bl	3001275c <__fswab32>
30012d84:	e3150003 	tst	r5, #3	; 0x3
30012d88:	e5840020 	str	r0, [r4, #32]
30012d8c:	e2844024 	add	r4, r4, #36	; 0x24
30012d90:	0a000005 	beq	30012dac <nfs_lookup_req+0x5c>
30012d94:	e3550000 	cmp	r5, #0	; 0x0
30012d98:	e2853003 	add	r3, r5, #3	; 0x3
30012d9c:	a1a03005 	movge	r3, r5
30012da0:	e1a03143 	asr	r3, r3, #2
30012da4:	e3a02000 	mov	r2, #0	; 0x0
30012da8:	e7842103 	str	r2, [r4, r3, lsl #2]
30012dac:	e1a01006 	mov	r1, r6
30012db0:	e1a02005 	mov	r2, r5
30012db4:	e1a00004 	mov	r0, r4
30012db8:	ebffea54 	bl	3000d710 <memcpy>
30012dbc:	e2953003 	adds	r3, r5, #3	; 0x3
30012dc0:	42853006 	addmi	r3, r5, #6	; 0x6
30012dc4:	e3c33003 	bic	r3, r3, #3	; 0x3
30012dc8:	e0843003 	add	r3, r4, r3
30012dcc:	e1a0200d 	mov	r2, sp
30012dd0:	e0623003 	rsb	r3, r2, r3
30012dd4:	e1a03143 	asr	r3, r3, #2
30012dd8:	e59f0010 	ldr	r0, [pc, #16]	; 30012df0 <nfs_lookup_req+0xa0>
30012ddc:	e3a01004 	mov	r1, #4	; 0x4
30012de0:	ebffff45 	bl	30012afc <rpc_req>
30012de4:	e28dda01 	add	sp, sp, #4096	; 0x1000
30012de8:	e8bd8070 	pop	{r4, r5, r6, pc}
30012dec:	30020724 	.word	0x30020724
30012df0:	000186a3 	.word	0x000186a3

30012df4 <nfs_read_req>:
30012df4:	e92d40f0 	push	{r4, r5, r6, r7, lr}
30012df8:	e24dda01 	sub	sp, sp, #4096	; 0x1000
30012dfc:	e24dd004 	sub	sp, sp, #4	; 0x4
30012e00:	e1a06000 	mov	r6, r0
30012e04:	e1a0000d 	mov	r0, sp
30012e08:	e1a07001 	mov	r7, r1
30012e0c:	ebfffe70 	bl	300127d4 <rpc_add_credentials>
30012e10:	e59f1054 	ldr	r1, [pc, #84]	; 30012e6c <nfs_read_req+0x78>
30012e14:	e3a02020 	mov	r2, #32	; 0x20
30012e18:	e1a04000 	mov	r4, r0
30012e1c:	ebffea3b 	bl	3000d710 <memcpy>
30012e20:	e1a00006 	mov	r0, r6
30012e24:	ebfffe4c 	bl	3001275c <__fswab32>
30012e28:	e5840020 	str	r0, [r4, #32]
30012e2c:	e1a00007 	mov	r0, r7
30012e30:	ebfffe49 	bl	3001275c <__fswab32>
30012e34:	e1a0500d 	mov	r5, sp
30012e38:	e284302c 	add	r3, r4, #44	; 0x2c
30012e3c:	e0653003 	rsb	r3, r5, r3
30012e40:	e3a02000 	mov	r2, #0	; 0x0
30012e44:	e5840024 	str	r0, [r4, #36]
30012e48:	e5842028 	str	r2, [r4, #40]
30012e4c:	e1a03143 	asr	r3, r3, #2
30012e50:	e1a0200d 	mov	r2, sp
30012e54:	e59f0014 	ldr	r0, [pc, #20]	; 30012e70 <nfs_read_req+0x7c>
30012e58:	e3a01006 	mov	r1, #6	; 0x6
30012e5c:	ebffff26 	bl	30012afc <rpc_req>
30012e60:	e28dd004 	add	sp, sp, #4	; 0x4
30012e64:	e28dda01 	add	sp, sp, #4096	; 0x1000
30012e68:	e8bd80f0 	pop	{r4, r5, r6, r7, pc}
30012e6c:	30020744 	.word	0x30020744
30012e70:	000186a3 	.word	0x000186a3

30012e74 <nfs_readlink_req>:
30012e74:	e92d4030 	push	{r4, r5, lr}
30012e78:	e24dda01 	sub	sp, sp, #4096	; 0x1000
30012e7c:	e24dd004 	sub	sp, sp, #4	; 0x4
30012e80:	e1a0000d 	mov	r0, sp
30012e84:	ebfffe52 	bl	300127d4 <rpc_add_credentials>
30012e88:	e1a04000 	mov	r4, r0
30012e8c:	e1a0500d 	mov	r5, sp
30012e90:	e2844020 	add	r4, r4, #32	; 0x20
30012e94:	e59f1028 	ldr	r1, [pc, #40]	; 30012ec4 <nfs_readlink_req+0x50>
30012e98:	e3a02020 	mov	r2, #32	; 0x20
30012e9c:	e0654004 	rsb	r4, r5, r4
30012ea0:	ebffea1a 	bl	3000d710 <memcpy>
30012ea4:	e1a0200d 	mov	r2, sp
30012ea8:	e1a03144 	asr	r3, r4, #2
30012eac:	e59f0014 	ldr	r0, [pc, #20]	; 30012ec8 <nfs_readlink_req+0x54>
30012eb0:	e3a01005 	mov	r1, #5	; 0x5
30012eb4:	ebffff10 	bl	30012afc <rpc_req>
30012eb8:	e28dd004 	add	sp, sp, #4	; 0x4
30012ebc:	e28dda01 	add	sp, sp, #4096	; 0x1000
30012ec0:	e8bd8030 	pop	{r4, r5, pc}
30012ec4:	30020744 	.word	0x30020744
30012ec8:	000186a3 	.word	0x000186a3

30012ecc <NfsSend>:
30012ecc:	e59f307c 	ldr	r3, [pc, #124]	; 30012f50 <NfsSend+0x84>
30012ed0:	e5933058 	ldr	r3, [r3, #88]
30012ed4:	e2433001 	sub	r3, r3, #1	; 0x1
30012ed8:	e3530006 	cmp	r3, #6	; 0x6
30012edc:	979ff103 	ldrls	pc, [pc, r3, lsl #2]
30012ee0:	ea000019 	b	30012f4c <NfsSend+0x80>
30012ee4:	30012f00 	.word	0x30012f00
30012ee8:	30012f0c 	.word	0x30012f0c
30012eec:	30012f18 	.word	0x30012f18
30012ef0:	30012f24 	.word	0x30012f24
30012ef4:	30012f28 	.word	0x30012f28
30012ef8:	30012f34 	.word	0x30012f34
30012efc:	30012f48 	.word	0x30012f48
30012f00:	e59f004c 	ldr	r0, [pc, #76]	; 30012f54 <NfsSend+0x88>
30012f04:	e3a01001 	mov	r1, #1	; 0x1
30012f08:	ea000001 	b	30012f14 <NfsSend+0x48>
30012f0c:	e59f0044 	ldr	r0, [pc, #68]	; 30012f58 <NfsSend+0x8c>
30012f10:	e3a01002 	mov	r1, #2	; 0x2
30012f14:	eaffff3a 	b	30012c04 <rpc_lookup_req>
30012f18:	e59f3030 	ldr	r3, [pc, #48]	; 30012f50 <NfsSend+0x84>
30012f1c:	e593005c 	ldr	r0, [r3, #92]
30012f20:	eaffff50 	b	30012c68 <nfs_mount_req>
30012f24:	eaffff73 	b	30012cf8 <nfs_umountall_req>
30012f28:	e59f3020 	ldr	r3, [pc, #32]	; 30012f50 <NfsSend+0x84>
30012f2c:	e5930060 	ldr	r0, [r3, #96]
30012f30:	eaffff86 	b	30012d50 <nfs_lookup_req>
30012f34:	e59f3020 	ldr	r3, [pc, #32]	; 30012f5c <NfsSend+0x90>
30012f38:	e5930000 	ldr	r0, [r3]
30012f3c:	e59f300c 	ldr	r3, [pc, #12]	; 30012f50 <NfsSend+0x84>
30012f40:	e5931064 	ldr	r1, [r3, #100]
30012f44:	eaffffaa 	b	30012df4 <nfs_read_req>
30012f48:	eaffffc9 	b	30012e74 <nfs_readlink_req>
30012f4c:	e1a0f00e 	mov	pc, lr
30012f50:	30020714 	.word	0x30020714
30012f54:	000186a5 	.word	0x000186a5
30012f58:	000186a3 	.word	0x000186a3
30012f5c:	3001bd3c 	.word	0x3001bd3c

30012f60 <NfsStart>:
30012f60:	e92d4073 	push	{r0, r1, r4, r5, r6, lr}
30012f64:	e59f61c8 	ldr	r6, [pc, #456]	; 30013134 <NfsStart+0x1d4>
30012f68:	e59f31c8 	ldr	r3, [pc, #456]	; 30013138 <NfsStart+0x1d8>
30012f6c:	e59f41c8 	ldr	r4, [pc, #456]	; 3001313c <NfsStart+0x1dc>
30012f70:	e5d62000 	ldrb	r2, [r6]
30012f74:	e5931000 	ldr	r1, [r3]
30012f78:	e3520000 	cmp	r2, #0	; 0x0
30012f7c:	e3a03004 	mov	r3, #4	; 0x4
30012f80:	e284206c 	add	r2, r4, #108	; 0x6c
30012f84:	e5843068 	str	r3, [r4, #104]
30012f88:	e5841050 	str	r1, [r4, #80]
30012f8c:	e584205c 	str	r2, [r4, #92]
30012f90:	1a000013 	bne	30012fe4 <NfsStart+0x84>
30012f94:	e59f31a4 	ldr	r3, [pc, #420]	; 30013140 <NfsStart+0x1e0>
30012f98:	e593c000 	ldr	ip, [r3]
30012f9c:	e1a0342c 	lsr	r3, ip, #8
30012fa0:	e1a0e82c 	lsr	lr, ip, #16
30012fa4:	e20c20ff 	and	r2, ip, #255	; 0xff
30012fa8:	e20ee0ff 	and	lr, lr, #255	; 0xff
30012fac:	e1a0cc2c 	lsr	ip, ip, #24
30012fb0:	e20330ff 	and	r3, r3, #255	; 0xff
30012fb4:	e59f1188 	ldr	r1, [pc, #392]	; 30013144 <NfsStart+0x1e4>
30012fb8:	e59f0188 	ldr	r0, [pc, #392]	; 30013148 <NfsStart+0x1e8>
30012fbc:	e58de000 	str	lr, [sp]
30012fc0:	e58dc004 	str	ip, [sp, #4]
30012fc4:	ebffed7d 	bl	3000e5c0 <sprintf>
30012fc8:	e594005c 	ldr	r0, [r4, #92]
30012fcc:	e59f1174 	ldr	r1, [pc, #372]	; 30013148 <NfsStart+0x1e8>
30012fd0:	ebffe8bf 	bl	3000d2d4 <strcpy>
30012fd4:	e594105c 	ldr	r1, [r4, #92]
30012fd8:	e59f016c 	ldr	r0, [pc, #364]	; 3001314c <NfsStart+0x1ec>
30012fdc:	ebffccc8 	bl	30006304 <printf>
30012fe0:	ea00000c 	b	30013018 <NfsStart+0xb8>
30012fe4:	e3a0103a 	mov	r1, #58	; 0x3a
30012fe8:	e1a00006 	mov	r0, r6
30012fec:	ebffe911 	bl	3000d438 <strchr>
30012ff0:	e2505000 	subs	r5, r0, #0	; 0x0
30012ff4:	0594005c 	ldreq	r0, [r4, #92]
30012ff8:	01a01006 	moveq	r1, r6
30012ffc:	0a000004 	beq	30013014 <NfsStart+0xb4>
30013000:	e1a00006 	mov	r0, r6
30013004:	ebfff940 	bl	3001150c <string_to_ip>
30013008:	e5840050 	str	r0, [r4, #80]
3001300c:	e594005c 	ldr	r0, [r4, #92]
30013010:	e2851001 	add	r1, r5, #1	; 0x1
30013014:	ebffe8ae 	bl	3000d2d4 <strcpy>
30013018:	e59f411c 	ldr	r4, [pc, #284]	; 3001313c <NfsStart+0x1dc>
3001301c:	e594005c 	ldr	r0, [r4, #92]
30013020:	ebfffdd5 	bl	3001277c <basename>
30013024:	e5840060 	str	r0, [r4, #96]
30013028:	e594005c 	ldr	r0, [r4, #92]
3001302c:	ebfffde1 	bl	300127b8 <dirname>
30013030:	e584005c 	str	r0, [r4, #92]
30013034:	eb00066e 	bl	300149f4 <eth_get_name>
30013038:	e59f5100 	ldr	r5, [pc, #256]	; 30013140 <NfsStart+0x1e0>
3001303c:	e1a01000 	mov	r1, r0
30013040:	e59f0108 	ldr	r0, [pc, #264]	; 30013150 <NfsStart+0x1f0>
30013044:	ebffccae 	bl	30006304 <printf>
30013048:	e2841050 	add	r1, r4, #80	; 0x50
3001304c:	e59f0100 	ldr	r0, [pc, #256]	; 30013154 <NfsStart+0x1f4>
30013050:	e1a02005 	mov	r2, r5
30013054:	ebffccaa 	bl	30006304 <printf>
30013058:	e59f10f8 	ldr	r1, [pc, #248]	; 30013158 <NfsStart+0x1f8>
3001305c:	e5913000 	ldr	r3, [r1]
30013060:	e3530000 	cmp	r3, #0	; 0x0
30013064:	0a00000b 	beq	30013098 <NfsStart+0x138>
30013068:	e59f30ec 	ldr	r3, [pc, #236]	; 3001315c <NfsStart+0x1fc>
3001306c:	e5930000 	ldr	r0, [r3]
30013070:	e3500000 	cmp	r0, #0	; 0x0
30013074:	0a000007 	beq	30013098 <NfsStart+0x138>
30013078:	e59f30b8 	ldr	r3, [pc, #184]	; 30013138 <NfsStart+0x1d8>
3001307c:	e5952000 	ldr	r2, [r5]
30013080:	e5933000 	ldr	r3, [r3]
30013084:	e0002002 	and	r2, r0, r2
30013088:	e0003003 	and	r3, r0, r3
3001308c:	e1520003 	cmp	r2, r3
30013090:	159f00c8 	ldrne	r0, [pc, #200]	; 30013160 <NfsStart+0x200>
30013094:	1bffcc9a 	blne	30006304 <printf>
30013098:	e59f309c 	ldr	r3, [pc, #156]	; 3001313c <NfsStart+0x1dc>
3001309c:	e59f40c0 	ldr	r4, [pc, #192]	; 30013164 <NfsStart+0x204>
300130a0:	e283105c 	add	r1, r3, #92	; 0x5c
300130a4:	e8910006 	ldm	r1, {r1, r2}
300130a8:	e59f00b8 	ldr	r0, [pc, #184]	; 30013168 <NfsStart+0x208>
300130ac:	ebffcc94 	bl	30006304 <printf>
300130b0:	e1d410b0 	ldrh	r1, [r4]
300130b4:	e3510000 	cmp	r1, #0	; 0x0
300130b8:	0a000006 	beq	300130d8 <NfsStart+0x178>
300130bc:	e1a01481 	lsl	r1, r1, #9
300130c0:	e59f00a4 	ldr	r0, [pc, #164]	; 3001316c <NfsStart+0x20c>
300130c4:	ebffcc8e 	bl	30006304 <printf>
300130c8:	e1d400b0 	ldrh	r0, [r4]
300130cc:	e59f109c 	ldr	r1, [pc, #156]	; 30013170 <NfsStart+0x210>
300130d0:	e1a00480 	lsl	r0, r0, #9
300130d4:	ebffe61b 	bl	3000c948 <print_size>
300130d8:	e59f3094 	ldr	r3, [pc, #148]	; 30013174 <NfsStart+0x214>
300130dc:	e59f0094 	ldr	r0, [pc, #148]	; 30013178 <NfsStart+0x218>
300130e0:	e5931000 	ldr	r1, [r3]
300130e4:	ebffcc86 	bl	30006304 <printf>
300130e8:	e59f108c 	ldr	r1, [pc, #140]	; 3001317c <NfsStart+0x21c>
300130ec:	e3a00e7d 	mov	r0, #2000	; 0x7d0
300130f0:	ebfff960 	bl	30011678 <NetSetTimeout>
300130f4:	e59f0084 	ldr	r0, [pc, #132]	; 30013180 <NfsStart+0x220>
300130f8:	ebfff8b7 	bl	300113dc <NetSetHandler>
300130fc:	e59fc038 	ldr	ip, [pc, #56]	; 3001313c <NfsStart+0x1dc>
30013100:	e3a03ffa 	mov	r3, #1000	; 0x3e8
30013104:	e3a04000 	mov	r4, #0	; 0x0
30013108:	e58c3054 	str	r3, [ip, #84]
3001310c:	e3a03001 	mov	r3, #1	; 0x1
30013110:	e1a01004 	mov	r1, r4
30013114:	e3a02006 	mov	r2, #6	; 0x6
30013118:	e58c3058 	str	r3, [ip, #88]
3001311c:	e58c48ac 	str	r4, [ip, #2220]
30013120:	e59f005c 	ldr	r0, [pc, #92]	; 30013184 <NfsStart+0x224>
30013124:	ebffe94f 	bl	3000d668 <memset>
30013128:	e28dd008 	add	sp, sp, #8	; 0x8
3001312c:	e8bd4070 	pop	{r4, r5, r6, lr}
30013130:	eaffff65 	b	30012ecc <NfsSend>
30013134:	30020692 	.word	0x30020692
30013138:	3001e174 	.word	0x3001e174
3001313c:	30020714 	.word	0x30020714
30013140:	3001e148 	.word	0x3001e148
30013144:	3001aded 	.word	0x3001aded
30013148:	30020f80 	.word	0x30020f80
3001314c:	3001ae0f 	.word	0x3001ae0f
30013150:	3001adb1 	.word	0x3001adb1
30013154:	3001ae3b 	.word	0x3001ae3b
30013158:	3001e188 	.word	0x3001e188
3001315c:	3001e184 	.word	0x3001e184
30013160:	3001ae7a 	.word	0x3001ae7a
30013164:	30020690 	.word	0x30020690
30013168:	3001ae99 	.word	0x3001ae99
3001316c:	3001aeac 	.word	0x3001aeac
30013170:	30018e0b 	.word	0x30018e0b
30013174:	3001b2e8 	.word	0x3001b2e8
30013178:	3001aec3 	.word	0x3001aec3
3001317c:	30013590 	.word	0x30013590
30013180:	300133b4 	.word	0x300133b4
30013184:	3001e178 	.word	0x3001e178

30013188 <nfs_readlink_reply>:
30013188:	e92d44f0 	push	{r4, r5, r6, r7, sl, lr}
3001318c:	e24ddb02 	sub	sp, sp, #2048	; 0x800
30013190:	e1a02001 	mov	r2, r1
30013194:	e1a01000 	mov	r1, r0
30013198:	e1a0000d 	mov	r0, sp
3001319c:	ebffe95b 	bl	3000d710 <memcpy>
300131a0:	e59d0000 	ldr	r0, [sp]
300131a4:	ebfffd6c 	bl	3001275c <__fswab32>
300131a8:	e59f70c0 	ldr	r7, [pc, #192]	; 30013270 <nfs_readlink_reply+0xe8>
300131ac:	e5973000 	ldr	r3, [r7]
300131b0:	e1500003 	cmp	r0, r3
300131b4:	e1a0400d 	mov	r4, sp
300131b8:	1a000029 	bne	30013264 <nfs_readlink_reply+0xdc>
300131bc:	e59d3008 	ldr	r3, [sp, #8]
300131c0:	e3530000 	cmp	r3, #0	; 0x0
300131c4:	1a000026 	bne	30013264 <nfs_readlink_reply+0xdc>
300131c8:	e59d300c 	ldr	r3, [sp, #12]
300131cc:	e3530000 	cmp	r3, #0	; 0x0
300131d0:	1a000023 	bne	30013264 <nfs_readlink_reply+0xdc>
300131d4:	e59d3014 	ldr	r3, [sp, #20]
300131d8:	e3530000 	cmp	r3, #0	; 0x0
300131dc:	1a000020 	bne	30013264 <nfs_readlink_reply+0xdc>
300131e0:	e59d6018 	ldr	r6, [sp, #24]
300131e4:	e3560000 	cmp	r6, #0	; 0x0
300131e8:	1a00001d 	bne	30013264 <nfs_readlink_reply+0xdc>
300131ec:	e59d001c 	ldr	r0, [sp, #28]
300131f0:	ebfffd59 	bl	3001275c <__fswab32>
300131f4:	e5dd3020 	ldrb	r3, [sp, #32]
300131f8:	e353002f 	cmp	r3, #47	; 0x2f
300131fc:	e1a05000 	mov	r5, r0
30013200:	e28da020 	add	sl, sp, #32	; 0x20
30013204:	0a00000e 	beq	30013244 <nfs_readlink_reply+0xbc>
30013208:	e59f1064 	ldr	r1, [pc, #100]	; 30013274 <nfs_readlink_reply+0xec>
3001320c:	e597005c 	ldr	r0, [r7, #92]
30013210:	ebffe840 	bl	3000d318 <strcat>
30013214:	e597005c 	ldr	r0, [r7, #92]
30013218:	ebffe891 	bl	3000d464 <strlen>
3001321c:	e1a04000 	mov	r4, r0
30013220:	e597005c 	ldr	r0, [r7, #92]
30013224:	e1a0100a 	mov	r1, sl
30013228:	e0800004 	add	r0, r0, r4
3001322c:	e1a02005 	mov	r2, r5
30013230:	ebffe936 	bl	3000d710 <memcpy>
30013234:	e597305c 	ldr	r3, [r7, #92]
30013238:	e0833005 	add	r3, r3, r5
3001323c:	e7c36004 	strb	r6, [r3, r4]
30013240:	ea000005 	b	3001325c <nfs_readlink_reply+0xd4>
30013244:	e1a0100a 	mov	r1, sl
30013248:	e597005c 	ldr	r0, [r7, #92]
3001324c:	e1a02005 	mov	r2, r5
30013250:	ebffe92e 	bl	3000d710 <memcpy>
30013254:	e597305c 	ldr	r3, [r7, #92]
30013258:	e7c36005 	strb	r6, [r3, r5]
3001325c:	e1a00006 	mov	r0, r6
30013260:	ea000000 	b	30013268 <nfs_readlink_reply+0xe0>
30013264:	e3e00000 	mvn	r0, #0	; 0x0
30013268:	e28ddb02 	add	sp, sp, #2048	; 0x800
3001326c:	e8bd84f0 	pop	{r4, r5, r6, r7, sl, pc}
30013270:	30020714 	.word	0x30020714
30013274:	3001aee4 	.word	0x3001aee4

30013278 <nfs_read_reply>:
30013278:	e92d4030 	push	{r4, r5, lr}
3001327c:	e24ddb02 	sub	sp, sp, #2048	; 0x800
30013280:	e24dd004 	sub	sp, sp, #4	; 0x4
30013284:	e1a01000 	mov	r1, r0
30013288:	e3a02064 	mov	r2, #100	; 0x64
3001328c:	e1a05000 	mov	r5, r0
30013290:	e1a0000d 	mov	r0, sp
30013294:	ebffe91d 	bl	3000d710 <memcpy>
30013298:	e59d0000 	ldr	r0, [sp]
3001329c:	ebfffd2e 	bl	3001275c <__fswab32>
300132a0:	e59f30f0 	ldr	r3, [pc, #240]	; 30013398 <nfs_read_reply+0x120>
300132a4:	e5933000 	ldr	r3, [r3]
300132a8:	e1500003 	cmp	r0, r3
300132ac:	13e04000 	mvnne	r4, #0	; 0x0
300132b0:	1a000034 	bne	30013388 <nfs_read_reply+0x110>
300132b4:	e59d3008 	ldr	r3, [sp, #8]
300132b8:	e3530000 	cmp	r3, #0	; 0x0
300132bc:	1a000030 	bne	30013384 <nfs_read_reply+0x10c>
300132c0:	e59d300c 	ldr	r3, [sp, #12]
300132c4:	e3530000 	cmp	r3, #0	; 0x0
300132c8:	1a000005 	bne	300132e4 <nfs_read_reply+0x6c>
300132cc:	e59d3014 	ldr	r3, [sp, #20]
300132d0:	e3530000 	cmp	r3, #0	; 0x0
300132d4:	1a000002 	bne	300132e4 <nfs_read_reply+0x6c>
300132d8:	e59d3018 	ldr	r3, [sp, #24]
300132dc:	e3530000 	cmp	r3, #0	; 0x0
300132e0:	0a000006 	beq	30013300 <nfs_read_reply+0x88>
300132e4:	e59d3014 	ldr	r3, [sp, #20]
300132e8:	e3530000 	cmp	r3, #0	; 0x0
300132ec:	1a000024 	bne	30013384 <nfs_read_reply+0x10c>
300132f0:	e59d0018 	ldr	r0, [sp, #24]
300132f4:	ebfffd18 	bl	3001275c <__fswab32>
300132f8:	e2604000 	rsb	r4, r0, #0	; 0x0
300132fc:	ea000021 	b	30013388 <nfs_read_reply+0x110>
30013300:	e59f3094 	ldr	r3, [pc, #148]	; 3001339c <nfs_read_reply+0x124>
30013304:	e5930000 	ldr	r0, [r3]
30013308:	e3500000 	cmp	r0, #0	; 0x0
3001330c:	0a000004 	beq	30013324 <nfs_read_reply+0xac>
30013310:	e59f1088 	ldr	r1, [pc, #136]	; 300133a0 <nfs_read_reply+0x128>
30013314:	eb000af9 	bl	30015f00 <__aeabi_idivmod>
30013318:	e3510000 	cmp	r1, #0	; 0x0
3001331c:	059f0080 	ldreq	r0, [pc, #128]	; 300133a4 <nfs_read_reply+0x12c>
30013320:	0bffcbe5 	bleq	300062bc <puts>
30013324:	e59f3070 	ldr	r3, [pc, #112]	; 3001339c <nfs_read_reply+0x124>
30013328:	e3a01b05 	mov	r1, #5120	; 0x1400
3001332c:	e5930000 	ldr	r0, [r3]
30013330:	eb000af2 	bl	30015f00 <__aeabi_idivmod>
30013334:	e3510000 	cmp	r1, #0	; 0x0
30013338:	03a00023 	moveq	r0, #35	; 0x23
3001333c:	0bffcc77 	bleq	30006520 <putc>
30013340:	e59d0060 	ldr	r0, [sp, #96]
30013344:	ebfffd04 	bl	3001275c <__fswab32>
30013348:	e59f304c 	ldr	r3, [pc, #76]	; 3001339c <nfs_read_reply+0x124>
3001334c:	e593c000 	ldr	ip, [r3]
30013350:	e59f3050 	ldr	r3, [pc, #80]	; 300133a8 <nfs_read_reply+0x130>
30013354:	e1a04000 	mov	r4, r0
30013358:	e5930000 	ldr	r0, [r3]
3001335c:	e2851064 	add	r1, r5, #100	; 0x64
30013360:	e1a02004 	mov	r2, r4
30013364:	e08c0000 	add	r0, ip, r0
30013368:	e084500c 	add	r5, r4, ip
3001336c:	ebffe8e7 	bl	3000d710 <memcpy>
30013370:	e59f2034 	ldr	r2, [pc, #52]	; 300133ac <nfs_read_reply+0x134>
30013374:	e5923000 	ldr	r3, [r2]
30013378:	e1530005 	cmp	r3, r5
3001337c:	35825000 	strcc	r5, [r2]
30013380:	ea000000 	b	30013388 <nfs_read_reply+0x110>
30013384:	e59f4024 	ldr	r4, [pc, #36]	; 300133b0 <nfs_read_reply+0x138>
30013388:	e1a00004 	mov	r0, r4
3001338c:	e28dd004 	add	sp, sp, #4	; 0x4
30013390:	e28ddb02 	add	sp, sp, #2048	; 0x800
30013394:	e8bd8030 	pop	{r4, r5, pc}
30013398:	30020714 	.word	0x30020714
3001339c:	3001bd3c 	.word	0x3001bd3c
300133a0:	00051400 	.word	0x00051400
300133a4:	3001b05c 	.word	0x3001b05c
300133a8:	3001b2e8 	.word	0x3001b2e8
300133ac:	30020608 	.word	0x30020608
300133b0:	ffffd8f1 	.word	0xffffd8f1

300133b4 <NfsHandler>:
300133b4:	e59fc1a8 	ldr	ip, [pc, #424]	; 30013564 <NfsHandler+0x1b0>
300133b8:	e59c2054 	ldr	r2, [ip, #84]
300133bc:	e1510002 	cmp	r1, r2
300133c0:	e92d4010 	push	{r4, lr}
300133c4:	e1a02003 	mov	r2, r3
300133c8:	18bd8010 	popne	{r4, pc}
300133cc:	e59c3058 	ldr	r3, [ip, #88]
300133d0:	e2433001 	sub	r3, r3, #1	; 0x1
300133d4:	e3530006 	cmp	r3, #6	; 0x6
300133d8:	979ff103 	ldrls	pc, [pc, r3, lsl #2]
300133dc:	ea00005f 	b	30013560 <NfsHandler+0x1ac>
300133e0:	300133fc 	.word	0x300133fc
300133e4:	30013410 	.word	0x30013410
300133e8:	30013424 	.word	0x30013424
300133ec:	30013448 	.word	0x30013448
300133f0:	30013484 	.word	0x30013484
300133f4:	300134fc 	.word	0x300134fc
300133f8:	300134c0 	.word	0x300134c0
300133fc:	e1a01000 	mov	r1, r0
30013400:	e59f0160 	ldr	r0, [pc, #352]	; 30013568 <NfsHandler+0x1b4>
30013404:	ebfffd28 	bl	300128ac <rpc_lookup_reply>
30013408:	e3a02002 	mov	r2, #2	; 0x2
3001340c:	ea00004f 	b	30013550 <NfsHandler+0x19c>
30013410:	e1a01000 	mov	r1, r0
30013414:	e59f0150 	ldr	r0, [pc, #336]	; 3001356c <NfsHandler+0x1b8>
30013418:	ebfffd23 	bl	300128ac <rpc_lookup_reply>
3001341c:	e3a02003 	mov	r2, #3	; 0x3
30013420:	ea00004a 	b	30013550 <NfsHandler+0x19c>
30013424:	e1a01002 	mov	r1, r2
30013428:	ebfffd47 	bl	3001294c <nfs_mount_reply>
3001342c:	e3500000 	cmp	r0, #0	; 0x0
30013430:	e59f412c 	ldr	r4, [pc, #300]	; 30013564 <NfsHandler+0x1b0>
30013434:	159f0134 	ldrne	r0, [pc, #308]	; 30013570 <NfsHandler+0x1bc>
30013438:	1a000017 	bne	3001349c <NfsHandler+0xe8>
3001343c:	e3a03005 	mov	r3, #5	; 0x5
30013440:	e5843058 	str	r3, [r4, #88]
30013444:	ea000043 	b	30013558 <NfsHandler+0x1a4>
30013448:	e1a01002 	mov	r1, r2
3001344c:	ebfffd65 	bl	300129e8 <nfs_umountall_reply>
30013450:	e3500000 	cmp	r0, #0	; 0x0
30013454:	e59f4118 	ldr	r4, [pc, #280]	; 30013574 <NfsHandler+0x1c0>
30013458:	0a000003 	beq	3001346c <NfsHandler+0xb8>
3001345c:	e59f0114 	ldr	r0, [pc, #276]	; 30013578 <NfsHandler+0x1c4>
30013460:	ebffcb95 	bl	300062bc <puts>
30013464:	e3a03004 	mov	r3, #4	; 0x4
30013468:	ea000003 	b	3001347c <NfsHandler+0xc8>
3001346c:	e59f0108 	ldr	r0, [pc, #264]	; 3001357c <NfsHandler+0x1c8>
30013470:	ebffcb91 	bl	300062bc <puts>
30013474:	e59f30e8 	ldr	r3, [pc, #232]	; 30013564 <NfsHandler+0x1b0>
30013478:	e5933068 	ldr	r3, [r3, #104]
3001347c:	e5843000 	str	r3, [r4]
30013480:	e8bd8010 	pop	{r4, pc}
30013484:	e1a01002 	mov	r1, r2
30013488:	ebfffd76 	bl	30012a68 <nfs_lookup_reply>
3001348c:	e3500000 	cmp	r0, #0	; 0x0
30013490:	e59f40cc 	ldr	r4, [pc, #204]	; 30013564 <NfsHandler+0x1b0>
30013494:	0a000003 	beq	300134a8 <NfsHandler+0xf4>
30013498:	e59f00e0 	ldr	r0, [pc, #224]	; 30013580 <NfsHandler+0x1cc>
3001349c:	ebffcb86 	bl	300062bc <puts>
300134a0:	e3a03004 	mov	r3, #4	; 0x4
300134a4:	eaffffe5 	b	30013440 <NfsHandler+0x8c>
300134a8:	e59f30d4 	ldr	r3, [pc, #212]	; 30013584 <NfsHandler+0x1d0>
300134ac:	e5830000 	str	r0, [r3]
300134b0:	e3a03b01 	mov	r3, #1024	; 0x400
300134b4:	e5843064 	str	r3, [r4, #100]
300134b8:	e3a03006 	mov	r3, #6	; 0x6
300134bc:	eaffffdf 	b	30013440 <NfsHandler+0x8c>
300134c0:	e1a01002 	mov	r1, r2
300134c4:	ebffff2f 	bl	30013188 <nfs_readlink_reply>
300134c8:	e3500000 	cmp	r0, #0	; 0x0
300134cc:	e59f4090 	ldr	r4, [pc, #144]	; 30013564 <NfsHandler+0x1b0>
300134d0:	159f00b0 	ldrne	r0, [pc, #176]	; 30013588 <NfsHandler+0x1d4>
300134d4:	1afffff0 	bne	3001349c <NfsHandler+0xe8>
300134d8:	e594005c 	ldr	r0, [r4, #92]
300134dc:	ebfffca6 	bl	3001277c <basename>
300134e0:	e5840060 	str	r0, [r4, #96]
300134e4:	e594005c 	ldr	r0, [r4, #92]
300134e8:	ebfffcb2 	bl	300127b8 <dirname>
300134ec:	e3a03003 	mov	r3, #3	; 0x3
300134f0:	e5843058 	str	r3, [r4, #88]
300134f4:	e584005c 	str	r0, [r4, #92]
300134f8:	ea000016 	b	30013558 <NfsHandler+0x1a4>
300134fc:	e1a01002 	mov	r1, r2
30013500:	ebffff5c 	bl	30013278 <nfs_read_reply>
30013504:	e59f1080 	ldr	r1, [pc, #128]	; 3001358c <NfsHandler+0x1d8>
30013508:	e1a04000 	mov	r4, r0
3001350c:	e3a00e7d 	mov	r0, #2000	; 0x7d0
30013510:	ebfff858 	bl	30011678 <NetSetTimeout>
30013514:	e3540000 	cmp	r4, #0	; 0x0
30013518:	c59f2064 	ldrgt	r2, [pc, #100]	; 30013584 <NfsHandler+0x1d0>
3001351c:	c5923000 	ldrgt	r3, [r2]
30013520:	c0843003 	addgt	r3, r4, r3
30013524:	c5823000 	strgt	r3, [r2]
30013528:	ca00000a 	bgt	30013558 <NfsHandler+0x1a4>
3001352c:	e2843016 	add	r3, r4, #22	; 0x16
30013530:	e3530001 	cmp	r3, #1	; 0x1
30013534:	93a02007 	movls	r2, #7	; 0x7
30013538:	9a000004 	bls	30013550 <NfsHandler+0x19c>
3001353c:	e3540000 	cmp	r4, #0	; 0x0
30013540:	059f301c 	ldreq	r3, [pc, #28]	; 30013564 <NfsHandler+0x1b0>
30013544:	03a02003 	moveq	r2, #3	; 0x3
30013548:	05832068 	streq	r2, [r3, #104]
3001354c:	e3a02004 	mov	r2, #4	; 0x4
30013550:	e59f300c 	ldr	r3, [pc, #12]	; 30013564 <NfsHandler+0x1b0>
30013554:	e5832058 	str	r2, [r3, #88]
30013558:	e8bd4010 	pop	{r4, lr}
3001355c:	eafffe5a 	b	30012ecc <NfsSend>
30013560:	e8bd8010 	pop	{r4, pc}
30013564:	30020714 	.word	0x30020714
30013568:	000186a5 	.word	0x000186a5
3001356c:	000186a3 	.word	0x000186a3
30013570:	3001aee6 	.word	0x3001aee6
30013574:	3001e130 	.word	0x3001e130
30013578:	3001aeff 	.word	0x3001aeff
3001357c:	3001af19 	.word	0x3001af19
30013580:	3001af20 	.word	0x3001af20
30013584:	3001bd3c 	.word	0x3001bd3c
30013588:	3001af3d 	.word	0x3001af3d
3001358c:	30013590 	.word	0x30013590

30013590 <NfsTimeout>:
30013590:	e59f2040 	ldr	r2, [pc, #64]	; 300135d8 <NfsTimeout+0x48>
30013594:	e59238ac 	ldr	r3, [r2, #2220]
30013598:	e2833001 	add	r3, r3, #1	; 0x1
3001359c:	e353001e 	cmp	r3, #30	; 0x1e
300135a0:	e92d4010 	push	{r4, lr}
300135a4:	e58238ac 	str	r3, [r2, #2220]
300135a8:	da000003 	ble	300135bc <NfsTimeout+0x2c>
300135ac:	e59f0028 	ldr	r0, [pc, #40]	; 300135dc <NfsTimeout+0x4c>
300135b0:	ebffcb41 	bl	300062bc <puts>
300135b4:	e8bd4010 	pop	{r4, lr}
300135b8:	eafffafb 	b	300121ac <NetStartAgain>
300135bc:	e59f001c 	ldr	r0, [pc, #28]	; 300135e0 <NfsTimeout+0x50>
300135c0:	ebffcb3d 	bl	300062bc <puts>
300135c4:	e3a00e7d 	mov	r0, #2000	; 0x7d0
300135c8:	e59f1014 	ldr	r1, [pc, #20]	; 300135e4 <NfsTimeout+0x54>
300135cc:	ebfff829 	bl	30011678 <NetSetTimeout>
300135d0:	e8bd4010 	pop	{r4, lr}
300135d4:	eafffe3c 	b	30012ecc <NfsSend>
300135d8:	30020714 	.word	0x30020714
300135dc:	3001af56 	.word	0x3001af56
300135e0:	3001af7d 	.word	0x3001af7d
300135e4:	30013590 	.word	0x30013590

300135e8 <RarpRequest>:
300135e8:	e59f20d8 	ldr	r2, [pc, #216]	; 300136c8 <RarpRequest+0xe0>
300135ec:	e5923000 	ldr	r3, [r2]
300135f0:	e2833001 	add	r3, r3, #1	; 0x1
300135f4:	e92d41f0 	push	{r4, r5, r6, r7, r8, lr}
300135f8:	e1a01003 	mov	r1, r3
300135fc:	e5823000 	str	r3, [r2]
30013600:	e59f00c4 	ldr	r0, [pc, #196]	; 300136cc <RarpRequest+0xe4>
30013604:	ebffcb3e 	bl	30006304 <printf>
30013608:	e59f30c0 	ldr	r3, [pc, #192]	; 300136d0 <RarpRequest+0xe8>
3001360c:	e5934000 	ldr	r4, [r3]
30013610:	e59f10bc 	ldr	r1, [pc, #188]	; 300136d4 <RarpRequest+0xec>
30013614:	e59f20bc 	ldr	r2, [pc, #188]	; 300136d8 <RarpRequest+0xf0>
30013618:	e1a00004 	mov	r0, r4
3001361c:	ebfff861 	bl	300117a8 <NetSetEther>
30013620:	e3a03c01 	mov	r3, #256	; 0x100
30013624:	e0847000 	add	r7, r4, r0
30013628:	e18430b0 	strh	r3, [r4, r0]
3001362c:	e3a03008 	mov	r3, #8	; 0x8
30013630:	e3a05006 	mov	r5, #6	; 0x6
30013634:	e3a06004 	mov	r6, #4	; 0x4
30013638:	e1c730b2 	strh	r3, [r7, #2]
3001363c:	e3a03c03 	mov	r3, #768	; 0x300
30013640:	e1c730b6 	strh	r3, [r7, #6]
30013644:	e59f1090 	ldr	r1, [pc, #144]	; 300136dc <RarpRequest+0xf4>
30013648:	e1a02005 	mov	r2, r5
3001364c:	e5c75004 	strb	r5, [r7, #4]
30013650:	e5c76005 	strb	r6, [r7, #5]
30013654:	e2870008 	add	r0, r7, #8	; 0x8
30013658:	ebffe82c 	bl	3000d710 <memcpy>
3001365c:	e1a02006 	mov	r2, r6
30013660:	e59f1078 	ldr	r1, [pc, #120]	; 300136e0 <RarpRequest+0xf8>
30013664:	e287000e 	add	r0, r7, #14	; 0xe
30013668:	ebffe828 	bl	3000d710 <memcpy>
3001366c:	e1a02005 	mov	r2, r5
30013670:	e59f1064 	ldr	r1, [pc, #100]	; 300136dc <RarpRequest+0xf4>
30013674:	e2870012 	add	r0, r7, #18	; 0x12
30013678:	ebffe824 	bl	3000d710 <memcpy>
3001367c:	e1a01007 	mov	r1, r7
30013680:	e3a02000 	mov	r2, #0	; 0x0
30013684:	e2822001 	add	r2, r2, #1	; 0x1
30013688:	e3e03000 	mvn	r3, #0	; 0x0
3001368c:	e3520004 	cmp	r2, #4	; 0x4
30013690:	e5c13018 	strb	r3, [r1, #24]
30013694:	e2811001 	add	r1, r1, #1	; 0x1
30013698:	1afffff9 	bne	30013684 <RarpRequest+0x9c>
3001369c:	e59f302c 	ldr	r3, [pc, #44]	; 300136d0 <RarpRequest+0xe8>
300136a0:	e5930000 	ldr	r0, [r3]
300136a4:	e260101c 	rsb	r1, r0, #28	; 0x1c
300136a8:	e0871001 	add	r1, r7, r1
300136ac:	ebfff882 	bl	300118bc <NetSendPacket>
300136b0:	e59f002c 	ldr	r0, [pc, #44]	; 300136e4 <RarpRequest+0xfc>
300136b4:	e59f102c 	ldr	r1, [pc, #44]	; 300136e8 <RarpRequest+0x100>
300136b8:	ebfff7ee 	bl	30011678 <NetSetTimeout>
300136bc:	e59f0028 	ldr	r0, [pc, #40]	; 300136ec <RarpRequest+0x104>
300136c0:	e8bd41f0 	pop	{r4, r5, r6, r7, r8, lr}
300136c4:	eafff744 	b	300113dc <NetSetHandler>
300136c8:	30020fc4 	.word	0x30020fc4
300136cc:	3001af80 	.word	0x3001af80
300136d0:	3001e180 	.word	0x3001e180
300136d4:	3001bd34 	.word	0x3001bd34
300136d8:	00008035 	.word	0x00008035
300136dc:	3001e14c 	.word	0x3001e14c
300136e0:	3001e148 	.word	0x3001e148
300136e4:	00001388 	.word	0x00001388
300136e8:	3001374c 	.word	0x3001374c
300136ec:	300136f0 	.word	0x300136f0

300136f0 <RarpHandler>:
300136f0:	e92d4010 	push	{r4, lr}
300136f4:	e59f0044 	ldr	r0, [pc, #68]	; 30013740 <RarpHandler+0x50>
300136f8:	ebffc51c 	bl	30004b70 <getenv>
300136fc:	e2503000 	subs	r3, r0, #0	; 0x0
30013700:	0a00000c 	beq	30013738 <RarpHandler+0x48>
30013704:	e5d33000 	ldrb	r3, [r3]
30013708:	e353006e 	cmp	r3, #110	; 0x6e
3001370c:	1a000003 	bne	30013720 <RarpHandler+0x30>
30013710:	e59f302c 	ldr	r3, [pc, #44]	; 30013744 <RarpHandler+0x54>
30013714:	e3a02003 	mov	r2, #3	; 0x3
30013718:	e5832000 	str	r2, [r3]
3001371c:	e8bd8010 	pop	{r4, pc}
30013720:	e59f1020 	ldr	r1, [pc, #32]	; 30013748 <RarpHandler+0x58>
30013724:	ebffe721 	bl	3000d3b0 <strcmp>
30013728:	e3500000 	cmp	r0, #0	; 0x0
3001372c:	1a000001 	bne	30013738 <RarpHandler+0x48>
30013730:	e8bd4010 	pop	{r4, lr}
30013734:	eafffe09 	b	30012f60 <NfsStart>
30013738:	e8bd4010 	pop	{r4, lr}
3001373c:	ea00007a 	b	3001392c <TftpStart>
30013740:	3001af93 	.word	0x3001af93
30013744:	3001e130 	.word	0x3001e130
30013748:	3001af9c 	.word	0x3001af9c

3001374c <RarpTimeout>:
3001374c:	e59f3030 	ldr	r3, [pc, #48]	; 30013784 <RarpTimeout+0x38>
30013750:	e5933000 	ldr	r3, [r3]
30013754:	e3530004 	cmp	r3, #4	; 0x4
30013758:	e92d4010 	push	{r4, lr}
3001375c:	da000003 	ble	30013770 <RarpTimeout+0x24>
30013760:	e59f0020 	ldr	r0, [pc, #32]	; 30013788 <RarpTimeout+0x3c>
30013764:	ebffcad4 	bl	300062bc <puts>
30013768:	e8bd4010 	pop	{r4, lr}
3001376c:	eafffa8e 	b	300121ac <NetStartAgain>
30013770:	e59f0014 	ldr	r0, [pc, #20]	; 3001378c <RarpTimeout+0x40>
30013774:	e59f1014 	ldr	r1, [pc, #20]	; 30013790 <RarpTimeout+0x44>
30013778:	ebfff7be 	bl	30011678 <NetSetTimeout>
3001377c:	e8bd4010 	pop	{r4, lr}
30013780:	eaffff98 	b	300135e8 <RarpRequest>
30013784:	30020fc4 	.word	0x30020fc4
30013788:	3001af56 	.word	0x3001af56
3001378c:	00001388 	.word	0x00001388
30013790:	3001374c 	.word	0x3001374c

30013794 <__fswab16>:
30013794:	e1a03420 	lsr	r3, r0, #8
30013798:	e1833400 	orr	r3, r3, r0, lsl #8
3001379c:	e1a03803 	lsl	r3, r3, #16
300137a0:	e1a00823 	lsr	r0, r3, #16
300137a4:	e1a0f00e 	mov	pc, lr

300137a8 <TftpSend>:
300137a8:	e59f3150 	ldr	r3, [pc, #336]	; 30013900 <TftpSend+0x158>
300137ac:	e92d4073 	push	{r0, r1, r4, r5, r6, lr}
300137b0:	e5934000 	ldr	r4, [r3]
300137b4:	ebfff771 	bl	30011580 <NetEthHdrSize>
300137b8:	e59f2144 	ldr	r2, [pc, #324]	; 30013904 <TftpSend+0x15c>
300137bc:	e5923000 	ldr	r3, [r2]
300137c0:	e280001c 	add	r0, r0, #28	; 0x1c
300137c4:	e2433001 	sub	r3, r3, #1	; 0x1
300137c8:	e0846000 	add	r6, r4, r0
300137cc:	e3530004 	cmp	r3, #4	; 0x4
300137d0:	979ff103 	ldrls	pc, [pc, r3, lsl #2]
300137d4:	ea000004 	b	300137ec <TftpSend+0x44>
300137d8:	300137f4 	.word	0x300137f4
300137dc:	30013884 	.word	0x30013884
300137e0:	300138a0 	.word	0x300138a0
300137e4:	300138c4 	.word	0x300138c4
300137e8:	30013884 	.word	0x30013884
300137ec:	e3a04000 	mov	r4, #0	; 0x0
300137f0:	ea00003b 	b	300138e4 <TftpSend+0x13c>
300137f4:	e3a03c01 	mov	r3, #256	; 0x100
300137f8:	e2865002 	add	r5, r6, #2	; 0x2
300137fc:	e18430b0 	strh	r3, [r4, r0]
30013800:	e59f1100 	ldr	r1, [pc, #256]	; 30013908 <TftpSend+0x160>
30013804:	e1a00005 	mov	r0, r5
30013808:	ebffe6b1 	bl	3000d2d4 <strcpy>
3001380c:	e59f00f4 	ldr	r0, [pc, #244]	; 30013908 <TftpSend+0x160>
30013810:	ebffe713 	bl	3000d464 <strlen>
30013814:	e2800001 	add	r0, r0, #1	; 0x1
30013818:	e0855000 	add	r5, r5, r0
3001381c:	e59f10e8 	ldr	r1, [pc, #232]	; 3001390c <TftpSend+0x164>
30013820:	e1a00005 	mov	r0, r5
30013824:	ebffe6aa 	bl	3000d2d4 <strcpy>
30013828:	e285400e 	add	r4, r5, #14	; 0xe
3001382c:	e59f10dc 	ldr	r1, [pc, #220]	; 30013910 <TftpSend+0x168>
30013830:	e2850006 	add	r0, r5, #6	; 0x6
30013834:	ebffe6a6 	bl	3000d2d4 <strcpy>
30013838:	e59f10d4 	ldr	r1, [pc, #212]	; 30013914 <TftpSend+0x16c>
3001383c:	e3a02005 	mov	r2, #5	; 0x5
30013840:	e1a00004 	mov	r0, r4
30013844:	ebffeb5d 	bl	3000e5c0 <sprintf>
30013848:	e1a00004 	mov	r0, r4
3001384c:	ebffe704 	bl	3000d464 <strlen>
30013850:	e59f30c0 	ldr	r3, [pc, #192]	; 30013918 <TftpSend+0x170>
30013854:	e2800001 	add	r0, r0, #1	; 0x1
30013858:	e3a0c000 	mov	ip, #0	; 0x0
3001385c:	e0844000 	add	r4, r4, r0
30013860:	e1d330b0 	ldrh	r3, [r3]
30013864:	e1a00004 	mov	r0, r4
30013868:	e1a0200c 	mov	r2, ip
3001386c:	e59f10a8 	ldr	r1, [pc, #168]	; 3001391c <TftpSend+0x174>
30013870:	e58dc000 	str	ip, [sp]
30013874:	ebffeb51 	bl	3000e5c0 <sprintf>
30013878:	e0844000 	add	r4, r4, r0
3001387c:	e0664004 	rsb	r4, r6, r4
30013880:	ea000017 	b	300138e4 <TftpSend+0x13c>
30013884:	e3a03b01 	mov	r3, #1024	; 0x400
30013888:	e18430b0 	strh	r3, [r4, r0]
3001388c:	e1d208b4 	ldrh	r0, [r2, #132]
30013890:	ebffffbf 	bl	30013794 <__fswab16>
30013894:	e3a04004 	mov	r4, #4	; 0x4
30013898:	e1c600b2 	strh	r0, [r6, #2]
3001389c:	ea000010 	b	300138e4 <TftpSend+0x13c>
300138a0:	e3a03c05 	mov	r3, #1280	; 0x500
300138a4:	e18430b0 	strh	r3, [r4, r0]
300138a8:	e3a03c03 	mov	r3, #768	; 0x300
300138ac:	e2860004 	add	r0, r6, #4	; 0x4
300138b0:	e1c630b2 	strh	r3, [r6, #2]
300138b4:	e59f1064 	ldr	r1, [pc, #100]	; 30013920 <TftpSend+0x178>
300138b8:	ebffe685 	bl	3000d2d4 <strcpy>
300138bc:	e3a04013 	mov	r4, #19	; 0x13
300138c0:	ea000007 	b	300138e4 <TftpSend+0x13c>
300138c4:	e3a03c05 	mov	r3, #1280	; 0x500
300138c8:	e18430b0 	strh	r3, [r4, r0]
300138cc:	e3a03c02 	mov	r3, #512	; 0x200
300138d0:	e2860004 	add	r0, r6, #4	; 0x4
300138d4:	e1c630b2 	strh	r3, [r6, #2]
300138d8:	e59f1044 	ldr	r1, [pc, #68]	; 30013924 <TftpSend+0x17c>
300138dc:	ebffe67c 	bl	3000d2d4 <strcpy>
300138e0:	e3a04017 	mov	r4, #23	; 0x17
300138e4:	e59f2018 	ldr	r2, [pc, #24]	; 30013904 <TftpSend+0x15c>
300138e8:	e59f0038 	ldr	r0, [pc, #56]	; 30013928 <TftpSend+0x180>
300138ec:	e2821088 	add	r1, r2, #136	; 0x88
300138f0:	e891000e 	ldm	r1, {r1, r2, r3}
300138f4:	e58d4000 	str	r4, [sp]
300138f8:	ebfff9d5 	bl	30012054 <NetSendUDPPacket>
300138fc:	e8bd807c 	pop	{r2, r3, r4, r5, r6, pc}
30013900:	3001e180 	.word	0x3001e180
30013904:	30020fc8 	.word	0x30020fc8
30013908:	30020fcc 	.word	0x30020fcc
3001390c:	3001afa0 	.word	0x3001afa0
30013910:	3001afa6 	.word	0x3001afa6
30013914:	3001afae 	.word	0x3001afae
30013918:	3001bd40 	.word	0x3001bd40
3001391c:	3001afb2 	.word	0x3001afb2
30013920:	3001afc0 	.word	0x3001afc0
30013924:	3001afcf 	.word	0x3001afcf
30013928:	3001e178 	.word	0x3001e178

3001392c <TftpStart>:
3001392c:	e92d4073 	push	{r0, r1, r4, r5, r6, lr}
30013930:	e59f022c 	ldr	r0, [pc, #556]	; 30013b64 <TftpStart+0x238>
30013934:	ebffc48d 	bl	30004b70 <getenv>
30013938:	e3500000 	cmp	r0, #0	; 0x0
3001393c:	0a000004 	beq	30013954 <TftpStart+0x28>
30013940:	e3a01000 	mov	r1, #0	; 0x0
30013944:	e3a0200a 	mov	r2, #10	; 0xa
30013948:	ebffe82b 	bl	3000d9fc <simple_strtol>
3001394c:	e59f3214 	ldr	r3, [pc, #532]	; 30013b68 <TftpStart+0x23c>
30013950:	e1c300b0 	strh	r0, [r3]
30013954:	e59f5210 	ldr	r5, [pc, #528]	; 30013b6c <TftpStart+0x240>
30013958:	e59f3210 	ldr	r3, [pc, #528]	; 30013b70 <TftpStart+0x244>
3001395c:	e5d56000 	ldrb	r6, [r5]
30013960:	e5933000 	ldr	r3, [r3]
30013964:	e59f4208 	ldr	r4, [pc, #520]	; 30013b74 <TftpStart+0x248>
30013968:	e3560000 	cmp	r6, #0	; 0x0
3001396c:	e5843088 	str	r3, [r4, #136]
30013970:	1a000015 	bne	300139cc <TftpStart+0xa0>
30013974:	e59f31fc 	ldr	r3, [pc, #508]	; 30013b78 <TftpStart+0x24c>
30013978:	e593c000 	ldr	ip, [r3]
3001397c:	e1a0342c 	lsr	r3, ip, #8
30013980:	e1a0e82c 	lsr	lr, ip, #16
30013984:	e20ee0ff 	and	lr, lr, #255	; 0xff
30013988:	e20c20ff 	and	r2, ip, #255	; 0xff
3001398c:	e20330ff 	and	r3, r3, #255	; 0xff
30013990:	e1a0cc2c 	lsr	ip, ip, #24
30013994:	e2840094 	add	r0, r4, #148	; 0x94
30013998:	e59f11dc 	ldr	r1, [pc, #476]	; 30013b7c <TftpStart+0x250>
3001399c:	e58de000 	str	lr, [sp]
300139a0:	e58dc004 	str	ip, [sp, #4]
300139a4:	ebffeb05 	bl	3000e5c0 <sprintf>
300139a8:	e2841094 	add	r1, r4, #148	; 0x94
300139ac:	e2840004 	add	r0, r4, #4	; 0x4
300139b0:	e3a02080 	mov	r2, #128	; 0x80
300139b4:	ebffe64d 	bl	3000d2f0 <strncpy>
300139b8:	e2841004 	add	r1, r4, #4	; 0x4
300139bc:	e59f01bc 	ldr	r0, [pc, #444]	; 30013b80 <TftpStart+0x254>
300139c0:	e5c46083 	strb	r6, [r4, #131]
300139c4:	ebffca4e 	bl	30006304 <printf>
300139c8:	ea000013 	b	30013a1c <TftpStart+0xf0>
300139cc:	e1a00005 	mov	r0, r5
300139d0:	e3a0103a 	mov	r1, #58	; 0x3a
300139d4:	ebffe697 	bl	3000d438 <strchr>
300139d8:	e2506000 	subs	r6, r0, #0	; 0x0
300139dc:	1a000005 	bne	300139f8 <TftpStart+0xcc>
300139e0:	e1a01005 	mov	r1, r5
300139e4:	e2840004 	add	r0, r4, #4	; 0x4
300139e8:	e3a02080 	mov	r2, #128	; 0x80
300139ec:	ebffe63f 	bl	3000d2f0 <strncpy>
300139f0:	e5c46083 	strb	r6, [r4, #131]
300139f4:	ea000008 	b	30013a1c <TftpStart+0xf0>
300139f8:	e1a00005 	mov	r0, r5
300139fc:	ebfff6c2 	bl	3001150c <string_to_ip>
30013a00:	e2861001 	add	r1, r6, #1	; 0x1
30013a04:	e5840088 	str	r0, [r4, #136]
30013a08:	e3a02080 	mov	r2, #128	; 0x80
30013a0c:	e2840004 	add	r0, r4, #4	; 0x4
30013a10:	ebffe636 	bl	3000d2f0 <strncpy>
30013a14:	e3a03000 	mov	r3, #0	; 0x0
30013a18:	e5c43083 	strb	r3, [r4, #131]
30013a1c:	eb0003f4 	bl	300149f4 <eth_get_name>
30013a20:	e59f514c 	ldr	r5, [pc, #332]	; 30013b74 <TftpStart+0x248>
30013a24:	e59f414c 	ldr	r4, [pc, #332]	; 30013b78 <TftpStart+0x24c>
30013a28:	e1a01000 	mov	r1, r0
30013a2c:	e59f0150 	ldr	r0, [pc, #336]	; 30013b84 <TftpStart+0x258>
30013a30:	ebffca33 	bl	30006304 <printf>
30013a34:	e2851088 	add	r1, r5, #136	; 0x88
30013a38:	e59f0148 	ldr	r0, [pc, #328]	; 30013b88 <TftpStart+0x25c>
30013a3c:	e1a02004 	mov	r2, r4
30013a40:	ebffca2f 	bl	30006304 <printf>
30013a44:	e59f1140 	ldr	r1, [pc, #320]	; 30013b8c <TftpStart+0x260>
30013a48:	e5913000 	ldr	r3, [r1]
30013a4c:	e3530000 	cmp	r3, #0	; 0x0
30013a50:	0a00000a 	beq	30013a80 <TftpStart+0x154>
30013a54:	e59f3134 	ldr	r3, [pc, #308]	; 30013b90 <TftpStart+0x264>
30013a58:	e5930000 	ldr	r0, [r3]
30013a5c:	e3500000 	cmp	r0, #0	; 0x0
30013a60:	0a000006 	beq	30013a80 <TftpStart+0x154>
30013a64:	e5942000 	ldr	r2, [r4]
30013a68:	e5953088 	ldr	r3, [r5, #136]
30013a6c:	e0002002 	and	r2, r0, r2
30013a70:	e0003003 	and	r3, r0, r3
30013a74:	e1520003 	cmp	r2, r3
30013a78:	159f0114 	ldrne	r0, [pc, #276]	; 30013b94 <TftpStart+0x268>
30013a7c:	1bffca20 	blne	30006304 <printf>
30013a80:	e3a0000a 	mov	r0, #10	; 0xa
30013a84:	e59f410c 	ldr	r4, [pc, #268]	; 30013b98 <TftpStart+0x26c>
30013a88:	ebffcaa4 	bl	30006520 <putc>
30013a8c:	e59f1108 	ldr	r1, [pc, #264]	; 30013b9c <TftpStart+0x270>
30013a90:	e59f0108 	ldr	r0, [pc, #264]	; 30013ba0 <TftpStart+0x274>
30013a94:	ebffca1a 	bl	30006304 <printf>
30013a98:	e1d410b0 	ldrh	r1, [r4]
30013a9c:	e3510000 	cmp	r1, #0	; 0x0
30013aa0:	0a000006 	beq	30013ac0 <TftpStart+0x194>
30013aa4:	e1a01481 	lsl	r1, r1, #9
30013aa8:	e59f00f4 	ldr	r0, [pc, #244]	; 30013ba4 <TftpStart+0x278>
30013aac:	ebffca14 	bl	30006304 <printf>
30013ab0:	e1d400b0 	ldrh	r0, [r4]
30013ab4:	e59f10ec 	ldr	r1, [pc, #236]	; 30013ba8 <TftpStart+0x27c>
30013ab8:	e1a00480 	lsl	r0, r0, #9
30013abc:	ebffe3a1 	bl	3000c948 <print_size>
30013ac0:	e3a0000a 	mov	r0, #10	; 0xa
30013ac4:	ebffca95 	bl	30006520 <putc>
30013ac8:	e59f30dc 	ldr	r3, [pc, #220]	; 30013bac <TftpStart+0x280>
30013acc:	e59f6094 	ldr	r6, [pc, #148]	; 30013b68 <TftpStart+0x23c>
30013ad0:	e5931000 	ldr	r1, [r3]
30013ad4:	e59f00d4 	ldr	r0, [pc, #212]	; 30013bb0 <TftpStart+0x284>
30013ad8:	ebffca09 	bl	30006304 <printf>
30013adc:	e59f00d0 	ldr	r0, [pc, #208]	; 30013bb4 <TftpStart+0x288>
30013ae0:	ebffc9f5 	bl	300062bc <puts>
30013ae4:	e5962004 	ldr	r2, [r6, #4]
30013ae8:	e5963010 	ldr	r3, [r6, #16]
30013aec:	e1a00002 	mov	r0, r2
30013af0:	e5862008 	str	r2, [r6, #8]
30013af4:	e59f10bc 	ldr	r1, [pc, #188]	; 30013bb8 <TftpStart+0x28c>
30013af8:	e586300c 	str	r3, [r6, #12]
30013afc:	ebfff6dd 	bl	30011678 <NetSetTimeout>
30013b00:	e59f406c 	ldr	r4, [pc, #108]	; 30013b74 <TftpStart+0x248>
30013b04:	e59f00b0 	ldr	r0, [pc, #176]	; 30013bbc <TftpStart+0x290>
30013b08:	ebfff633 	bl	300113dc <NetSetHandler>
30013b0c:	e3a03045 	mov	r3, #69	; 0x45
30013b10:	e3a05000 	mov	r5, #0	; 0x0
30013b14:	e584308c 	str	r3, [r4, #140]
30013b18:	e3a03001 	mov	r3, #1	; 0x1
30013b1c:	e5843000 	str	r3, [r4]
30013b20:	e1a00005 	mov	r0, r5
30013b24:	e58450a4 	str	r5, [r4, #164]
30013b28:	ebfff523 	bl	30010fbc <get_timer>
30013b2c:	e3a01b03 	mov	r1, #3072	; 0xc00
30013b30:	eb000862 	bl	30015cc0 <__aeabi_uidivmod>
30013b34:	e2813b01 	add	r3, r1, #1024	; 0x400
30013b38:	e5843090 	str	r3, [r4, #144]
30013b3c:	e1a01005 	mov	r1, r5
30013b40:	e3a02006 	mov	r2, #6	; 0x6
30013b44:	e5845084 	str	r5, [r4, #132]
30013b48:	e59f0070 	ldr	r0, [pc, #112]	; 30013bc0 <TftpStart+0x294>
30013b4c:	ebffe6c5 	bl	3000d668 <memset>
30013b50:	e3a03c02 	mov	r3, #512	; 0x200
30013b54:	e1c631b4 	strh	r3, [r6, #20]
30013b58:	e28dd008 	add	sp, sp, #8	; 0x8
30013b5c:	e8bd4070 	pop	{r4, r5, r6, lr}
30013b60:	eaffff10 	b	300137a8 <TftpSend>
30013b64:	3001afe2 	.word	0x3001afe2
30013b68:	3001bd40 	.word	0x3001bd40
30013b6c:	30020692 	.word	0x30020692
30013b70:	3001e174 	.word	0x3001e174
30013b74:	30020fc8 	.word	0x30020fc8
30013b78:	3001e148 	.word	0x3001e148
30013b7c:	3001adf6 	.word	0x3001adf6
30013b80:	3001ae0f 	.word	0x3001ae0f
30013b84:	3001adb1 	.word	0x3001adb1
30013b88:	3001aff0 	.word	0x3001aff0
30013b8c:	3001e188 	.word	0x3001e188
30013b90:	3001e184 	.word	0x3001e184
30013b94:	3001ae7a 	.word	0x3001ae7a
30013b98:	30020690 	.word	0x30020690
30013b9c:	30020fcc 	.word	0x30020fcc
30013ba0:	3001b01e 	.word	0x3001b01e
30013ba4:	3001aeac 	.word	0x3001aeac
30013ba8:	30018e0b 	.word	0x30018e0b
30013bac:	3001b2e8 	.word	0x3001b2e8
30013bb0:	3001b02d 	.word	0x3001b02d
30013bb4:	3001aed8 	.word	0x3001aed8
30013bb8:	30013bc4 	.word	0x30013bc4
30013bbc:	30013c28 	.word	0x30013c28
30013bc0:	3001e178 	.word	0x3001e178

30013bc4 <TftpTimeout>:
30013bc4:	e59f3048 	ldr	r3, [pc, #72]	; 30013c14 <TftpTimeout+0x50>
30013bc8:	e92d4010 	push	{r4, lr}
30013bcc:	e59f4044 	ldr	r4, [pc, #68]	; 30013c18 <TftpTimeout+0x54>
30013bd0:	e59320a4 	ldr	r2, [r3, #164]
30013bd4:	e594100c 	ldr	r1, [r4, #12]
30013bd8:	e2822001 	add	r2, r2, #1	; 0x1
30013bdc:	e1520001 	cmp	r2, r1
30013be0:	e58320a4 	str	r2, [r3, #164]
30013be4:	da000003 	ble	30013bf8 <TftpTimeout+0x34>
30013be8:	e59f002c 	ldr	r0, [pc, #44]	; 30013c1c <TftpTimeout+0x58>
30013bec:	ebffc9b2 	bl	300062bc <puts>
30013bf0:	e8bd4010 	pop	{r4, lr}
30013bf4:	eafff96c 	b	300121ac <NetStartAgain>
30013bf8:	e59f0020 	ldr	r0, [pc, #32]	; 30013c20 <TftpTimeout+0x5c>
30013bfc:	ebffc9ae 	bl	300062bc <puts>
30013c00:	e5940008 	ldr	r0, [r4, #8]
30013c04:	e59f1018 	ldr	r1, [pc, #24]	; 30013c24 <TftpTimeout+0x60>
30013c08:	ebfff69a 	bl	30011678 <NetSetTimeout>
30013c0c:	e8bd4010 	pop	{r4, lr}
30013c10:	eafffee4 	b	300137a8 <TftpSend>
30013c14:	30020fc8 	.word	0x30020fc8
30013c18:	3001bd40 	.word	0x3001bd40
30013c1c:	3001af56 	.word	0x3001af56
30013c20:	3001af7d 	.word	0x3001af7d
30013c24:	30013bc4 	.word	0x30013bc4

30013c28 <TftpHandler>:
30013c28:	e92d44f0 	push	{r4, r5, r6, r7, sl, lr}
30013c2c:	e59f4264 	ldr	r4, [pc, #612]	; 30013e98 <TftpHandler+0x270>
30013c30:	e594c090 	ldr	ip, [r4, #144]
30013c34:	e151000c 	cmp	r1, ip
30013c38:	e1a06002 	mov	r6, r2
30013c3c:	e1a05000 	mov	r5, r0
30013c40:	e1a02003 	mov	r2, r3
30013c44:	18bd84f0 	popne	{r4, r5, r6, r7, sl, pc}
30013c48:	e5943000 	ldr	r3, [r4]
30013c4c:	e3530001 	cmp	r3, #1	; 0x1
30013c50:	0a000002 	beq	30013c60 <TftpHandler+0x38>
30013c54:	e594308c 	ldr	r3, [r4, #140]
30013c58:	e1560003 	cmp	r6, r3
30013c5c:	18bd84f0 	popne	{r4, r5, r6, r7, sl, pc}
30013c60:	e3520001 	cmp	r2, #1	; 0x1
30013c64:	98bd84f0 	popls	{r4, r5, r6, r7, sl, pc}
30013c68:	e1d500b0 	ldrh	r0, [r5]
30013c6c:	e242a002 	sub	sl, r2, #2	; 0x2
30013c70:	ebfffec7 	bl	30013794 <__fswab16>
30013c74:	e3500005 	cmp	r0, #5	; 0x5
30013c78:	e2857002 	add	r7, r5, #2	; 0x2
30013c7c:	0a00007b 	beq	30013e70 <TftpHandler+0x248>
30013c80:	e3500006 	cmp	r0, #6	; 0x6
30013c84:	0a000002 	beq	30013c94 <TftpHandler+0x6c>
30013c88:	e3500003 	cmp	r0, #3	; 0x3
30013c8c:	18bd84f0 	popne	{r4, r5, r6, r7, sl, pc}
30013c90:	ea000017 	b	30013cf4 <TftpHandler+0xcc>
30013c94:	e59f21fc 	ldr	r2, [pc, #508]	; 30013e98 <TftpHandler+0x270>
30013c98:	e3a03005 	mov	r3, #5	; 0x5
30013c9c:	e582608c 	str	r6, [r2, #140]
30013ca0:	e5823000 	str	r3, [r2]
30013ca4:	e1a04007 	mov	r4, r7
30013ca8:	e3a05008 	mov	r5, #8	; 0x8
30013cac:	ea000009 	b	30013cd8 <TftpHandler+0xb0>
30013cb0:	ebffe5be 	bl	3000d3b0 <strcmp>
30013cb4:	e3500000 	cmp	r0, #0	; 0x0
30013cb8:	1a000005 	bne	30013cd4 <TftpHandler+0xac>
30013cbc:	e1a01000 	mov	r1, r0
30013cc0:	e3a0200a 	mov	r2, #10	; 0xa
30013cc4:	e2840008 	add	r0, r4, #8	; 0x8
30013cc8:	ebffe71d 	bl	3000d944 <simple_strtoul>
30013ccc:	e59f31c8 	ldr	r3, [pc, #456]	; 30013e9c <TftpHandler+0x274>
30013cd0:	e1c301b4 	strh	r0, [r3, #20]
30013cd4:	e2844001 	add	r4, r4, #1	; 0x1
30013cd8:	e155000a 	cmp	r5, sl
30013cdc:	e1a00004 	mov	r0, r4
30013ce0:	e59f11b8 	ldr	r1, [pc, #440]	; 30013ea0 <TftpHandler+0x278>
30013ce4:	e2855001 	add	r5, r5, #1	; 0x1
30013ce8:	3afffff0 	bcc	30013cb0 <TftpHandler+0x88>
30013cec:	e8bd44f0 	pop	{r4, r5, r6, r7, sl, lr}
30013cf0:	eafffeac 	b	300137a8 <TftpSend>
30013cf4:	e35a0001 	cmp	sl, #1	; 0x1
30013cf8:	98bd84f0 	popls	{r4, r5, r6, r7, sl, pc}
30013cfc:	e1d500b2 	ldrh	r0, [r5, #2]
30013d00:	ebfffea3 	bl	30013794 <__fswab16>
30013d04:	e59fc18c 	ldr	ip, [pc, #396]	; 30013e98 <TftpHandler+0x270>
30013d08:	e3500000 	cmp	r0, #0	; 0x0
30013d0c:	e1a04000 	mov	r4, r0
30013d10:	e58c0084 	str	r0, [ip, #132]
30013d14:	1a00000b 	bne	30013d48 <TftpHandler+0x120>
30013d18:	e59f317c 	ldr	r3, [pc, #380]	; 30013e9c <TftpHandler+0x274>
30013d1c:	e59c20ac 	ldr	r2, [ip, #172]
30013d20:	e1d311b4 	ldrh	r1, [r3, #20]
30013d24:	e59c30a8 	ldr	r3, [ip, #168]
30013d28:	e0822801 	add	r2, r2, r1, lsl #16
30013d2c:	e2833001 	add	r3, r3, #1	; 0x1
30013d30:	e1a01a22 	lsr	r1, r2, #20
30013d34:	e59f0168 	ldr	r0, [pc, #360]	; 30013ea4 <TftpHandler+0x27c>
30013d38:	e58c30a8 	str	r3, [ip, #168]
30013d3c:	e58c20ac 	str	r2, [ip, #172]
30013d40:	ebffc96f 	bl	30006304 <printf>
30013d44:	ea00000d 	b	30013d80 <TftpHandler+0x158>
30013d48:	e2400001 	sub	r0, r0, #1	; 0x1
30013d4c:	e3a0100a 	mov	r1, #10	; 0xa
30013d50:	eb0007da 	bl	30015cc0 <__aeabi_uidivmod>
30013d54:	e3510000 	cmp	r1, #0	; 0x0
30013d58:	1a000002 	bne	30013d68 <TftpHandler+0x140>
30013d5c:	e3a00023 	mov	r0, #35	; 0x23
30013d60:	ebffc9ee 	bl	30006520 <putc>
30013d64:	ea000005 	b	30013d80 <TftpHandler+0x158>
30013d68:	e1a00004 	mov	r0, r4
30013d6c:	e59f1134 	ldr	r1, [pc, #308]	; 30013ea8 <TftpHandler+0x280>
30013d70:	eb0007d2 	bl	30015cc0 <__aeabi_uidivmod>
30013d74:	e3510000 	cmp	r1, #0	; 0x0
30013d78:	059f012c 	ldreq	r0, [pc, #300]	; 30013eac <TftpHandler+0x284>
30013d7c:	0bffc94e 	bleq	300062bc <puts>
30013d80:	e59f0110 	ldr	r0, [pc, #272]	; 30013e98 <TftpHandler+0x270>
30013d84:	e5903000 	ldr	r3, [r0]
30013d88:	e3530005 	cmp	r3, #5	; 0x5
30013d8c:	13530001 	cmpne	r3, #1	; 0x1
30013d90:	1a00000c 	bne	30013dc8 <TftpHandler+0x1a0>
30013d94:	e5901084 	ldr	r1, [r0, #132]
30013d98:	e3a02000 	mov	r2, #0	; 0x0
30013d9c:	e3a03002 	mov	r3, #2	; 0x2
30013da0:	e3510001 	cmp	r1, #1	; 0x1
30013da4:	e5803000 	str	r3, [r0]
30013da8:	e580608c 	str	r6, [r0, #140]
30013dac:	e58020ac 	str	r2, [r0, #172]
30013db0:	e58020b0 	str	r2, [r0, #176]
30013db4:	e58020a8 	str	r2, [r0, #168]
30013db8:	0a000002 	beq	30013dc8 <TftpHandler+0x1a0>
30013dbc:	e59f00ec 	ldr	r0, [pc, #236]	; 30013eb0 <TftpHandler+0x288>
30013dc0:	ebffc94f 	bl	30006304 <printf>
30013dc4:	ea000031 	b	30013e90 <TftpHandler+0x268>
30013dc8:	e59f50c8 	ldr	r5, [pc, #200]	; 30013e98 <TftpHandler+0x270>
30013dcc:	e595c084 	ldr	ip, [r5, #132]
30013dd0:	e59530b0 	ldr	r3, [r5, #176]
30013dd4:	e15c0003 	cmp	ip, r3
30013dd8:	08bd84f0 	popeq	{r4, r5, r6, r7, sl, pc}
30013ddc:	e59f20d0 	ldr	r2, [pc, #208]	; 30013eb4 <TftpHandler+0x28c>
30013de0:	e59f40b4 	ldr	r4, [pc, #180]	; 30013e9c <TftpHandler+0x274>
30013de4:	e3a0300a 	mov	r3, #10	; 0xa
30013de8:	e1a00002 	mov	r0, r2
30013dec:	e585c0b0 	str	ip, [r5, #176]
30013df0:	e584300c 	str	r3, [r4, #12]
30013df4:	e5842008 	str	r2, [r4, #8]
30013df8:	e59f10b8 	ldr	r1, [pc, #184]	; 30013eb8 <TftpHandler+0x290>
30013dfc:	ebfff61d 	bl	30011678 <NetSetTimeout>
30013e00:	e5953084 	ldr	r3, [r5, #132]
30013e04:	e1d411b4 	ldrh	r1, [r4, #20]
30013e08:	e59520ac 	ldr	r2, [r5, #172]
30013e0c:	e2433001 	sub	r3, r3, #1	; 0x1
30013e10:	e02c2193 	mla	ip, r3, r1, r2
30013e14:	e59f30a0 	ldr	r3, [pc, #160]	; 30013ebc <TftpHandler+0x294>
30013e18:	e5930000 	ldr	r0, [r3]
30013e1c:	e24a4002 	sub	r4, sl, #2	; 0x2
30013e20:	e08c0000 	add	r0, ip, r0
30013e24:	e2871002 	add	r1, r7, #2	; 0x2
30013e28:	e1a02004 	mov	r2, r4
30013e2c:	e084500c 	add	r5, r4, ip
30013e30:	ebffe636 	bl	3000d710 <memcpy>
30013e34:	e59f2084 	ldr	r2, [pc, #132]	; 30013ec0 <TftpHandler+0x298>
30013e38:	e5923000 	ldr	r3, [r2]
30013e3c:	e1530005 	cmp	r3, r5
30013e40:	35825000 	strcc	r5, [r2]
30013e44:	ebfffe57 	bl	300137a8 <TftpSend>
30013e48:	e59f304c 	ldr	r3, [pc, #76]	; 30013e9c <TftpHandler+0x274>
30013e4c:	e1d331b4 	ldrh	r3, [r3, #20]
30013e50:	e1540003 	cmp	r4, r3
30013e54:	28bd84f0 	popcs	{r4, r5, r6, r7, sl, pc}
30013e58:	e59f0064 	ldr	r0, [pc, #100]	; 30013ec4 <TftpHandler+0x29c>
30013e5c:	ebffc916 	bl	300062bc <puts>
30013e60:	e59f3060 	ldr	r3, [pc, #96]	; 30013ec8 <TftpHandler+0x2a0>
30013e64:	e3a02003 	mov	r2, #3	; 0x3
30013e68:	e5832000 	str	r2, [r3]
30013e6c:	e8bd84f0 	pop	{r4, r5, r6, r7, sl, pc}
30013e70:	e1d500b2 	ldrh	r0, [r5, #2]
30013e74:	ebfffe46 	bl	30013794 <__fswab16>
30013e78:	e2871002 	add	r1, r7, #2	; 0x2
30013e7c:	e1a02000 	mov	r2, r0
30013e80:	e59f0044 	ldr	r0, [pc, #68]	; 30013ecc <TftpHandler+0x2a4>
30013e84:	ebffc91e 	bl	30006304 <printf>
30013e88:	e59f0040 	ldr	r0, [pc, #64]	; 30013ed0 <TftpHandler+0x2a8>
30013e8c:	ebffc90a 	bl	300062bc <puts>
30013e90:	e8bd44f0 	pop	{r4, r5, r6, r7, sl, lr}
30013e94:	eafff8c4 	b	300121ac <NetStartAgain>
30013e98:	30020fc8 	.word	0x30020fc8
30013e9c:	3001bd40 	.word	0x3001bd40
30013ea0:	3001b042 	.word	0x3001b042
30013ea4:	3001b04a 	.word	0x3001b04a
30013ea8:	0000028a 	.word	0x0000028a
30013eac:	3001b05c 	.word	0x3001b05c
30013eb0:	3001b060 	.word	0x3001b060
30013eb4:	00001388 	.word	0x00001388
30013eb8:	30013bc4 	.word	0x30013bc4
30013ebc:	3001b2e8 	.word	0x3001b2e8
30013ec0:	30020608 	.word	0x30020608
30013ec4:	3001af19 	.word	0x3001af19
30013ec8:	3001e130 	.word	0x3001e130
30013ecc:	3001b09f 	.word	0x3001b09f
30013ed0:	3001b08e 	.word	0x3001b08e

30013ed4 <__fswab16>:
30013ed4:	e1a03420 	lsr	r3, r0, #8
30013ed8:	e1833400 	orr	r3, r3, r0, lsl #8
30013edc:	e1a03803 	lsl	r3, r3, #16
30013ee0:	e1a00823 	lsr	r0, r3, #16
30013ee4:	e1a0f00e 	mov	pc, lr

30013ee8 <__fswab32>:
30013ee8:	e1a03000 	mov	r3, r0
30013eec:	e1a00c00 	lsl	r0, r0, #24
30013ef0:	e2032cff 	and	r2, r3, #65280	; 0xff00
30013ef4:	e1800c23 	orr	r0, r0, r3, lsr #24
30013ef8:	e1800402 	orr	r0, r0, r2, lsl #8
30013efc:	e20338ff 	and	r3, r3, #16711680	; 0xff0000
30013f00:	e1800423 	orr	r0, r0, r3, lsr #8
30013f04:	e1a0f00e 	mov	pc, lr

30013f08 <truncate_sz>:
30013f08:	e1520001 	cmp	r2, r1
30013f0c:	e92d4010 	push	{r4, lr}
30013f10:	e1a03002 	mov	r3, r2
30013f14:	e1a04001 	mov	r4, r1
30013f18:	ba000004 	blt	30013f30 <truncate_sz+0x28>
30013f1c:	e1a01000 	mov	r1, r0
30013f20:	e1a03004 	mov	r3, r4
30013f24:	e59f000c 	ldr	r0, [pc, #12]	; 30013f38 <truncate_sz+0x30>
30013f28:	ebffc8f5 	bl	30006304 <printf>
30013f2c:	e2443001 	sub	r3, r4, #1	; 0x1
30013f30:	e1a00003 	mov	r0, r3
30013f34:	e8bd8010 	pop	{r4, pc}
30013f38:	3001b0b7 	.word	0x3001b0b7

30013f3c <NetWriteIP>:
30013f3c:	e92d4007 	push	{r0, r1, r2, lr}
30013f40:	e28d3008 	add	r3, sp, #8	; 0x8
30013f44:	e5231004 	str	r1, [r3, #-4]!
30013f48:	e3a02004 	mov	r2, #4	; 0x4
30013f4c:	e1a01003 	mov	r1, r3
30013f50:	ebffe5ee 	bl	3000d710 <memcpy>
30013f54:	e8bd800e 	pop	{r1, r2, r3, pc}

30013f58 <NetCopyLong>:
30013f58:	e3a02004 	mov	r2, #4	; 0x4
30013f5c:	eaffe5eb 	b	3000d710 <memcpy>

30013f60 <NetCopyIP>:
30013f60:	e3a02004 	mov	r2, #4	; 0x4
30013f64:	eaffe5e9 	b	3000d710 <memcpy>

30013f68 <NetReadLong>:
30013f68:	e92d4007 	push	{r0, r1, r2, lr}
30013f6c:	e1a01000 	mov	r1, r0
30013f70:	e3a02004 	mov	r2, #4	; 0x4
30013f74:	e28d0004 	add	r0, sp, #4	; 0x4
30013f78:	ebffe5e4 	bl	3000d710 <memcpy>
30013f7c:	e59d0004 	ldr	r0, [sp, #4]
30013f80:	e8bd800e 	pop	{r1, r2, r3, pc}

30013f84 <DhcpOptionsProcess>:
30013f84:	e92d4ef0 	push	{r4, r5, r6, r7, r9, sl, fp, lr}
30013f88:	e1a06000 	mov	r6, r0
30013f8c:	e1a0a001 	mov	sl, r1
30013f90:	e280bf89 	add	fp, r0, #548	; 0x224
30013f94:	e281906c 	add	r9, r1, #108	; 0x6c
30013f98:	ea00005b 	b	3001410c <DhcpOptionsProcess+0x188>
30013f9c:	e3510033 	cmp	r1, #51	; 0x33
30013fa0:	e5d67001 	ldrb	r7, [r6, #1]
30013fa4:	0a000037 	beq	30014088 <DhcpOptionsProcess+0x104>
30013fa8:	8a00000e 	bhi	30013fe8 <DhcpOptionsProcess+0x64>
30013fac:	e3510006 	cmp	r1, #6	; 0x6
30013fb0:	0a000020 	beq	30014038 <DhcpOptionsProcess+0xb4>
30013fb4:	8a000004 	bhi	30013fcc <DhcpOptionsProcess+0x48>
30013fb8:	e3510001 	cmp	r1, #1	; 0x1
30013fbc:	0a000017 	beq	30014020 <DhcpOptionsProcess+0x9c>
30013fc0:	e3510003 	cmp	r1, #3	; 0x3
30013fc4:	1a00004c 	bne	300140fc <DhcpOptionsProcess+0x178>
30013fc8:	ea000016 	b	30014028 <DhcpOptionsProcess+0xa4>
30013fcc:	e351000f 	cmp	r1, #15	; 0xf
30013fd0:	0a00004b 	beq	30014104 <DhcpOptionsProcess+0x180>
30013fd4:	e3510011 	cmp	r1, #17	; 0x11
30013fd8:	0a00001d 	beq	30014054 <DhcpOptionsProcess+0xd0>
30013fdc:	e351000c 	cmp	r1, #12	; 0xc
30013fe0:	1a000045 	bne	300140fc <DhcpOptionsProcess+0x178>
30013fe4:	ea000015 	b	30014040 <DhcpOptionsProcess+0xbc>
30013fe8:	e351003b 	cmp	r1, #59	; 0x3b
30013fec:	8a000006 	bhi	3001400c <DhcpOptionsProcess+0x88>
30013ff0:	e351003a 	cmp	r1, #58	; 0x3a
30013ff4:	2a000042 	bcs	30014104 <DhcpOptionsProcess+0x180>
30013ff8:	e3510035 	cmp	r1, #53	; 0x35
30013ffc:	0a000040 	beq	30014104 <DhcpOptionsProcess+0x180>
30014000:	e3510036 	cmp	r1, #54	; 0x36
30014004:	1a00003c 	bne	300140fc <DhcpOptionsProcess+0x178>
30014008:	ea000022 	b	30014098 <DhcpOptionsProcess+0x114>
3001400c:	e3510042 	cmp	r1, #66	; 0x42
30014010:	0a00003b 	beq	30014104 <DhcpOptionsProcess+0x180>
30014014:	e3510043 	cmp	r1, #67	; 0x43
30014018:	1a000037 	bne	300140fc <DhcpOptionsProcess+0x178>
3001401c:	ea00001f 	b	300140a0 <DhcpOptionsProcess+0x11c>
30014020:	e59f00fc 	ldr	r0, [pc, #252]	; 30014124 <DhcpOptionsProcess+0x1a0>
30014024:	ea000000 	b	3001402c <DhcpOptionsProcess+0xa8>
30014028:	e59f00f8 	ldr	r0, [pc, #248]	; 30014128 <DhcpOptionsProcess+0x1a4>
3001402c:	e2861002 	add	r1, r6, #2	; 0x2
30014030:	ebffffca 	bl	30013f60 <NetCopyIP>
30014034:	ea000032 	b	30014104 <DhcpOptionsProcess+0x180>
30014038:	e59f00ec 	ldr	r0, [pc, #236]	; 3001412c <DhcpOptionsProcess+0x1a8>
3001403c:	eafffffa 	b	3001402c <DhcpOptionsProcess+0xa8>
30014040:	e3a01020 	mov	r1, #32	; 0x20
30014044:	e1a02007 	mov	r2, r7
30014048:	e59f50e0 	ldr	r5, [pc, #224]	; 30014130 <DhcpOptionsProcess+0x1ac>
3001404c:	e59f00e0 	ldr	r0, [pc, #224]	; 30014134 <DhcpOptionsProcess+0x1b0>
30014050:	ea000003 	b	30014064 <DhcpOptionsProcess+0xe0>
30014054:	e59f50dc 	ldr	r5, [pc, #220]	; 30014138 <DhcpOptionsProcess+0x1b4>
30014058:	e59f00dc 	ldr	r0, [pc, #220]	; 3001413c <DhcpOptionsProcess+0x1b8>
3001405c:	e3a01040 	mov	r1, #64	; 0x40
30014060:	e1a02007 	mov	r2, r7
30014064:	ebffffa7 	bl	30013f08 <truncate_sz>
30014068:	e1a04000 	mov	r4, r0
3001406c:	e2861002 	add	r1, r6, #2	; 0x2
30014070:	e1a00005 	mov	r0, r5
30014074:	e1a02004 	mov	r2, r4
30014078:	ebffe5a4 	bl	3000d710 <memcpy>
3001407c:	e3a03000 	mov	r3, #0	; 0x0
30014080:	e7c53004 	strb	r3, [r5, r4]
30014084:	ea00001e 	b	30014104 <DhcpOptionsProcess+0x180>
30014088:	e59f00b0 	ldr	r0, [pc, #176]	; 30014140 <DhcpOptionsProcess+0x1bc>
3001408c:	e2861002 	add	r1, r6, #2	; 0x2
30014090:	ebffffb0 	bl	30013f58 <NetCopyLong>
30014094:	ea00001a 	b	30014104 <DhcpOptionsProcess+0x180>
30014098:	e59f00a4 	ldr	r0, [pc, #164]	; 30014144 <DhcpOptionsProcess+0x1c0>
3001409c:	eaffffe2 	b	3001402c <DhcpOptionsProcess+0xa8>
300140a0:	e59f00a0 	ldr	r0, [pc, #160]	; 30014148 <DhcpOptionsProcess+0x1c4>
300140a4:	e3a01080 	mov	r1, #128	; 0x80
300140a8:	e1a02007 	mov	r2, r7
300140ac:	ebffff95 	bl	30013f08 <truncate_sz>
300140b0:	e5da306c 	ldrb	r3, [sl, #108]
300140b4:	e2733001 	rsbs	r3, r3, #1	; 0x1
300140b8:	33a03000 	movcc	r3, #0	; 0x0
300140bc:	e3500000 	cmp	r0, #0	; 0x0
300140c0:	d3a03000 	movle	r3, #0	; 0x0
300140c4:	e3530000 	cmp	r3, #0	; 0x0
300140c8:	e1a04000 	mov	r4, r0
300140cc:	0a00000c 	beq	30014104 <DhcpOptionsProcess+0x180>
300140d0:	e59f0074 	ldr	r0, [pc, #116]	; 3001414c <DhcpOptionsProcess+0x1c8>
300140d4:	ebffc88a 	bl	30006304 <printf>
300140d8:	e1a02004 	mov	r2, r4
300140dc:	e1a00009 	mov	r0, r9
300140e0:	e2861002 	add	r1, r6, #2	; 0x2
300140e4:	ebffe589 	bl	3000d710 <memcpy>
300140e8:	e08a3004 	add	r3, sl, r4
300140ec:	e2833068 	add	r3, r3, #104	; 0x68
300140f0:	e3a02000 	mov	r2, #0	; 0x0
300140f4:	e5c32004 	strb	r2, [r3, #4]
300140f8:	ea000001 	b	30014104 <DhcpOptionsProcess+0x180>
300140fc:	e59f004c 	ldr	r0, [pc, #76]	; 30014150 <DhcpOptionsProcess+0x1cc>
30014100:	ebffc87f 	bl	30006304 <printf>
30014104:	e2873002 	add	r3, r7, #2	; 0x2
30014108:	e0866003 	add	r6, r6, r3
3001410c:	e156000b 	cmp	r6, fp
30014110:	28bd8ef0 	popcs	{r4, r5, r6, r7, r9, sl, fp, pc}
30014114:	e5d61000 	ldrb	r1, [r6]
30014118:	e35100ff 	cmp	r1, #255	; 0xff
3001411c:	1affff9e 	bne	30013f9c <DhcpOptionsProcess+0x18>
30014120:	e8bd8ef0 	pop	{r4, r5, r6, r7, r9, sl, fp, pc}
30014124:	3001e184 	.word	0x3001e184
30014128:	3001e188 	.word	0x3001e188
3001412c:	3002060c 	.word	0x3002060c
30014130:	30020630 	.word	0x30020630
30014134:	3001b0ef 	.word	0x3001b0ef
30014138:	30020650 	.word	0x30020650
3001413c:	3001b0f9 	.word	0x3001b0f9
30014140:	3002107c 	.word	0x3002107c
30014144:	30021080 	.word	0x30021080
30014148:	3001b103 	.word	0x3001b103
3001414c:	3001b111 	.word	0x3001b111
30014150:	3001b13f 	.word	0x3001b13f

30014154 <DhcpExtended>:
30014154:	e92d4ef0 	push	{r4, r5, r6, r7, r9, sl, fp, lr}
30014158:	e3a06063 	mov	r6, #99	; 0x63
3001415c:	e24dd020 	sub	sp, sp, #32	; 0x20
30014160:	e58d0010 	str	r0, [sp, #16]
30014164:	e4c06001 	strb	r6, [r0], #1
30014168:	e2804001 	add	r4, r0, #1	; 0x1
3001416c:	e2845001 	add	r5, r4, #1	; 0x1
30014170:	e2857001 	add	r7, r5, #1	; 0x1
30014174:	e287a001 	add	sl, r7, #1	; 0x1
30014178:	e28a9001 	add	r9, sl, #1	; 0x1
3001417c:	e289c001 	add	ip, r9, #1	; 0x1
30014180:	e58d4004 	str	r4, [sp, #4]
30014184:	e28c4001 	add	r4, ip, #1	; 0x1
30014188:	e284b001 	add	fp, r4, #1	; 0x1
3001418c:	e58dc014 	str	ip, [sp, #20]
30014190:	e28bc001 	add	ip, fp, #1	; 0x1
30014194:	e58dc01c 	str	ip, [sp, #28]
30014198:	e3520000 	cmp	r2, #0	; 0x0
3001419c:	e59dc010 	ldr	ip, [sp, #16]
300141a0:	e58d200c 	str	r2, [sp, #12]
300141a4:	e3e0207d 	mvn	r2, #125	; 0x7d
300141a8:	e58d4018 	str	r4, [sp, #24]
300141ac:	e5cc2001 	strb	r2, [ip, #1]
300141b0:	e3a02053 	mov	r2, #83	; 0x53
300141b4:	e5c02001 	strb	r2, [r0, #1]
300141b8:	e59d2004 	ldr	r2, [sp, #4]
300141bc:	e5c26001 	strb	r6, [r2, #1]
300141c0:	e3a02035 	mov	r2, #53	; 0x35
300141c4:	e5c52001 	strb	r2, [r5, #1]
300141c8:	e3a02001 	mov	r2, #1	; 0x1
300141cc:	e5c72001 	strb	r2, [r7, #1]
300141d0:	e2822038 	add	r2, r2, #56	; 0x38
300141d4:	e5ca1001 	strb	r1, [sl, #1]
300141d8:	e5c92001 	strb	r2, [r9, #1]
300141dc:	e59dc014 	ldr	ip, [sp, #20]
300141e0:	e3a04002 	mov	r4, #2	; 0x2
300141e4:	e5cc4001 	strb	r4, [ip, #1]
300141e8:	e59d2018 	ldr	r2, [sp, #24]
300141ec:	e5c24001 	strb	r4, [r2, #1]
300141f0:	e3a02040 	mov	r2, #64	; 0x40
300141f4:	e5cb2001 	strb	r2, [fp, #1]
300141f8:	e1a09003 	mov	r9, r3
300141fc:	e59d301c 	ldr	r3, [sp, #28]
30014200:	e283a001 	add	sl, r3, #1	; 0x1
30014204:	0a000012 	beq	30014254 <DhcpExtended+0x100>
30014208:	e59d000c 	ldr	r0, [sp, #12]
3001420c:	ebffff35 	bl	30013ee8 <__fswab32>
30014210:	e28a4001 	add	r4, sl, #1	; 0x1
30014214:	e59de01c 	ldr	lr, [sp, #28]
30014218:	e2845001 	add	r5, r4, #1	; 0x1
3001421c:	e2856001 	add	r6, r5, #1	; 0x1
30014220:	e3a03036 	mov	r3, #54	; 0x36
30014224:	e5ce3001 	strb	r3, [lr, #1]
30014228:	e2867001 	add	r7, r6, #1	; 0x1
3001422c:	e1a02c40 	asr	r2, r0, #24
30014230:	e1a01840 	asr	r1, r0, #16
30014234:	e1a0c440 	asr	ip, r0, #8
30014238:	e3a03004 	mov	r3, #4	; 0x4
3001423c:	e5ca3001 	strb	r3, [sl, #1]
30014240:	e5c42001 	strb	r2, [r4, #1]
30014244:	e5c51001 	strb	r1, [r5, #1]
30014248:	e5c6c001 	strb	ip, [r6, #1]
3001424c:	e5c70001 	strb	r0, [r7, #1]
30014250:	e287a002 	add	sl, r7, #2	; 0x2
30014254:	e3590000 	cmp	r9, #0	; 0x0
30014258:	0a000011 	beq	300142a4 <DhcpExtended+0x150>
3001425c:	e1a00009 	mov	r0, r9
30014260:	ebffff20 	bl	30013ee8 <__fswab32>
30014264:	e1a0200a 	mov	r2, sl
30014268:	e3a03032 	mov	r3, #50	; 0x32
3001426c:	e4c23001 	strb	r3, [r2], #1
30014270:	e2825001 	add	r5, r2, #1	; 0x1
30014274:	e2856001 	add	r6, r5, #1	; 0x1
30014278:	e2867001 	add	r7, r6, #1	; 0x1
3001427c:	e1a01c40 	asr	r1, r0, #24
30014280:	e1a0c840 	asr	ip, r0, #16
30014284:	e1a04440 	asr	r4, r0, #8
30014288:	e3a03004 	mov	r3, #4	; 0x4
3001428c:	e5ca3001 	strb	r3, [sl, #1]
30014290:	e5c21001 	strb	r1, [r2, #1]
30014294:	e5c5c001 	strb	ip, [r5, #1]
30014298:	e5c64001 	strb	r4, [r6, #1]
3001429c:	e5c70001 	strb	r0, [r7, #1]
300142a0:	e287a002 	add	sl, r7, #2	; 0x2
300142a4:	e1a0200a 	mov	r2, sl
300142a8:	e3a03037 	mov	r3, #55	; 0x37
300142ac:	e4c23001 	strb	r3, [r2], #1
300142b0:	e3a03000 	mov	r3, #0	; 0x0
300142b4:	e5ca3001 	strb	r3, [sl, #1]
300142b8:	e2833003 	add	r3, r3, #3	; 0x3
300142bc:	e5c23001 	strb	r3, [r2, #1]
300142c0:	e5da3001 	ldrb	r3, [sl, #1]
300142c4:	e2833001 	add	r3, r3, #1	; 0x1
300142c8:	e5ca3001 	strb	r3, [sl, #1]
300142cc:	e2822001 	add	r2, r2, #1	; 0x1
300142d0:	e3a0300c 	mov	r3, #12	; 0xc
300142d4:	e5c23001 	strb	r3, [r2, #1]
300142d8:	e5da3001 	ldrb	r3, [sl, #1]
300142dc:	e2833001 	add	r3, r3, #1	; 0x1
300142e0:	e5ca3001 	strb	r3, [sl, #1]
300142e4:	e2822001 	add	r2, r2, #1	; 0x1
300142e8:	e3a0300d 	mov	r3, #13	; 0xd
300142ec:	e5c23001 	strb	r3, [r2, #1]
300142f0:	e5da3001 	ldrb	r3, [sl, #1]
300142f4:	e2833001 	add	r3, r3, #1	; 0x1
300142f8:	e5ca3001 	strb	r3, [sl, #1]
300142fc:	e2822001 	add	r2, r2, #1	; 0x1
30014300:	e3a03011 	mov	r3, #17	; 0x11
30014304:	e5c23001 	strb	r3, [r2, #1]
30014308:	e5da3001 	ldrb	r3, [sl, #1]
3001430c:	e2833001 	add	r3, r3, #1	; 0x1
30014310:	e5ca3001 	strb	r3, [sl, #1]
30014314:	e3e03000 	mvn	r3, #0	; 0x0
30014318:	e5c23002 	strb	r3, [r2, #2]
3001431c:	e59d2010 	ldr	r2, [sp, #16]
30014320:	e28a1007 	add	r1, sl, #7	; 0x7
30014324:	e0620001 	rsb	r0, r2, r1
30014328:	e1a0200a 	mov	r2, sl
3001432c:	ea000002 	b	3001433c <DhcpExtended+0x1e8>
30014330:	e3a03000 	mov	r3, #0	; 0x0
30014334:	e5c23006 	strb	r3, [r2, #6]
30014338:	e2800001 	add	r0, r0, #1	; 0x1
3001433c:	e3500040 	cmp	r0, #64	; 0x40
30014340:	e2822001 	add	r2, r2, #1	; 0x1
30014344:	dafffff9 	ble	30014330 <DhcpExtended+0x1dc>
30014348:	e28dd020 	add	sp, sp, #32	; 0x20
3001434c:	e8bd8ef0 	pop	{r4, r5, r6, r7, r9, sl, fp, pc}

30014350 <BootpRequest>:
30014350:	e92d4ef3 	push	{r0, r1, r4, r5, r6, r7, r9, sl, fp, lr}
30014354:	e59fb194 	ldr	fp, [pc, #404]	; 300144f0 <BootpRequest+0x1a0>
30014358:	e59b300c 	ldr	r3, [fp, #12]
3001435c:	e3a06000 	mov	r6, #0	; 0x0
30014360:	e2833001 	add	r3, r3, #1	; 0x1
30014364:	e1a01003 	mov	r1, r3
30014368:	e58b300c 	str	r3, [fp, #12]
3001436c:	e59f0180 	ldr	r0, [pc, #384]	; 300144f4 <BootpRequest+0x1a4>
30014370:	e58b6008 	str	r6, [fp, #8]
30014374:	ebffc7e2 	bl	30006304 <printf>
30014378:	e59f2178 	ldr	r2, [pc, #376]	; 300144f8 <BootpRequest+0x1a8>
3001437c:	e5925000 	ldr	r5, [r2]
30014380:	e1a01006 	mov	r1, r6
30014384:	e59f2170 	ldr	r2, [pc, #368]	; 300144fc <BootpRequest+0x1ac>
30014388:	e1a00005 	mov	r0, r5
3001438c:	ebffe4b5 	bl	3000d668 <memset>
30014390:	e3a02b02 	mov	r2, #2048	; 0x800
30014394:	e59f1164 	ldr	r1, [pc, #356]	; 30014500 <BootpRequest+0x1b0>
30014398:	e1a00005 	mov	r0, r5
3001439c:	ebfff501 	bl	300117a8 <NetSetEther>
300143a0:	e0855000 	add	r5, r5, r0
300143a4:	e285901c 	add	r9, r5, #28	; 0x1c
300143a8:	e3a04001 	mov	r4, #1	; 0x1
300143ac:	e3a0a006 	mov	sl, #6	; 0x6
300143b0:	e5c5401c 	strb	r4, [r5, #28]
300143b4:	e5c94001 	strb	r4, [r9, #1]
300143b8:	e5c9a002 	strb	sl, [r9, #2]
300143bc:	e5c96003 	strb	r6, [r9, #3]
300143c0:	e1a00006 	mov	r0, r6
300143c4:	ebfff2fc 	bl	30010fbc <get_timer>
300143c8:	e3a01ffa 	mov	r1, #1000	; 0x3e8
300143cc:	eb0005c0 	bl	30015ad4 <__aeabi_uidiv>
300143d0:	e1a00800 	lsl	r0, r0, #16
300143d4:	e1a00820 	lsr	r0, r0, #16
300143d8:	ebfffebd 	bl	30013ed4 <__fswab16>
300143dc:	e1a01006 	mov	r1, r6
300143e0:	e1c900b8 	strh	r0, [r9, #8]
300143e4:	e2850028 	add	r0, r5, #40	; 0x28
300143e8:	ebfffed3 	bl	30013f3c <NetWriteIP>
300143ec:	e285002c 	add	r0, r5, #44	; 0x2c
300143f0:	e1a01006 	mov	r1, r6
300143f4:	ebfffed0 	bl	30013f3c <NetWriteIP>
300143f8:	e59f7104 	ldr	r7, [pc, #260]	; 30014504 <BootpRequest+0x1b4>
300143fc:	e2850030 	add	r0, r5, #48	; 0x30
30014400:	e1a01006 	mov	r1, r6
30014404:	ebfffecc 	bl	30013f3c <NetWriteIP>
30014408:	e2850034 	add	r0, r5, #52	; 0x34
3001440c:	e1a01006 	mov	r1, r6
30014410:	ebfffec9 	bl	30013f3c <NetWriteIP>
30014414:	e1a0200a 	mov	r2, sl
30014418:	e1a01007 	mov	r1, r7
3001441c:	e2850038 	add	r0, r5, #56	; 0x38
30014420:	ebffe4ba 	bl	3000d710 <memcpy>
30014424:	e2850088 	add	r0, r5, #136	; 0x88
30014428:	e59f10d8 	ldr	r1, [pc, #216]	; 30014508 <BootpRequest+0x1b8>
3001442c:	e3a02080 	mov	r2, #128	; 0x80
30014430:	ebfff408 	bl	30011458 <copy_filename>
30014434:	e1a01004 	mov	r1, r4
30014438:	e1a02006 	mov	r2, r6
3001443c:	e1a03006 	mov	r3, r6
30014440:	e2850f42 	add	r0, r5, #264	; 0x108
30014444:	ebffff42 	bl	30014154 <DhcpExtended>
30014448:	e5d74003 	ldrb	r4, [r7, #3]
3001444c:	e5d73002 	ldrb	r3, [r7, #2]
30014450:	e5d72005 	ldrb	r2, [r7, #5]
30014454:	e1a04804 	lsl	r4, r4, #16
30014458:	e1844c03 	orr	r4, r4, r3, lsl #24
3001445c:	e5d73004 	ldrb	r3, [r7, #4]
30014460:	e1844002 	orr	r4, r4, r2
30014464:	e1844403 	orr	r4, r4, r3, lsl #8
30014468:	e1a0a000 	mov	sl, r0
3001446c:	e58b4010 	str	r4, [fp, #16]
30014470:	e1a00006 	mov	r0, r6
30014474:	ebfff2d0 	bl	30010fbc <get_timer>
30014478:	e0800004 	add	r0, r0, r4
3001447c:	ebfffe99 	bl	30013ee8 <__fswab32>
30014480:	e1a0100b 	mov	r1, fp
30014484:	e5a10010 	str	r0, [r1, #16]!
30014488:	e2850020 	add	r0, r5, #32	; 0x20
3001448c:	ebfffeb1 	bl	30013f58 <NetCopyLong>
30014490:	e59f2060 	ldr	r2, [pc, #96]	; 300144f8 <BootpRequest+0x1a8>
30014494:	e5923000 	ldr	r3, [r2]
30014498:	e1a00005 	mov	r0, r5
3001449c:	e3a02043 	mov	r2, #67	; 0x43
300144a0:	e0639009 	rsb	r9, r3, r9
300144a4:	e28aa0ec 	add	sl, sl, #236	; 0xec
300144a8:	e3a03044 	mov	r3, #68	; 0x44
300144ac:	e3e01000 	mvn	r1, #0	; 0x0
300144b0:	e58da000 	str	sl, [sp]
300144b4:	ebfff47d 	bl	300116b0 <NetSetIP>
300144b8:	e59f104c 	ldr	r1, [pc, #76]	; 3001450c <BootpRequest+0x1bc>
300144bc:	e59f004c 	ldr	r0, [pc, #76]	; 30014510 <BootpRequest+0x1c0>
300144c0:	ebfff46c 	bl	30011678 <NetSetTimeout>
300144c4:	e3a03003 	mov	r3, #3	; 0x3
300144c8:	e58b3008 	str	r3, [fp, #8]
300144cc:	e59f0040 	ldr	r0, [pc, #64]	; 30014514 <BootpRequest+0x1c4>
300144d0:	ebfff3c1 	bl	300113dc <NetSetHandler>
300144d4:	e59f301c 	ldr	r3, [pc, #28]	; 300144f8 <BootpRequest+0x1a8>
300144d8:	e08aa009 	add	sl, sl, r9
300144dc:	e5930000 	ldr	r0, [r3]
300144e0:	e1a0100a 	mov	r1, sl
300144e4:	e28dd008 	add	sp, sp, #8	; 0x8
300144e8:	e8bd4ef0 	pop	{r4, r5, r6, r7, r9, sl, fp, lr}
300144ec:	eafff4f2 	b	300118bc <NetSendPacket>
300144f0:	3002107c 	.word	0x3002107c
300144f4:	3001b16b 	.word	0x3001b16b
300144f8:	3001e180 	.word	0x3001e180
300144fc:	000005ee 	.word	0x000005ee
30014500:	3001bd34 	.word	0x3001bd34
30014504:	3001e14c 	.word	0x3001e14c
30014508:	30020692 	.word	0x30020692
3001450c:	30014874 	.word	0x30014874
30014510:	00000bb8 	.word	0x00000bb8
30014514:	3001451c 	.word	0x3001451c

30014518 <DhcpRequest>:
30014518:	eaffff8c 	b	30014350 <BootpRequest>

3001451c <DhcpHandler>:
3001451c:	e3520043 	cmp	r2, #67	; 0x43
30014520:	03510044 	cmpeq	r1, #68	; 0x44
30014524:	e92d4eff 	push	{r0, r1, r2, r3, r4, r5, r6, r7, r9, sl, fp, lr}
30014528:	e1a09000 	mov	r9, r0
3001452c:	1a0000bc 	bne	30014824 <DhcpHandler+0x308>
30014530:	e35300eb 	cmp	r3, #235	; 0xeb
30014534:	9a0000ba 	bls	30014824 <DhcpHandler+0x308>
30014538:	e5d02000 	ldrb	r2, [r0]
3001453c:	e2423001 	sub	r3, r2, #1	; 0x1
30014540:	e3520005 	cmp	r2, #5	; 0x5
30014544:	13530001 	cmpne	r3, #1	; 0x1
30014548:	9a000001 	bls	30014554 <DhcpHandler+0x38>
3001454c:	e3520006 	cmp	r2, #6	; 0x6
30014550:	1a0000b3 	bne	30014824 <DhcpHandler+0x308>
30014554:	e5d93001 	ldrb	r3, [r9, #1]
30014558:	e3530001 	cmp	r3, #1	; 0x1
3001455c:	1a0000b0 	bne	30014824 <DhcpHandler+0x308>
30014560:	e5d93002 	ldrb	r3, [r9, #2]
30014564:	e3530006 	cmp	r3, #6	; 0x6
30014568:	1a0000ad 	bne	30014824 <DhcpHandler+0x308>
3001456c:	e289b004 	add	fp, r9, #4	; 0x4
30014570:	e1a0000b 	mov	r0, fp
30014574:	ebfffe7b 	bl	30013f68 <NetReadLong>
30014578:	e59f22a8 	ldr	r2, [pc, #680]	; 30014828 <DhcpHandler+0x30c>
3001457c:	e5923010 	ldr	r3, [r2, #16]
30014580:	e1500003 	cmp	r0, r3
30014584:	0a00009e 	beq	30014804 <DhcpHandler+0x2e8>
30014588:	ea0000a5 	b	30014824 <DhcpHandler+0x308>
3001458c:	e3a03004 	mov	r3, #4	; 0x4
30014590:	e5823008 	str	r3, [r2, #8]
30014594:	e28900ec 	add	r0, r9, #236	; 0xec
30014598:	ebfffe72 	bl	30013f68 <NetReadLong>
3001459c:	e59f3288 	ldr	r3, [pc, #648]	; 3001482c <DhcpHandler+0x310>
300145a0:	e1500003 	cmp	r0, r3
300145a4:	028900f0 	addeq	r0, r9, #240	; 0xf0
300145a8:	01a01009 	moveq	r1, r9
300145ac:	0bfffe74 	bleq	30013f84 <DhcpOptionsProcess>
300145b0:	e59fa278 	ldr	sl, [pc, #632]	; 30014830 <DhcpHandler+0x314>
300145b4:	e59f0278 	ldr	r0, [pc, #632]	; 30014834 <DhcpHandler+0x318>
300145b8:	e59f1278 	ldr	r1, [pc, #632]	; 30014838 <DhcpHandler+0x31c>
300145bc:	ebfff42d 	bl	30011678 <NetSetTimeout>
300145c0:	e59a4000 	ldr	r4, [sl]
300145c4:	e3a01000 	mov	r1, #0	; 0x0
300145c8:	e1a00004 	mov	r0, r4
300145cc:	e59f2268 	ldr	r2, [pc, #616]	; 3001483c <DhcpHandler+0x320>
300145d0:	ebffe424 	bl	3000d668 <memset>
300145d4:	e3a02b02 	mov	r2, #2048	; 0x800
300145d8:	e59f1260 	ldr	r1, [pc, #608]	; 30014840 <DhcpHandler+0x324>
300145dc:	e1a00004 	mov	r0, r4
300145e0:	ebfff470 	bl	300117a8 <NetSetEther>
300145e4:	e0844000 	add	r4, r4, r0
300145e8:	e3a03001 	mov	r3, #1	; 0x1
300145ec:	e284501c 	add	r5, r4, #28	; 0x1c
300145f0:	e3a06000 	mov	r6, #0	; 0x0
300145f4:	e3a07006 	mov	r7, #6	; 0x6
300145f8:	e5c53001 	strb	r3, [r5, #1]
300145fc:	e5c4301c 	strb	r3, [r4, #28]
30014600:	e5c57002 	strb	r7, [r5, #2]
30014604:	e5c56003 	strb	r6, [r5, #3]
30014608:	e1a00006 	mov	r0, r6
3001460c:	ebfff26a 	bl	30010fbc <get_timer>
30014610:	e3a01ffa 	mov	r1, #1000	; 0x3e8
30014614:	eb00052e 	bl	30015ad4 <__aeabi_uidiv>
30014618:	e1a00800 	lsl	r0, r0, #16
3001461c:	e1a00820 	lsr	r0, r0, #16
30014620:	ebfffe2b 	bl	30013ed4 <__fswab16>
30014624:	e1a01006 	mov	r1, r6
30014628:	e1c500b8 	strh	r0, [r5, #8]
3001462c:	e2840034 	add	r0, r4, #52	; 0x34
30014630:	ebfffe41 	bl	30013f3c <NetWriteIP>
30014634:	e1a02007 	mov	r2, r7
30014638:	e2840038 	add	r0, r4, #56	; 0x38
3001463c:	e59f1200 	ldr	r1, [pc, #512]	; 30014844 <DhcpHandler+0x328>
30014640:	ebffe432 	bl	3000d710 <memcpy>
30014644:	e1a0100b 	mov	r1, fp
30014648:	e2840020 	add	r0, r4, #32	; 0x20
3001464c:	ebfffe41 	bl	30013f58 <NetCopyLong>
30014650:	e2891010 	add	r1, r9, #16	; 0x10
30014654:	e28d000c 	add	r0, sp, #12	; 0xc
30014658:	ebfffe40 	bl	30013f60 <NetCopyIP>
3001465c:	e59f31c4 	ldr	r3, [pc, #452]	; 30014828 <DhcpHandler+0x30c>
30014660:	e2840f42 	add	r0, r4, #264	; 0x108
30014664:	e5932004 	ldr	r2, [r3, #4]
30014668:	e3a01003 	mov	r1, #3	; 0x3
3001466c:	e59d300c 	ldr	r3, [sp, #12]
30014670:	ebfffeb7 	bl	30014154 <DhcpExtended>
30014674:	e59a3000 	ldr	r3, [sl]
30014678:	e280c0ec 	add	ip, r0, #236	; 0xec
3001467c:	e0635005 	rsb	r5, r3, r5
30014680:	e08c5005 	add	r5, ip, r5
30014684:	e1a00004 	mov	r0, r4
30014688:	e3e01000 	mvn	r1, #0	; 0x0
3001468c:	e3a02043 	mov	r2, #67	; 0x43
30014690:	e3a03044 	mov	r3, #68	; 0x44
30014694:	e58dc000 	str	ip, [sp]
30014698:	ebfff404 	bl	300116b0 <NetSetIP>
3001469c:	e59a0000 	ldr	r0, [sl]
300146a0:	e1a01005 	mov	r1, r5
300146a4:	ebfff484 	bl	300118bc <NetSendPacket>
300146a8:	ea00005d 	b	30014824 <DhcpHandler+0x308>
300146ac:	e28900ec 	add	r0, r9, #236	; 0xec
300146b0:	ebfffe2c 	bl	30013f68 <NetReadLong>
300146b4:	e59f3170 	ldr	r3, [pc, #368]	; 3001482c <DhcpHandler+0x310>
300146b8:	e1500003 	cmp	r0, r3
300146bc:	028940f0 	addeq	r4, r9, #240	; 0xf0
300146c0:	01a02004 	moveq	r2, r4
300146c4:	1a000056 	bne	30014824 <DhcpHandler+0x308>
300146c8:	ea000008 	b	300146f0 <DhcpHandler+0x1d4>
300146cc:	e3530035 	cmp	r3, #53	; 0x35
300146d0:	1a000003 	bne	300146e4 <DhcpHandler+0x1c8>
300146d4:	e5d23002 	ldrb	r3, [r2, #2]
300146d8:	e3530005 	cmp	r3, #5	; 0x5
300146dc:	0a000007 	beq	30014700 <DhcpHandler+0x1e4>
300146e0:	ea00004f 	b	30014824 <DhcpHandler+0x308>
300146e4:	e5d23001 	ldrb	r3, [r2, #1]
300146e8:	e2833002 	add	r3, r3, #2	; 0x2
300146ec:	e0822003 	add	r2, r2, r3
300146f0:	e5d23000 	ldrb	r3, [r2]
300146f4:	e35300ff 	cmp	r3, #255	; 0xff
300146f8:	1afffff3 	bne	300146cc <DhcpHandler+0x1b0>
300146fc:	ea000048 	b	30014824 <DhcpHandler+0x308>
30014700:	e28900ec 	add	r0, r9, #236	; 0xec
30014704:	ebfffe17 	bl	30013f68 <NetReadLong>
30014708:	e59f311c 	ldr	r3, [pc, #284]	; 3001482c <DhcpHandler+0x310>
3001470c:	e1500003 	cmp	r0, r3
30014710:	01a00004 	moveq	r0, r4
30014714:	01a01009 	moveq	r1, r9
30014718:	0bfffe19 	bleq	30013f84 <DhcpOptionsProcess>
3001471c:	e59f0124 	ldr	r0, [pc, #292]	; 30014848 <DhcpHandler+0x32c>
30014720:	e2891010 	add	r1, r9, #16	; 0x10
30014724:	e2894014 	add	r4, r9, #20	; 0x14
30014728:	ebfffe0c 	bl	30013f60 <NetCopyIP>
3001472c:	e28d000c 	add	r0, sp, #12	; 0xc
30014730:	e1a01004 	mov	r1, r4
30014734:	ebfffe09 	bl	30013f60 <NetCopyIP>
30014738:	e59d300c 	ldr	r3, [sp, #12]
3001473c:	e3530000 	cmp	r3, #0	; 0x0
30014740:	11a01004 	movne	r1, r4
30014744:	159f0100 	ldrne	r0, [pc, #256]	; 3001484c <DhcpHandler+0x330>
30014748:	1bfffe04 	blne	30013f60 <NetCopyIP>
3001474c:	e59f30fc 	ldr	r3, [pc, #252]	; 30014850 <DhcpHandler+0x334>
30014750:	e5931000 	ldr	r1, [r3]
30014754:	e3a02006 	mov	r2, #6	; 0x6
30014758:	e2811006 	add	r1, r1, #6	; 0x6
3001475c:	e289406c 	add	r4, r9, #108	; 0x6c
30014760:	e59f00ec 	ldr	r0, [pc, #236]	; 30014854 <DhcpHandler+0x338>
30014764:	ebffe3e9 	bl	3000d710 <memcpy>
30014768:	e1a00004 	mov	r0, r4
3001476c:	ebffe33c 	bl	3000d464 <strlen>
30014770:	e3500000 	cmp	r0, #0	; 0x0
30014774:	11a01004 	movne	r1, r4
30014778:	159f00d8 	ldrne	r0, [pc, #216]	; 30014858 <DhcpHandler+0x33c>
3001477c:	13a02080 	movne	r2, #128	; 0x80
30014780:	1bfff334 	blne	30011458 <copy_filename>
30014784:	e59f10cc 	ldr	r1, [pc, #204]	; 30014858 <DhcpHandler+0x33c>
30014788:	e5d13000 	ldrb	r3, [r1]
3001478c:	e3530000 	cmp	r3, #0	; 0x0
30014790:	159f00c4 	ldrne	r0, [pc, #196]	; 3001485c <DhcpHandler+0x340>
30014794:	1bffc289 	blne	300051c0 <setenv>
30014798:	e59f3088 	ldr	r3, [pc, #136]	; 30014828 <DhcpHandler+0x30c>
3001479c:	e3a02006 	mov	r2, #6	; 0x6
300147a0:	e5832008 	str	r2, [r3, #8]
300147a4:	e59f00b4 	ldr	r0, [pc, #180]	; 30014860 <DhcpHandler+0x344>
300147a8:	e59f1098 	ldr	r1, [pc, #152]	; 30014848 <DhcpHandler+0x32c>
300147ac:	ebffc6d4 	bl	30006304 <printf>
300147b0:	e59f00ac 	ldr	r0, [pc, #172]	; 30014864 <DhcpHandler+0x348>
300147b4:	ebffc0ed 	bl	30004b70 <getenv>
300147b8:	e2503000 	subs	r3, r0, #0	; 0x0
300147bc:	0a00000b 	beq	300147f0 <DhcpHandler+0x2d4>
300147c0:	e5d33000 	ldrb	r3, [r3]
300147c4:	e353006e 	cmp	r3, #110	; 0x6e
300147c8:	059f3098 	ldreq	r3, [pc, #152]	; 30014868 <DhcpHandler+0x34c>
300147cc:	03a02003 	moveq	r2, #3	; 0x3
300147d0:	05832000 	streq	r2, [r3]
300147d4:	0a000012 	beq	30014824 <DhcpHandler+0x308>
300147d8:	e59f108c 	ldr	r1, [pc, #140]	; 3001486c <DhcpHandler+0x350>
300147dc:	ebffe2f3 	bl	3000d3b0 <strcmp>
300147e0:	e3500000 	cmp	r0, #0	; 0x0
300147e4:	1a000001 	bne	300147f0 <DhcpHandler+0x2d4>
300147e8:	ebfff9dc 	bl	30012f60 <NfsStart>
300147ec:	ea00000c 	b	30014824 <DhcpHandler+0x308>
300147f0:	ebfffc4d 	bl	3001392c <TftpStart>
300147f4:	ea00000a 	b	30014824 <DhcpHandler+0x308>
300147f8:	e59f0070 	ldr	r0, [pc, #112]	; 30014870 <DhcpHandler+0x354>
300147fc:	ebffc6ae 	bl	300062bc <puts>
30014800:	ea000007 	b	30014824 <DhcpHandler+0x308>
30014804:	e5923008 	ldr	r3, [r2, #8]
30014808:	e3530004 	cmp	r3, #4	; 0x4
3001480c:	0affffa6 	beq	300146ac <DhcpHandler+0x190>
30014810:	e3530006 	cmp	r3, #6	; 0x6
30014814:	0a000002 	beq	30014824 <DhcpHandler+0x308>
30014818:	e3530003 	cmp	r3, #3	; 0x3
3001481c:	1afffff5 	bne	300147f8 <DhcpHandler+0x2dc>
30014820:	eaffff59 	b	3001458c <DhcpHandler+0x70>
30014824:	e8bd8eff 	pop	{r0, r1, r2, r3, r4, r5, r6, r7, r9, sl, fp, pc}
30014828:	3002107c 	.word	0x3002107c
3001482c:	63538263 	.word	0x63538263
30014830:	3001e180 	.word	0x3001e180
30014834:	00001388 	.word	0x00001388
30014838:	30014874 	.word	0x30014874
3001483c:	000005ee 	.word	0x000005ee
30014840:	3001bd34 	.word	0x3001bd34
30014844:	3001e14c 	.word	0x3001e14c
30014848:	3001e148 	.word	0x3001e148
3001484c:	3001e174 	.word	0x3001e174
30014850:	3001e158 	.word	0x3001e158
30014854:	3001e178 	.word	0x3001e178
30014858:	30020692 	.word	0x30020692
3001485c:	300180ae 	.word	0x300180ae
30014860:	3001b17f 	.word	0x3001b17f
30014864:	3001af93 	.word	0x3001af93
30014868:	3001e130 	.word	0x3001e130
3001486c:	3001af9c 	.word	0x3001af9c
30014870:	3001b1a2 	.word	0x3001b1a2

30014874 <BootpTimeout>:
30014874:	e59f3030 	ldr	r3, [pc, #48]	; 300148ac <BootpTimeout+0x38>
30014878:	e593300c 	ldr	r3, [r3, #12]
3001487c:	e3530004 	cmp	r3, #4	; 0x4
30014880:	e92d4010 	push	{r4, lr}
30014884:	da000003 	ble	30014898 <BootpTimeout+0x24>
30014888:	e59f0020 	ldr	r0, [pc, #32]	; 300148b0 <BootpTimeout+0x3c>
3001488c:	ebffc68a 	bl	300062bc <puts>
30014890:	e8bd4010 	pop	{r4, lr}
30014894:	eafff644 	b	300121ac <NetStartAgain>
30014898:	e59f0014 	ldr	r0, [pc, #20]	; 300148b4 <BootpTimeout+0x40>
3001489c:	e59f1014 	ldr	r1, [pc, #20]	; 300148b8 <BootpTimeout+0x44>
300148a0:	ebfff374 	bl	30011678 <NetSetTimeout>
300148a4:	e8bd4010 	pop	{r4, lr}
300148a8:	eafffea8 	b	30014350 <BootpRequest>
300148ac:	3002107c 	.word	0x3002107c
300148b0:	3001af56 	.word	0x3001af56
300148b4:	00001388 	.word	0x00001388
300148b8:	30014874 	.word	0x30014874

300148bc <cpu_eth_init>:
300148bc:	e3e00000 	mvn	r0, #0	; 0x0
300148c0:	e1a0f00e 	mov	pc, lr

300148c4 <eth_get_dev>:
300148c4:	e59f3004 	ldr	r3, [pc, #4]	; 300148d0 <eth_get_dev+0xc>
300148c8:	e5930000 	ldr	r0, [r3]
300148cc:	e1a0f00e 	mov	pc, lr
300148d0:	30021090 	.word	0x30021090

300148d4 <eth_get_dev_by_index>:
300148d4:	e59f3034 	ldr	r3, [pc, #52]	; 30014910 <eth_get_dev_by_index+0x3c>
300148d8:	e5932004 	ldr	r2, [r3, #4]
300148dc:	e3520000 	cmp	r2, #0	; 0x0
300148e0:	e1a01000 	mov	r1, r0
300148e4:	0a000007 	beq	30014908 <eth_get_dev_by_index+0x34>
300148e8:	e1a00002 	mov	r0, r2
300148ec:	e3a03000 	mov	r3, #0	; 0x0
300148f0:	e1530001 	cmp	r3, r1
300148f4:	e2833001 	add	r3, r3, #1	; 0x1
300148f8:	01a0f00e 	moveq	pc, lr
300148fc:	e5900030 	ldr	r0, [r0, #48]
30014900:	e1500002 	cmp	r0, r2
30014904:	1afffff9 	bne	300148f0 <eth_get_dev_by_index+0x1c>
30014908:	e3a00000 	mov	r0, #0	; 0x0
3001490c:	e1a0f00e 	mov	pc, lr
30014910:	30021090 	.word	0x30021090

30014914 <eth_get_dev_index>:
30014914:	e59f2040 	ldr	r2, [pc, #64]	; 3001495c <eth_get_dev_index+0x48>
30014918:	e5923004 	ldr	r3, [r2, #4]
3001491c:	e3530000 	cmp	r3, #0	; 0x0
30014920:	03e00000 	mvneq	r0, #0	; 0x0
30014924:	01a0f00e 	moveq	pc, lr
30014928:	e5922000 	ldr	r2, [r2]
3001492c:	e3a00000 	mov	r0, #0	; 0x0
30014930:	e1530002 	cmp	r3, r2
30014934:	0a000004 	beq	3001494c <eth_get_dev_index+0x38>
30014938:	e5933030 	ldr	r3, [r3, #48]
3001493c:	e3530000 	cmp	r3, #0	; 0x0
30014940:	e2800001 	add	r0, r0, #1	; 0x1
30014944:	1afffff9 	bne	30014930 <eth_get_dev_index+0x1c>
30014948:	ea000001 	b	30014954 <eth_get_dev_index+0x40>
3001494c:	e3530000 	cmp	r3, #0	; 0x0
30014950:	11a0f00e 	movne	pc, lr
30014954:	e3a00000 	mov	r0, #0	; 0x0
30014958:	e1a0f00e 	mov	pc, lr
3001495c:	30021090 	.word	0x30021090

30014960 <eth_halt>:
30014960:	e92d4010 	push	{r4, lr}
30014964:	e59f4024 	ldr	r4, [pc, #36]	; 30014990 <eth_halt+0x30>
30014968:	e5943000 	ldr	r3, [r4]
3001496c:	e3530000 	cmp	r3, #0	; 0x0
30014970:	08bd8010 	popeq	{r4, pc}
30014974:	e1a00003 	mov	r0, r3
30014978:	e1a0e00f 	mov	lr, pc
3001497c:	e593f02c 	ldr	pc, [r3, #44]
30014980:	e5942000 	ldr	r2, [r4]
30014984:	e3a03001 	mov	r3, #1	; 0x1
30014988:	e582301c 	str	r3, [r2, #28]
3001498c:	e8bd8010 	pop	{r4, pc}
30014990:	30021090 	.word	0x30021090

30014994 <eth_send>:
30014994:	e59f3028 	ldr	r3, [pc, #40]	; 300149c4 <eth_send+0x30>
30014998:	e5933000 	ldr	r3, [r3]
3001499c:	e3530000 	cmp	r3, #0	; 0x0
300149a0:	e92d4010 	push	{r4, lr}
300149a4:	e1a02001 	mov	r2, r1
300149a8:	03e00000 	mvneq	r0, #0	; 0x0
300149ac:	08bd8010 	popeq	{r4, pc}
300149b0:	e1a01000 	mov	r1, r0
300149b4:	e1a00003 	mov	r0, r3
300149b8:	e1a0e00f 	mov	lr, pc
300149bc:	e593f024 	ldr	pc, [r3, #36]
300149c0:	e8bd8010 	pop	{r4, pc}
300149c4:	30021090 	.word	0x30021090

300149c8 <eth_rx>:
300149c8:	e59f3020 	ldr	r3, [pc, #32]	; 300149f0 <eth_rx+0x28>
300149cc:	e5933000 	ldr	r3, [r3]
300149d0:	e3530000 	cmp	r3, #0	; 0x0
300149d4:	e92d4010 	push	{r4, lr}
300149d8:	03e00000 	mvneq	r0, #0	; 0x0
300149dc:	08bd8010 	popeq	{r4, pc}
300149e0:	e1a00003 	mov	r0, r3
300149e4:	e1a0e00f 	mov	lr, pc
300149e8:	e593f028 	ldr	pc, [r3, #40]
300149ec:	e8bd8010 	pop	{r4, pc}
300149f0:	30021090 	.word	0x30021090

300149f4 <eth_get_name>:
300149f4:	e59f3010 	ldr	r3, [pc, #16]	; 30014a0c <eth_get_name+0x18>
300149f8:	e5933000 	ldr	r3, [r3]
300149fc:	e3530000 	cmp	r3, #0	; 0x0
30014a00:	e59f0008 	ldr	r0, [pc, #8]	; 30014a10 <eth_get_name+0x1c>
30014a04:	11a00003 	movne	r0, r3
30014a08:	e1a0f00e 	mov	pc, lr
30014a0c:	30021090 	.word	0x30021090
30014a10:	3001b1b7 	.word	0x3001b1b7

30014a14 <eth_get_dev_by_name>:
30014a14:	e59f3048 	ldr	r3, [pc, #72]	; 30014a64 <eth_get_dev_by_name+0x50>
30014a18:	e92d4070 	push	{r4, r5, r6, lr}
30014a1c:	e5934004 	ldr	r4, [r3, #4]
30014a20:	e1a05000 	mov	r5, r0
30014a24:	e3540000 	cmp	r4, #0	; 0x0
30014a28:	0a00000b 	beq	30014a5c <eth_get_dev_by_name+0x48>
30014a2c:	e1a01004 	mov	r1, r4
30014a30:	e1a00005 	mov	r0, r5
30014a34:	ebffe25d 	bl	3000d3b0 <strcmp>
30014a38:	e3500000 	cmp	r0, #0	; 0x0
30014a3c:	1a000001 	bne	30014a48 <eth_get_dev_by_name+0x34>
30014a40:	e1a00004 	mov	r0, r4
30014a44:	e8bd8070 	pop	{r4, r5, r6, pc}
30014a48:	e59f3014 	ldr	r3, [pc, #20]	; 30014a64 <eth_get_dev_by_name+0x50>
30014a4c:	e5944030 	ldr	r4, [r4, #48]
30014a50:	e5933004 	ldr	r3, [r3, #4]
30014a54:	e1540003 	cmp	r4, r3
30014a58:	eafffff2 	b	30014a28 <eth_get_dev_by_name+0x14>
30014a5c:	e3a00000 	mov	r0, #0	; 0x0
30014a60:	e8bd8070 	pop	{r4, r5, r6, pc}
30014a64:	30021090 	.word	0x30021090

30014a68 <eth_set_current>:
30014a68:	e92d4070 	push	{r4, r5, r6, lr}
30014a6c:	e59f4090 	ldr	r4, [pc, #144]	; 30014b04 <eth_set_current+0x9c>
30014a70:	e5943000 	ldr	r3, [r4]
30014a74:	e3530000 	cmp	r3, #0	; 0x0
30014a78:	08bd8070 	popeq	{r4, r5, r6, pc}
30014a7c:	ebffbfeb 	bl	30004a30 <get_env_id>
30014a80:	e5943008 	ldr	r3, [r4, #8]
30014a84:	e3530000 	cmp	r3, #0	; 0x0
30014a88:	e1a05000 	mov	r5, r0
30014a8c:	0a000002 	beq	30014a9c <eth_set_current+0x34>
30014a90:	e594300c 	ldr	r3, [r4, #12]
30014a94:	e1530000 	cmp	r3, r0
30014a98:	0a000004 	beq	30014ab0 <eth_set_current+0x48>
30014a9c:	e59f0064 	ldr	r0, [pc, #100]	; 30014b08 <eth_set_current+0xa0>
30014aa0:	ebffc032 	bl	30004b70 <getenv>
30014aa4:	e59f3058 	ldr	r3, [pc, #88]	; 30014b04 <eth_set_current+0x9c>
30014aa8:	e583500c 	str	r5, [r3, #12]
30014aac:	e5830008 	str	r0, [r3, #8]
30014ab0:	e59f204c 	ldr	r2, [pc, #76]	; 30014b04 <eth_set_current+0x9c>
30014ab4:	e5923008 	ldr	r3, [r2, #8]
30014ab8:	e3530000 	cmp	r3, #0	; 0x0
30014abc:	0a00000b 	beq	30014af0 <eth_set_current+0x88>
30014ac0:	e5925000 	ldr	r5, [r2]
30014ac4:	e59f4038 	ldr	r4, [pc, #56]	; 30014b04 <eth_set_current+0x9c>
30014ac8:	e5940000 	ldr	r0, [r4]
30014acc:	e5941008 	ldr	r1, [r4, #8]
30014ad0:	ebffe236 	bl	3000d3b0 <strcmp>
30014ad4:	e3500000 	cmp	r0, #0	; 0x0
30014ad8:	08bd8070 	popeq	{r4, r5, r6, pc}
30014adc:	e5943000 	ldr	r3, [r4]
30014ae0:	e5933030 	ldr	r3, [r3, #48]
30014ae4:	e1550003 	cmp	r5, r3
30014ae8:	e5843000 	str	r3, [r4]
30014aec:	1afffff4 	bne	30014ac4 <eth_set_current+0x5c>
30014af0:	e59f300c 	ldr	r3, [pc, #12]	; 30014b04 <eth_set_current+0x9c>
30014af4:	e59f000c 	ldr	r0, [pc, #12]	; 30014b08 <eth_set_current+0xa0>
30014af8:	e5931000 	ldr	r1, [r3]
30014afc:	e8bd4070 	pop	{r4, r5, r6, lr}
30014b00:	eaffc1ae 	b	300051c0 <setenv>
30014b04:	30021090 	.word	0x30021090
30014b08:	3001b1bf 	.word	0x3001b1bf

30014b0c <eth_try_another>:
30014b0c:	e92d4010 	push	{r4, lr}
30014b10:	e1a04000 	mov	r4, r0
30014b14:	e59f008c 	ldr	r0, [pc, #140]	; 30014ba8 <eth_try_another+0x9c>
30014b18:	ebffc014 	bl	30004b70 <getenv>
30014b1c:	e3500000 	cmp	r0, #0	; 0x0
30014b20:	0a000003 	beq	30014b34 <eth_try_another+0x28>
30014b24:	e59f1080 	ldr	r1, [pc, #128]	; 30014bac <eth_try_another+0xa0>
30014b28:	ebffe220 	bl	3000d3b0 <strcmp>
30014b2c:	e3500000 	cmp	r0, #0	; 0x0
30014b30:	08bd8010 	popeq	{r4, pc}
30014b34:	e59f2074 	ldr	r2, [pc, #116]	; 30014bb0 <eth_try_another+0xa4>
30014b38:	e5923000 	ldr	r3, [r2]
30014b3c:	e3530000 	cmp	r3, #0	; 0x0
30014b40:	08bd8010 	popeq	{r4, pc}
30014b44:	e3540000 	cmp	r4, #0	; 0x0
30014b48:	15823010 	strne	r3, [r2, #16]
30014b4c:	e59f405c 	ldr	r4, [pc, #92]	; 30014bb0 <eth_try_another+0xa4>
30014b50:	e5933030 	ldr	r3, [r3, #48]
30014b54:	e59f0058 	ldr	r0, [pc, #88]	; 30014bb4 <eth_try_another+0xa8>
30014b58:	e5843000 	str	r3, [r4]
30014b5c:	ebffc003 	bl	30004b70 <getenv>
30014b60:	e3500000 	cmp	r0, #0	; 0x0
30014b64:	0a000003 	beq	30014b78 <eth_try_another+0x6c>
30014b68:	e5941000 	ldr	r1, [r4]
30014b6c:	ebffe20f 	bl	3000d3b0 <strcmp>
30014b70:	e3500000 	cmp	r0, #0	; 0x0
30014b74:	0a000003 	beq	30014b88 <eth_try_another+0x7c>
30014b78:	e59f3030 	ldr	r3, [pc, #48]	; 30014bb0 <eth_try_another+0xa4>
30014b7c:	e59f0030 	ldr	r0, [pc, #48]	; 30014bb4 <eth_try_another+0xa8>
30014b80:	e5931000 	ldr	r1, [r3]
30014b84:	ebffc18d 	bl	300051c0 <setenv>
30014b88:	e59f3020 	ldr	r3, [pc, #32]	; 30014bb0 <eth_try_another+0xa4>
30014b8c:	e5932000 	ldr	r2, [r3]
30014b90:	e5933010 	ldr	r3, [r3, #16]
30014b94:	e1530002 	cmp	r3, r2
30014b98:	059f3018 	ldreq	r3, [pc, #24]	; 30014bb8 <eth_try_another+0xac>
30014b9c:	03a02001 	moveq	r2, #1	; 0x1
30014ba0:	05832000 	streq	r2, [r3]
30014ba4:	e8bd8010 	pop	{r4, pc}
30014ba8:	3001b1c6 	.word	0x3001b1c6
30014bac:	300178ff 	.word	0x300178ff
30014bb0:	30021090 	.word	0x30021090
30014bb4:	3001b1bf 	.word	0x3001b1bf
30014bb8:	3001e1ac 	.word	0x3001e1ac

30014bbc <eth_register>:
30014bbc:	e92d4070 	push	{r4, r5, r6, lr}
30014bc0:	e59f4078 	ldr	r4, [pc, #120]	; 30014c40 <eth_register+0x84>
30014bc4:	e5942004 	ldr	r2, [r4, #4]
30014bc8:	e3520000 	cmp	r2, #0	; 0x0
30014bcc:	e1a05000 	mov	r5, r0
30014bd0:	11a03002 	movne	r3, r2
30014bd4:	1a00000e 	bne	30014c14 <eth_register+0x58>
30014bd8:	e59f0064 	ldr	r0, [pc, #100]	; 30014c44 <eth_register+0x88>
30014bdc:	e5845004 	str	r5, [r4, #4]
30014be0:	e5845000 	str	r5, [r4]
30014be4:	ebffbfe1 	bl	30004b70 <getenv>
30014be8:	e3500000 	cmp	r0, #0	; 0x0
30014bec:	0a000003 	beq	30014c00 <eth_register+0x44>
30014bf0:	e5941000 	ldr	r1, [r4]
30014bf4:	ebffe1ed 	bl	3000d3b0 <strcmp>
30014bf8:	e3500000 	cmp	r0, #0	; 0x0
30014bfc:	0a000009 	beq	30014c28 <eth_register+0x6c>
30014c00:	e59f3038 	ldr	r3, [pc, #56]	; 30014c40 <eth_register+0x84>
30014c04:	e59f0038 	ldr	r0, [pc, #56]	; 30014c44 <eth_register+0x88>
30014c08:	e5931000 	ldr	r1, [r3]
30014c0c:	ebffc16b 	bl	300051c0 <setenv>
30014c10:	ea000004 	b	30014c28 <eth_register+0x6c>
30014c14:	e5931030 	ldr	r1, [r3, #48]
30014c18:	e1510002 	cmp	r1, r2
30014c1c:	11a03001 	movne	r3, r1
30014c20:	1afffffb 	bne	30014c14 <eth_register+0x58>
30014c24:	e5835030 	str	r5, [r3, #48]
30014c28:	e59f3010 	ldr	r3, [pc, #16]	; 30014c40 <eth_register+0x84>
30014c2c:	e5933004 	ldr	r3, [r3, #4]
30014c30:	e3a00000 	mov	r0, #0	; 0x0
30014c34:	e5853030 	str	r3, [r5, #48]
30014c38:	e585001c 	str	r0, [r5, #28]
30014c3c:	e8bd8070 	pop	{r4, r5, r6, pc}
30014c40:	30021090 	.word	0x30021090
30014c44:	3001b1bf 	.word	0x3001b1bf

30014c48 <eth_setenv_enetaddr>:
30014c48:	e92d4030 	push	{r4, r5, lr}
30014c4c:	e24dd01c 	sub	sp, sp, #28	; 0x1c
30014c50:	e28d4004 	add	r4, sp, #4	; 0x4
30014c54:	e1a02001 	mov	r2, r1
30014c58:	e1a05000 	mov	r5, r0
30014c5c:	e59f1018 	ldr	r1, [pc, #24]	; 30014c7c <eth_setenv_enetaddr+0x34>
30014c60:	e1a00004 	mov	r0, r4
30014c64:	ebffe655 	bl	3000e5c0 <sprintf>
30014c68:	e1a00005 	mov	r0, r5
30014c6c:	e1a01004 	mov	r1, r4
30014c70:	ebffc152 	bl	300051c0 <setenv>
30014c74:	e28dd01c 	add	sp, sp, #28	; 0x1c
30014c78:	e8bd8030 	pop	{r4, r5, pc}
30014c7c:	3001b1d0 	.word	0x3001b1d0

30014c80 <eth_parse_enetaddr>:
30014c80:	e92d4073 	push	{r0, r1, r4, r5, r6, lr}
30014c84:	e1a04000 	mov	r4, r0
30014c88:	e1a06001 	mov	r6, r1
30014c8c:	e3a05000 	mov	r5, #0	; 0x0
30014c90:	e3540000 	cmp	r4, #0	; 0x0
30014c94:	e1a00004 	mov	r0, r4
30014c98:	e28d1004 	add	r1, sp, #4	; 0x4
30014c9c:	e3a02010 	mov	r2, #16	; 0x10
30014ca0:	0a000001 	beq	30014cac <eth_parse_enetaddr+0x2c>
30014ca4:	ebffe326 	bl	3000d944 <simple_strtoul>
30014ca8:	e20000ff 	and	r0, r0, #255	; 0xff
30014cac:	e3540000 	cmp	r4, #0	; 0x0
30014cb0:	e7c60005 	strb	r0, [r6, r5]
30014cb4:	0a000004 	beq	30014ccc <eth_parse_enetaddr+0x4c>
30014cb8:	e59d2004 	ldr	r2, [sp, #4]
30014cbc:	e5d23000 	ldrb	r3, [r2]
30014cc0:	e3530000 	cmp	r3, #0	; 0x0
30014cc4:	e2824001 	add	r4, r2, #1	; 0x1
30014cc8:	01a04002 	moveq	r4, r2
30014ccc:	e2855001 	add	r5, r5, #1	; 0x1
30014cd0:	e3550006 	cmp	r5, #6	; 0x6
30014cd4:	1affffed 	bne	30014c90 <eth_parse_enetaddr+0x10>
30014cd8:	e8bd807c 	pop	{r2, r3, r4, r5, r6, pc}

30014cdc <eth_getenv_enetaddr>:
30014cdc:	e92d4010 	push	{r4, lr}
30014ce0:	e1a04001 	mov	r4, r1
30014ce4:	ebffbfa1 	bl	30004b70 <getenv>
30014ce8:	e1a01004 	mov	r1, r4
30014cec:	ebffffe3 	bl	30014c80 <eth_parse_enetaddr>
30014cf0:	e5d41000 	ldrb	r1, [r4]
30014cf4:	e3110001 	tst	r1, #1	; 0x1
30014cf8:	13a00000 	movne	r0, #0	; 0x0
30014cfc:	18bd8010 	popne	{r4, pc}
30014d00:	e5d42002 	ldrb	r2, [r4, #2]
30014d04:	e5d43001 	ldrb	r3, [r4, #1]
30014d08:	e1833002 	orr	r3, r3, r2
30014d0c:	e5d42003 	ldrb	r2, [r4, #3]
30014d10:	e1813003 	orr	r3, r1, r3
30014d14:	e5d41004 	ldrb	r1, [r4, #4]
30014d18:	e1833002 	orr	r3, r3, r2
30014d1c:	e5d42005 	ldrb	r2, [r4, #5]
30014d20:	e1833001 	orr	r3, r3, r1
30014d24:	e1932002 	orrs	r2, r3, r2
30014d28:	03a00000 	moveq	r0, #0	; 0x0
30014d2c:	13a00001 	movne	r0, #1	; 0x1
30014d30:	e8bd8010 	pop	{r4, pc}

30014d34 <eth_getenv_enetaddr_by_index>:
30014d34:	e92d4030 	push	{r4, r5, lr}
30014d38:	e1a02000 	mov	r2, r0
30014d3c:	e59f0034 	ldr	r0, [pc, #52]	; 30014d78 <eth_getenv_enetaddr_by_index+0x44>
30014d40:	e59f3034 	ldr	r3, [pc, #52]	; 30014d7c <eth_getenv_enetaddr_by_index+0x48>
30014d44:	e3520000 	cmp	r2, #0	; 0x0
30014d48:	e24dd024 	sub	sp, sp, #36	; 0x24
30014d4c:	01a03000 	moveq	r3, r0
30014d50:	e1a05001 	mov	r5, r1
30014d54:	e1a0000d 	mov	r0, sp
30014d58:	e1a01003 	mov	r1, r3
30014d5c:	ebffe617 	bl	3000e5c0 <sprintf>
30014d60:	e1a0000d 	mov	r0, sp
30014d64:	e1a01005 	mov	r1, r5
30014d68:	e1a0400d 	mov	r4, sp
30014d6c:	ebffffda 	bl	30014cdc <eth_getenv_enetaddr>
30014d70:	e28dd024 	add	sp, sp, #36	; 0x24
30014d74:	e8bd8030 	pop	{r4, r5, pc}
30014d78:	30017358 	.word	0x30017358
30014d7c:	3001b1d4 	.word	0x3001b1d4

30014d80 <eth_init>:
30014d80:	e92d40f7 	push	{r0, r1, r2, r4, r5, r6, r7, lr}
30014d84:	e59f20a8 	ldr	r2, [pc, #168]	; 30014e34 <eth_init+0xb4>
30014d88:	e5923000 	ldr	r3, [r2]
30014d8c:	e3530000 	cmp	r3, #0	; 0x0
30014d90:	e1a07000 	mov	r7, r0
30014d94:	15924004 	ldrne	r4, [r2, #4]
30014d98:	13a05000 	movne	r5, #0	; 0x0
30014d9c:	1a000002 	bne	30014dac <eth_init+0x2c>
30014da0:	e59f0090 	ldr	r0, [pc, #144]	; 30014e38 <eth_init+0xb8>
30014da4:	ebffc544 	bl	300062bc <puts>
30014da8:	ea00001f 	b	30014e2c <eth_init+0xac>
30014dac:	e28d6002 	add	r6, sp, #2	; 0x2
30014db0:	e1a00005 	mov	r0, r5
30014db4:	e1a01006 	mov	r1, r6
30014db8:	ebffffdd 	bl	30014d34 <eth_getenv_enetaddr_by_index>
30014dbc:	e3500000 	cmp	r0, #0	; 0x0
30014dc0:	e2855001 	add	r5, r5, #1	; 0x1
30014dc4:	11a01006 	movne	r1, r6
30014dc8:	12840010 	addne	r0, r4, #16	; 0x10
30014dcc:	13a02006 	movne	r2, #6	; 0x6
30014dd0:	1bffe24e 	blne	3000d710 <memcpy>
30014dd4:	e59f2058 	ldr	r2, [pc, #88]	; 30014e34 <eth_init+0xb4>
30014dd8:	e5944030 	ldr	r4, [r4, #48]
30014ddc:	e5923004 	ldr	r3, [r2, #4]
30014de0:	e1540003 	cmp	r4, r3
30014de4:	1afffff0 	bne	30014dac <eth_init+0x2c>
30014de8:	e5925000 	ldr	r5, [r2]
30014dec:	e59f4040 	ldr	r4, [pc, #64]	; 30014e34 <eth_init+0xb4>
30014df0:	e5943000 	ldr	r3, [r4]
30014df4:	e1a01007 	mov	r1, r7
30014df8:	e1a00003 	mov	r0, r3
30014dfc:	e1a0e00f 	mov	lr, pc
30014e00:	e593f020 	ldr	pc, [r3, #32]
30014e04:	e3500000 	cmp	r0, #0	; 0x0
30014e08:	e3a00000 	mov	r0, #0	; 0x0
30014e0c:	a5942000 	ldrge	r2, [r4]
30014e10:	a3a03002 	movge	r3, #2	; 0x2
30014e14:	a582301c 	strge	r3, [r2, #28]
30014e18:	aa000004 	bge	30014e30 <eth_init+0xb0>
30014e1c:	ebffff3a 	bl	30014b0c <eth_try_another>
30014e20:	e5943000 	ldr	r3, [r4]
30014e24:	e1550003 	cmp	r5, r3
30014e28:	1affffef 	bne	30014dec <eth_init+0x6c>
30014e2c:	e3e00000 	mvn	r0, #0	; 0x0
30014e30:	e8bd80fe 	pop	{r1, r2, r3, r4, r5, r6, r7, pc}
30014e34:	30021090 	.word	0x30021090
30014e38:	3001ad5f 	.word	0x3001ad5f

30014e3c <eth_initialize>:
30014e3c:	e92d46f7 	push	{r0, r1, r2, r4, r5, r6, r7, r9, sl, lr}
30014e40:	e59f2198 	ldr	r2, [pc, #408]	; 30014fe0 <eth_initialize+0x1a4>
30014e44:	e3a03000 	mov	r3, #0	; 0x0
30014e48:	e1a04000 	mov	r4, r0
30014e4c:	e5823000 	str	r3, [r2]
30014e50:	e3a00040 	mov	r0, #64	; 0x40
30014e54:	e5823004 	str	r3, [r2, #4]
30014e58:	ebffd4d1 	bl	3000a1a4 <__show_boot_progress>
30014e5c:	e1a00004 	mov	r0, r4
30014e60:	ebffdc8b 	bl	3000c094 <board_eth_init>
30014e64:	e3500000 	cmp	r0, #0	; 0x0
30014e68:	b1a00004 	movlt	r0, r4
30014e6c:	bbfffe92 	bllt	300148bc <cpu_eth_init>
30014e70:	e59f3168 	ldr	r3, [pc, #360]	; 30014fe0 <eth_initialize+0x1a4>
30014e74:	e5934004 	ldr	r4, [r3, #4]
30014e78:	e3540000 	cmp	r4, #0	; 0x0
30014e7c:	1a000005 	bne	30014e98 <eth_initialize+0x5c>
30014e80:	e59f015c 	ldr	r0, [pc, #348]	; 30014fe4 <eth_initialize+0x1a8>
30014e84:	ebffc50c 	bl	300062bc <puts>
30014e88:	e3e0003f 	mvn	r0, #63	; 0x3f
30014e8c:	ebffd4c4 	bl	3000a1a4 <__show_boot_progress>
30014e90:	e1a06004 	mov	r6, r4
30014e94:	ea00004f 	b	30014fd8 <eth_initialize+0x19c>
30014e98:	e59f0148 	ldr	r0, [pc, #328]	; 30014fe8 <eth_initialize+0x1ac>
30014e9c:	ebffbf33 	bl	30004b70 <getenv>
30014ea0:	e1a09000 	mov	r9, r0
30014ea4:	e3a00041 	mov	r0, #65	; 0x41
30014ea8:	ebffd4bd 	bl	3000a1a4 <__show_boot_progress>
30014eac:	e3a06000 	mov	r6, #0	; 0x0
30014eb0:	ea000000 	b	30014eb8 <eth_initialize+0x7c>
30014eb4:	ebffc500 	bl	300062bc <puts>
30014eb8:	e1a01004 	mov	r1, r4
30014ebc:	e59f0128 	ldr	r0, [pc, #296]	; 30014fec <eth_initialize+0x1b0>
30014ec0:	ebffc50f 	bl	30006304 <printf>
30014ec4:	e3590000 	cmp	r9, #0	; 0x0
30014ec8:	e28d7002 	add	r7, sp, #2	; 0x2
30014ecc:	e59fa10c 	ldr	sl, [pc, #268]	; 30014fe0 <eth_initialize+0x1a4>
30014ed0:	e1a01009 	mov	r1, r9
30014ed4:	e1a00004 	mov	r0, r4
30014ed8:	0a000004 	beq	30014ef0 <eth_initialize+0xb4>
30014edc:	ebffe133 	bl	3000d3b0 <strcmp>
30014ee0:	e3500000 	cmp	r0, #0	; 0x0
30014ee4:	059f0104 	ldreq	r0, [pc, #260]	; 30014ff0 <eth_initialize+0x1b4>
30014ee8:	058a4000 	streq	r4, [sl]
30014eec:	0bffc4f2 	bleq	300062bc <puts>
30014ef0:	e1a01007 	mov	r1, r7
30014ef4:	e1a00006 	mov	r0, r6
30014ef8:	ebffff8d 	bl	30014d34 <eth_getenv_enetaddr_by_index>
30014efc:	e1a00007 	mov	r0, r7
30014f00:	e59f10ec 	ldr	r1, [pc, #236]	; 30014ff4 <eth_initialize+0x1b8>
30014f04:	e3a02006 	mov	r2, #6	; 0x6
30014f08:	ebffe236 	bl	3000d7e8 <memcmp>
30014f0c:	e3500000 	cmp	r0, #0	; 0x0
30014f10:	0a000019 	beq	30014f7c <eth_initialize+0x140>
30014f14:	e2845010 	add	r5, r4, #16	; 0x10
30014f18:	e59f10d4 	ldr	r1, [pc, #212]	; 30014ff4 <eth_initialize+0x1b8>
30014f1c:	e3a02006 	mov	r2, #6	; 0x6
30014f20:	e1a00005 	mov	r0, r5
30014f24:	ebffe22f 	bl	3000d7e8 <memcmp>
30014f28:	e3500000 	cmp	r0, #0	; 0x0
30014f2c:	0a00000e 	beq	30014f6c <eth_initialize+0x130>
30014f30:	e3a02006 	mov	r2, #6	; 0x6
30014f34:	e1a01007 	mov	r1, r7
30014f38:	e1a00005 	mov	r0, r5
30014f3c:	ebffe229 	bl	3000d7e8 <memcmp>
30014f40:	e3500000 	cmp	r0, #0	; 0x0
30014f44:	0a000008 	beq	30014f6c <eth_initialize+0x130>
30014f48:	e1a01004 	mov	r1, r4
30014f4c:	e59f00a4 	ldr	r0, [pc, #164]	; 30014ff8 <eth_initialize+0x1bc>
30014f50:	ebffc4eb 	bl	30006304 <printf>
30014f54:	e59f00a0 	ldr	r0, [pc, #160]	; 30014ffc <eth_initialize+0x1c0>
30014f58:	e1a01005 	mov	r1, r5
30014f5c:	ebffc4e8 	bl	30006304 <printf>
30014f60:	e1a01007 	mov	r1, r7
30014f64:	e59f0094 	ldr	r0, [pc, #148]	; 30015000 <eth_initialize+0x1c4>
30014f68:	ebffc4e5 	bl	30006304 <printf>
30014f6c:	e1a00005 	mov	r0, r5
30014f70:	e28d1002 	add	r1, sp, #2	; 0x2
30014f74:	e3a02006 	mov	r2, #6	; 0x6
30014f78:	ebffe1e4 	bl	3000d710 <memcpy>
30014f7c:	e5944030 	ldr	r4, [r4, #48]
30014f80:	e59a3004 	ldr	r3, [sl, #4]
30014f84:	e1540003 	cmp	r4, r3
30014f88:	e59f0074 	ldr	r0, [pc, #116]	; 30015004 <eth_initialize+0x1c8>
30014f8c:	e2866001 	add	r6, r6, #1	; 0x1
30014f90:	1affffc7 	bne	30014eb4 <eth_initialize+0x78>
30014f94:	e59a1000 	ldr	r1, [sl]
30014f98:	e3510000 	cmp	r1, #0	; 0x0
30014f9c:	0a000009 	beq	30014fc8 <eth_initialize+0x18c>
30014fa0:	e59f0060 	ldr	r0, [pc, #96]	; 30015008 <eth_initialize+0x1cc>
30014fa4:	ebffbef1 	bl	30004b70 <getenv>
30014fa8:	e3500000 	cmp	r0, #0	; 0x0
30014fac:	0a000003 	beq	30014fc0 <eth_initialize+0x184>
30014fb0:	e59a1000 	ldr	r1, [sl]
30014fb4:	ebffe0fd 	bl	3000d3b0 <strcmp>
30014fb8:	e3500000 	cmp	r0, #0	; 0x0
30014fbc:	0a000003 	beq	30014fd0 <eth_initialize+0x194>
30014fc0:	e59f3018 	ldr	r3, [pc, #24]	; 30014fe0 <eth_initialize+0x1a4>
30014fc4:	e5931000 	ldr	r1, [r3]
30014fc8:	e59f0038 	ldr	r0, [pc, #56]	; 30015008 <eth_initialize+0x1cc>
30014fcc:	ebffc07b 	bl	300051c0 <setenv>
30014fd0:	e3a0000a 	mov	r0, #10	; 0xa
30014fd4:	ebffc551 	bl	30006520 <putc>
30014fd8:	e1a00006 	mov	r0, r6
30014fdc:	e8bd86fe 	pop	{r1, r2, r3, r4, r5, r6, r7, r9, sl, pc}
30014fe0:	30021090 	.word	0x30021090
30014fe4:	3001ad5f 	.word	0x3001ad5f
30014fe8:	3001b1de 	.word	0x3001b1de
30014fec:	3001a8e4 	.word	0x3001a8e4
30014ff0:	3001b1ea 	.word	0x3001b1ea
30014ff4:	30017062 	.word	0x30017062
30014ff8:	3001b1f3 	.word	0x3001b1f3
30014ffc:	3001b21c 	.word	0x3001b21c
30015000:	3001b23c 	.word	0x3001b23c
30015004:	3001b1e7 	.word	0x3001b1e7
30015008:	3001b1bf 	.word	0x3001b1bf

3001500c <get_reg_init_bus>:
3001500c:	e5902018 	ldr	r2, [r0, #24]
30015010:	e5d23000 	ldrb	r3, [r2]
30015014:	e24dd008 	sub	sp, sp, #8	; 0x8
30015018:	e20330ff 	and	r3, r3, #255	; 0xff
3001501c:	e5cd3007 	strb	r3, [sp, #7]
30015020:	e5d23001 	ldrb	r3, [r2, #1]
30015024:	e20330ff 	and	r3, r3, #255	; 0xff
30015028:	e5cd3007 	strb	r3, [sp, #7]
3001502c:	e5d23000 	ldrb	r3, [r2]
30015030:	e20330ff 	and	r3, r3, #255	; 0xff
30015034:	e5cd3007 	strb	r3, [sp, #7]
30015038:	e5d23001 	ldrb	r3, [r2, #1]
3001503c:	e20330ff 	and	r3, r3, #255	; 0xff
30015040:	e5cd3007 	strb	r3, [sp, #7]
30015044:	e5d23000 	ldrb	r3, [r2]
30015048:	e20330ff 	and	r3, r3, #255	; 0xff
3001504c:	e5cd3007 	strb	r3, [sp, #7]
30015050:	e5903034 	ldr	r3, [r0, #52]
30015054:	e1a01801 	lsl	r1, r1, #16
30015058:	e5933000 	ldr	r3, [r3]
3001505c:	e1a01821 	lsr	r1, r1, #16
30015060:	e1c310ba 	strh	r1, [r3, #10]
30015064:	e1d300bc 	ldrh	r0, [r3, #12]
30015068:	e28dd008 	add	sp, sp, #8	; 0x8
3001506c:	e1a0f00e 	mov	pc, lr

30015070 <get_reg>:
30015070:	e5903034 	ldr	r3, [r0, #52]
30015074:	e1a01801 	lsl	r1, r1, #16
30015078:	e5933000 	ldr	r3, [r3]
3001507c:	e1a01821 	lsr	r1, r1, #16
30015080:	e1c310ba 	strh	r1, [r3, #10]
30015084:	e1d300bc 	ldrh	r0, [r3, #12]
30015088:	e1a0f00e 	mov	pc, lr

3001508c <put_reg>:
3001508c:	e5903034 	ldr	r3, [r0, #52]
30015090:	e1a01801 	lsl	r1, r1, #16
30015094:	e5933000 	ldr	r3, [r3]
30015098:	e1a01821 	lsr	r1, r1, #16
3001509c:	e1c310ba 	strh	r1, [r3, #10]
300150a0:	e1c320bc 	strh	r2, [r3, #12]
300150a4:	e1a0f00e 	mov	pc, lr

300150a8 <cs8900_reginit>:
300150a8:	e92d4010 	push	{r4, lr}
300150ac:	e3a01f41 	mov	r1, #260	; 0x104
300150b0:	e1a04000 	mov	r4, r0
300150b4:	e3a02c0d 	mov	r2, #3328	; 0xd00
300150b8:	ebfffff3 	bl	3001508c <put_reg>
300150bc:	e1a00004 	mov	r0, r4
300150c0:	e59f1038 	ldr	r1, [pc, #56]	; 30015100 <cs8900_reginit+0x58>
300150c4:	e3a02000 	mov	r2, #0	; 0x0
300150c8:	ebffffef 	bl	3001508c <put_reg>
300150cc:	e1a00004 	mov	r0, r4
300150d0:	e59f102c 	ldr	r1, [pc, #44]	; 30015104 <cs8900_reginit+0x5c>
300150d4:	e3a02000 	mov	r2, #0	; 0x0
300150d8:	ebffffeb 	bl	3001508c <put_reg>
300150dc:	e1a00004 	mov	r0, r4
300150e0:	e59f1020 	ldr	r1, [pc, #32]	; 30015108 <cs8900_reginit+0x60>
300150e4:	e3a02000 	mov	r2, #0	; 0x0
300150e8:	ebffffe7 	bl	3001508c <put_reg>
300150ec:	e59f1018 	ldr	r1, [pc, #24]	; 3001510c <cs8900_reginit+0x64>
300150f0:	e1a00004 	mov	r0, r4
300150f4:	e3a020c0 	mov	r2, #192	; 0xc0
300150f8:	e8bd4010 	pop	{r4, lr}
300150fc:	eaffffe2 	b	3001508c <put_reg>
30015100:	00000102 	.word	0x00000102
30015104:	00000106 	.word	0x00000106
30015108:	0000010a 	.word	0x0000010a
3001510c:	00000112 	.word	0x00000112

30015110 <cs8900_halt>:
30015110:	e92d4010 	push	{r4, lr}
30015114:	e59f1018 	ldr	r1, [pc, #24]	; 30015134 <cs8900_halt+0x24>
30015118:	e3a02000 	mov	r2, #0	; 0x0
3001511c:	e1a04000 	mov	r4, r0
30015120:	ebffffd9 	bl	3001508c <put_reg>
30015124:	e1a00004 	mov	r0, r4
30015128:	e3a01000 	mov	r1, #0	; 0x0
3001512c:	e8bd4010 	pop	{r4, lr}
30015130:	eaffffb5 	b	3001500c <get_reg_init_bus>
30015134:	00000112 	.word	0x00000112

30015138 <cs8900_e2prom_ready>:
30015138:	e92d4010 	push	{r4, lr}
3001513c:	e1a04000 	mov	r4, r0
30015140:	e1a00004 	mov	r0, r4
30015144:	e59f100c 	ldr	r1, [pc, #12]	; 30015158 <cs8900_e2prom_ready+0x20>
30015148:	ebffffc8 	bl	30015070 <get_reg>
3001514c:	e3100c01 	tst	r0, #256	; 0x100
30015150:	1afffffa 	bne	30015140 <cs8900_e2prom_ready+0x8>
30015154:	e8bd8010 	pop	{r4, pc}
30015158:	00000136 	.word	0x00000136

3001515c <cs8900_e2prom_read>:
3001515c:	e92d4070 	push	{r4, r5, r6, lr}
30015160:	e1a05000 	mov	r5, r0
30015164:	e1a04001 	mov	r4, r1
30015168:	e1a06002 	mov	r6, r2
3001516c:	ebfffff1 	bl	30015138 <cs8900_e2prom_ready>
30015170:	e3842c02 	orr	r2, r4, #512	; 0x200
30015174:	e1a00005 	mov	r0, r5
30015178:	e3a01040 	mov	r1, #64	; 0x40
3001517c:	ebffffc2 	bl	3001508c <put_reg>
30015180:	e1a00005 	mov	r0, r5
30015184:	ebffffeb 	bl	30015138 <cs8900_e2prom_ready>
30015188:	e1a00005 	mov	r0, r5
3001518c:	e3a01042 	mov	r1, #66	; 0x42
30015190:	ebffffb6 	bl	30015070 <get_reg>
30015194:	e1c600b0 	strh	r0, [r6]
30015198:	e3a00000 	mov	r0, #0	; 0x0
3001519c:	e8bd8070 	pop	{r4, r5, r6, pc}

300151a0 <cs8900_e2prom_write>:
300151a0:	e92d4070 	push	{r4, r5, r6, lr}
300151a4:	e1a04000 	mov	r4, r0
300151a8:	e1a06001 	mov	r6, r1
300151ac:	e1a05002 	mov	r5, r2
300151b0:	ebffffe0 	bl	30015138 <cs8900_e2prom_ready>
300151b4:	e1a00004 	mov	r0, r4
300151b8:	e3a01040 	mov	r1, #64	; 0x40
300151bc:	e3a020f0 	mov	r2, #240	; 0xf0
300151c0:	ebffffb1 	bl	3001508c <put_reg>
300151c4:	e1a00004 	mov	r0, r4
300151c8:	ebffffda 	bl	30015138 <cs8900_e2prom_ready>
300151cc:	e1a00004 	mov	r0, r4
300151d0:	e1a02005 	mov	r2, r5
300151d4:	e3a01042 	mov	r1, #66	; 0x42
300151d8:	ebffffab 	bl	3001508c <put_reg>
300151dc:	e3862c01 	orr	r2, r6, #256	; 0x100
300151e0:	e1a00004 	mov	r0, r4
300151e4:	e3a01040 	mov	r1, #64	; 0x40
300151e8:	ebffffa7 	bl	3001508c <put_reg>
300151ec:	e1a00004 	mov	r0, r4
300151f0:	ebffffd0 	bl	30015138 <cs8900_e2prom_ready>
300151f4:	e1a00004 	mov	r0, r4
300151f8:	e3a01040 	mov	r1, #64	; 0x40
300151fc:	e3a02000 	mov	r2, #0	; 0x0
30015200:	ebffffa1 	bl	3001508c <put_reg>
30015204:	e1a00004 	mov	r0, r4
30015208:	ebffffca 	bl	30015138 <cs8900_e2prom_ready>
3001520c:	e3a00000 	mov	r0, #0	; 0x0
30015210:	e8bd8070 	pop	{r4, r5, r6, pc}

30015214 <cs8900_recv>:
30015214:	e92d4070 	push	{r4, r5, r6, lr}
30015218:	e3a01f49 	mov	r1, #292	; 0x124
3001521c:	e5904034 	ldr	r4, [r0, #52]
30015220:	ebffff92 	bl	30015070 <get_reg>
30015224:	e2100c01 	ands	r0, r0, #256	; 0x100
30015228:	01a05000 	moveq	r5, r0
3001522c:	0a00001a 	beq	3001529c <cs8900_recv+0x88>
30015230:	e5943000 	ldr	r3, [r4]
30015234:	e1d320b0 	ldrh	r2, [r3]
30015238:	e1d330b0 	ldrh	r3, [r3]
3001523c:	e59f2060 	ldr	r2, [pc, #96]	; 300152a4 <cs8900_recv+0x90>
30015240:	e1a03803 	lsl	r3, r3, #16
30015244:	e1a0e8a3 	lsr	lr, r3, #17
30015248:	e5922000 	ldr	r2, [r2]
3001524c:	e1a01823 	lsr	r1, r3, #16
30015250:	e1a0c00e 	mov	ip, lr
30015254:	e3a00000 	mov	r0, #0	; 0x0
30015258:	ea000003 	b	3001526c <cs8900_recv+0x58>
3001525c:	e5943000 	ldr	r3, [r4]
30015260:	e1d330b0 	ldrh	r3, [r3]
30015264:	e18230b0 	strh	r3, [r2, r0]
30015268:	e2800002 	add	r0, r0, #2	; 0x2
3001526c:	e35c0000 	cmp	ip, #0	; 0x0
30015270:	e24cc001 	sub	ip, ip, #1	; 0x1
30015274:	1afffff8 	bne	3001525c <cs8900_recv+0x48>
30015278:	e3110001 	tst	r1, #1	; 0x1
3001527c:	15943000 	ldrne	r3, [r4]
30015280:	11d330b0 	ldrhne	r3, [r3]
30015284:	e1a0008e 	lsl	r0, lr, #1
30015288:	118230b0 	strhne	r3, [r2, r0]
3001528c:	e59f3010 	ldr	r3, [pc, #16]	; 300152a4 <cs8900_recv+0x90>
30015290:	e5930000 	ldr	r0, [r3]
30015294:	e1a05001 	mov	r5, r1
30015298:	ebfff188 	bl	300118c0 <NetReceive>
3001529c:	e1a00005 	mov	r0, r5
300152a0:	e8bd8070 	pop	{r4, r5, r6, pc}
300152a4:	3001ffd4 	.word	0x3001ffd4

300152a8 <cs8900_reset>:
300152a8:	e92d4070 	push	{r4, r5, r6, lr}
300152ac:	e3a01f45 	mov	r1, #276	; 0x114
300152b0:	e1a05000 	mov	r5, r0
300152b4:	ebffff6d 	bl	30015070 <get_reg>
300152b8:	e3802040 	orr	r2, r0, #64	; 0x40
300152bc:	e1a02802 	lsl	r2, r2, #16
300152c0:	e1a02822 	lsr	r2, r2, #16
300152c4:	e3a01f45 	mov	r1, #276	; 0x114
300152c8:	e1a00005 	mov	r0, r5
300152cc:	ebffff6e 	bl	3001508c <put_reg>
300152d0:	e59f0030 	ldr	r0, [pc, #48]	; 30015308 <cs8900_reset+0x60>
300152d4:	ebffef3d 	bl	30010fd0 <udelay>
300152d8:	e3a00000 	mov	r0, #0	; 0x0
300152dc:	ebffef36 	bl	30010fbc <get_timer>
300152e0:	e2804ffa 	add	r4, r0, #1000	; 0x3e8
300152e4:	e59f1020 	ldr	r1, [pc, #32]	; 3001530c <cs8900_reset+0x64>
300152e8:	e1a00005 	mov	r0, r5
300152ec:	ebffff46 	bl	3001500c <get_reg_init_bus>
300152f0:	e2100080 	ands	r0, r0, #128	; 0x80
300152f4:	18bd8070 	popne	{r4, r5, r6, pc}
300152f8:	ebffef2f 	bl	30010fbc <get_timer>
300152fc:	e1540000 	cmp	r4, r0
30015300:	3afffff7 	bcc	300152e4 <cs8900_reset+0x3c>
30015304:	e8bd8070 	pop	{r4, r5, r6, pc}
30015308:	00030d40 	.word	0x00030d40
3001530c:	00000136 	.word	0x00000136

30015310 <cs8900_send>:
30015310:	e92d44f0 	push	{r4, r5, r6, r7, sl, lr}
30015314:	e5907034 	ldr	r7, [r0, #52]
30015318:	e1a06000 	mov	r6, r0
3001531c:	e1a0a001 	mov	sl, r1
30015320:	e1a05002 	mov	r5, r2
30015324:	e5972000 	ldr	r2, [r7]
30015328:	e1a03805 	lsl	r3, r5, #16
3001532c:	e1a03823 	lsr	r3, r3, #16
30015330:	e3a010c0 	mov	r1, #192	; 0xc0
30015334:	e1c210b4 	strh	r1, [r2, #4]
30015338:	e1a00006 	mov	r0, r6
3001533c:	e1c230b6 	strh	r3, [r2, #6]
30015340:	e3a01f4e 	mov	r1, #312	; 0x138
30015344:	ebffff49 	bl	30015070 <get_reg>
30015348:	e2100c01 	ands	r0, r0, #256	; 0x100
3001534c:	1a00000b 	bne	30015380 <cs8900_send+0x70>
30015350:	ebffef19 	bl	30010fbc <get_timer>
30015354:	e2804d4e 	add	r4, r0, #4992	; 0x1380
30015358:	e2844008 	add	r4, r4, #8	; 0x8
3001535c:	e3a00000 	mov	r0, #0	; 0x0
30015360:	ebffef15 	bl	30010fbc <get_timer>
30015364:	e1500004 	cmp	r0, r4
30015368:	3afffffb 	bcc	3001535c <cs8900_send+0x4c>
3001536c:	e1a00006 	mov	r0, r6
30015370:	ebffffcc 	bl	300152a8 <cs8900_reset>
30015374:	e1a00006 	mov	r0, r6
30015378:	ebffff4a 	bl	300150a8 <cs8900_reginit>
3001537c:	eaffffe8 	b	30015324 <cs8900_send+0x14>
30015380:	e1a0100a 	mov	r1, sl
30015384:	ea000002 	b	30015394 <cs8900_send+0x84>
30015388:	e0d130b2 	ldrh	r3, [r1], #2
3001538c:	e5972000 	ldr	r2, [r7]
30015390:	e1c230b0 	strh	r3, [r2]
30015394:	e3550000 	cmp	r5, #0	; 0x0
30015398:	e2455002 	sub	r5, r5, #2	; 0x2
3001539c:	cafffff9 	bgt	30015388 <cs8900_send+0x78>
300153a0:	e3a00000 	mov	r0, #0	; 0x0
300153a4:	ebffef04 	bl	30010fbc <get_timer>
300153a8:	e2804d4e 	add	r4, r0, #4992	; 0x1380
300153ac:	e2844008 	add	r4, r4, #8	; 0x8
300153b0:	ea000002 	b	300153c0 <cs8900_send+0xb0>
300153b4:	ebffef00 	bl	30010fbc <get_timer>
300153b8:	e1500004 	cmp	r0, r4
300153bc:	2a000006 	bcs	300153dc <cs8900_send+0xcc>
300153c0:	e3a01f4a 	mov	r1, #296	; 0x128
300153c4:	e1a00006 	mov	r0, r6
300153c8:	ebffff28 	bl	30015070 <get_reg>
300153cc:	e59f3010 	ldr	r3, [pc, #16]	; 300153e4 <cs8900_send+0xd4>
300153d0:	e0003003 	and	r3, r0, r3
300153d4:	e2530000 	subs	r0, r3, #0	; 0x0
300153d8:	0afffff5 	beq	300153b4 <cs8900_send+0xa4>
300153dc:	e3a00000 	mov	r0, #0	; 0x0
300153e0:	e8bd84f0 	pop	{r4, r5, r6, r7, sl, pc}
300153e4:	0000ffe0 	.word	0x0000ffe0

300153e8 <cs8900_get_enetaddr>:
300153e8:	e92d4070 	push	{r4, r5, r6, lr}
300153ec:	e3a01000 	mov	r1, #0	; 0x0
300153f0:	e1a06000 	mov	r6, r0
300153f4:	ebffff04 	bl	3001500c <get_reg_init_bus>
300153f8:	e59f305c 	ldr	r3, [pc, #92]	; 3001545c <cs8900_get_enetaddr+0x74>
300153fc:	e1500003 	cmp	r0, r3
30015400:	18bd8070 	popne	{r4, r5, r6, pc}
30015404:	e1a00006 	mov	r0, r6
30015408:	ebffffa6 	bl	300152a8 <cs8900_reset>
3001540c:	e1a00006 	mov	r0, r6
30015410:	e59f1048 	ldr	r1, [pc, #72]	; 30015460 <cs8900_get_enetaddr+0x78>
30015414:	ebffff15 	bl	30015070 <get_reg>
30015418:	e2000c06 	and	r0, r0, #1536	; 0x600
3001541c:	e3500c06 	cmp	r0, #1536	; 0x600
30015420:	18bd8070 	popne	{r4, r5, r6, pc}
30015424:	e1a05006 	mov	r5, r6
30015428:	e3a04f56 	mov	r4, #344	; 0x158
3001542c:	e1a01004 	mov	r1, r4
30015430:	e1a00006 	mov	r0, r6
30015434:	ebffff0d 	bl	30015070 <get_reg>
30015438:	e59f3024 	ldr	r3, [pc, #36]	; 30015464 <cs8900_get_enetaddr+0x7c>
3001543c:	e2844002 	add	r4, r4, #2	; 0x2
30015440:	e1540003 	cmp	r4, r3
30015444:	e1a03420 	lsr	r3, r0, #8
30015448:	e5c53011 	strb	r3, [r5, #17]
3001544c:	e5c50010 	strb	r0, [r5, #16]
30015450:	e2855002 	add	r5, r5, #2	; 0x2
30015454:	1afffff4 	bne	3001542c <cs8900_get_enetaddr+0x44>
30015458:	e8bd8070 	pop	{r4, r5, r6, pc}
3001545c:	0000630e 	.word	0x0000630e
30015460:	00000136 	.word	0x00000136
30015464:	0000015e 	.word	0x0000015e

30015468 <cs8900_initialize>:
30015468:	e92d41f0 	push	{r4, r5, r6, r7, r8, lr}
3001546c:	e1a07000 	mov	r7, r0
30015470:	e3a00038 	mov	r0, #56	; 0x38
30015474:	e1a06001 	mov	r6, r1
30015478:	ebffc51f 	bl	300068fc <malloc>
3001547c:	e2504000 	subs	r4, r0, #0	; 0x0
30015480:	0a000006 	beq	300154a0 <cs8900_initialize+0x38>
30015484:	e3a01000 	mov	r1, #0	; 0x0
30015488:	e3a02038 	mov	r2, #56	; 0x38
3001548c:	ebffe075 	bl	3000d668 <memset>
30015490:	e3a00004 	mov	r0, #4	; 0x4
30015494:	ebffc518 	bl	300068fc <malloc>
30015498:	e2505000 	subs	r5, r0, #0	; 0x0
3001549c:	1a000001 	bne	300154a8 <cs8900_initialize+0x40>
300154a0:	ebffc485 	bl	300066bc <free>
300154a4:	ea000016 	b	30015504 <cs8900_initialize+0x9c>
300154a8:	e3a01000 	mov	r1, #0	; 0x0
300154ac:	e3a02004 	mov	r2, #4	; 0x4
300154b0:	ebffe06c 	bl	3000d668 <memset>
300154b4:	e59f3050 	ldr	r3, [pc, #80]	; 3001550c <cs8900_initialize+0xa4>
300154b8:	e5843020 	str	r3, [r4, #32]
300154bc:	e59f304c 	ldr	r3, [pc, #76]	; 30015510 <cs8900_initialize+0xa8>
300154c0:	e584302c 	str	r3, [r4, #44]
300154c4:	e59f3048 	ldr	r3, [pc, #72]	; 30015514 <cs8900_initialize+0xac>
300154c8:	e5843024 	str	r3, [r4, #36]
300154cc:	e59f3044 	ldr	r3, [pc, #68]	; 30015518 <cs8900_initialize+0xb0>
300154d0:	e1a00004 	mov	r0, r4
300154d4:	e5843028 	str	r3, [r4, #40]
300154d8:	e5846018 	str	r6, [r4, #24]
300154dc:	e5845034 	str	r5, [r4, #52]
300154e0:	e5856000 	str	r6, [r5]
300154e4:	ebffffbf 	bl	300153e8 <cs8900_get_enetaddr>
300154e8:	e1a00004 	mov	r0, r4
300154ec:	e1a03007 	mov	r3, r7
300154f0:	e59f1024 	ldr	r1, [pc, #36]	; 3001551c <cs8900_initialize+0xb4>
300154f4:	e59f2024 	ldr	r2, [pc, #36]	; 30015520 <cs8900_initialize+0xb8>
300154f8:	ebffe430 	bl	3000e5c0 <sprintf>
300154fc:	e1a00004 	mov	r0, r4
30015500:	ebfffdad 	bl	30014bbc <eth_register>
30015504:	e3a00000 	mov	r0, #0	; 0x0
30015508:	e8bd81f0 	pop	{r4, r5, r6, r7, r8, pc}
3001550c:	30015524 	.word	0x30015524
30015510:	30015110 	.word	0x30015110
30015514:	30015310 	.word	0x30015310
30015518:	30015214 	.word	0x30015214
3001551c:	3001b25c 	.word	0x3001b25c
30015520:	3001b263 	.word	0x3001b263

30015524 <cs8900_init>:
30015524:	e92d4010 	push	{r4, lr}
30015528:	e3a01000 	mov	r1, #0	; 0x0
3001552c:	e1a04000 	mov	r4, r0
30015530:	ebfffeb5 	bl	3001500c <get_reg_init_bus>
30015534:	e59f2078 	ldr	r2, [pc, #120]	; 300155b4 <cs8900_init+0x90>
30015538:	e1500002 	cmp	r0, r2
3001553c:	0a000004 	beq	30015554 <cs8900_init+0x30>
30015540:	e1a01000 	mov	r1, r0
30015544:	e59f006c 	ldr	r0, [pc, #108]	; 300155b8 <cs8900_init+0x94>
30015548:	ebffc36d 	bl	30006304 <printf>
3001554c:	e3a00001 	mov	r0, #1	; 0x1
30015550:	e8bd8010 	pop	{r4, pc}
30015554:	e1a00004 	mov	r0, r4
30015558:	ebffff52 	bl	300152a8 <cs8900_reset>
3001555c:	e5d43011 	ldrb	r3, [r4, #17]
30015560:	e5d42010 	ldrb	r2, [r4, #16]
30015564:	e1a00004 	mov	r0, r4
30015568:	e1822403 	orr	r2, r2, r3, lsl #8
3001556c:	e3a01f56 	mov	r1, #344	; 0x158
30015570:	ebfffec5 	bl	3001508c <put_reg>
30015574:	e5d43013 	ldrb	r3, [r4, #19]
30015578:	e5d42012 	ldrb	r2, [r4, #18]
3001557c:	e1a00004 	mov	r0, r4
30015580:	e1822403 	orr	r2, r2, r3, lsl #8
30015584:	e59f1030 	ldr	r1, [pc, #48]	; 300155bc <cs8900_init+0x98>
30015588:	ebfffebf 	bl	3001508c <put_reg>
3001558c:	e5d43015 	ldrb	r3, [r4, #21]
30015590:	e5d42014 	ldrb	r2, [r4, #20]
30015594:	e3a01f57 	mov	r1, #348	; 0x15c
30015598:	e1822403 	orr	r2, r2, r3, lsl #8
3001559c:	e1a00004 	mov	r0, r4
300155a0:	ebfffeb9 	bl	3001508c <put_reg>
300155a4:	e1a00004 	mov	r0, r4
300155a8:	ebfffebe 	bl	300150a8 <cs8900_reginit>
300155ac:	e3a00000 	mov	r0, #0	; 0x0
300155b0:	e8bd8010 	pop	{r4, pc}
300155b4:	0000630e 	.word	0x0000630e
300155b8:	3001b26a 	.word	0x3001b26a
300155bc:	0000015a 	.word	0x0000015a

300155c0 <GregorianDay>:
300155c0:	e92d40f0 	push	{r4, r5, r6, r7, lr}
300155c4:	e59f30e0 	ldr	r3, [pc, #224]	; 300156ac <GregorianDay+0xec>
300155c8:	e1a0e003 	mov	lr, r3
300155cc:	e1a06000 	mov	r6, r0
300155d0:	e24dd034 	sub	sp, sp, #52	; 0x34
300155d4:	e8be000f 	ldm	lr!, {r0, r1, r2, r3}
300155d8:	e1a0c00d 	mov	ip, sp
300155dc:	e8ac000f 	stmia	ip!, {r0, r1, r2, r3}
300155e0:	e8be000f 	ldm	lr!, {r0, r1, r2, r3}
300155e4:	e8ac000f 	stmia	ip!, {r0, r1, r2, r3}
300155e8:	e5964014 	ldr	r4, [r6, #20]
300155ec:	e89e000f 	ldm	lr, {r0, r1, r2, r3}
300155f0:	e3140003 	tst	r4, #3	; 0x3
300155f4:	e88c000f 	stm	ip, {r0, r1, r2, r3}
300155f8:	e2445001 	sub	r5, r4, #1	; 0x1
300155fc:	1a00000e 	bne	3001563c <GregorianDay+0x7c>
30015600:	e1a00004 	mov	r0, r4
30015604:	e3a01064 	mov	r1, #100	; 0x64
30015608:	eb00023c 	bl	30015f00 <__aeabi_idivmod>
3001560c:	e3510000 	cmp	r1, #0	; 0x0
30015610:	1a000004 	bne	30015628 <GregorianDay+0x68>
30015614:	e1a00004 	mov	r0, r4
30015618:	e2811e19 	add	r1, r1, #400	; 0x190
3001561c:	eb000237 	bl	30015f00 <__aeabi_idivmod>
30015620:	e3510000 	cmp	r1, #0	; 0x0
30015624:	1a000004 	bne	3001563c <GregorianDay+0x7c>
30015628:	e5963010 	ldr	r3, [r6, #16]
3001562c:	e3530002 	cmp	r3, #2	; 0x2
30015630:	d3a07000 	movle	r7, #0	; 0x0
30015634:	c3a07001 	movgt	r7, #1	; 0x1
30015638:	ea000000 	b	30015640 <GregorianDay+0x80>
3001563c:	e3a07000 	mov	r7, #0	; 0x0
30015640:	e3550000 	cmp	r5, #0	; 0x0
30015644:	e3e01063 	mvn	r1, #99	; 0x63
30015648:	e1a00005 	mov	r0, r5
3001564c:	e2854003 	add	r4, r5, #3	; 0x3
30015650:	a1a04005 	movge	r4, r5
30015654:	eb0001a1 	bl	30015ce0 <__aeabi_idiv>
30015658:	e1a04144 	asr	r4, r4, #2
3001565c:	e596300c 	ldr	r3, [r6, #12]
30015660:	e0844000 	add	r4, r4, r0
30015664:	e3a01e19 	mov	r1, #400	; 0x190
30015668:	e1a00005 	mov	r0, r5
3001566c:	e0844003 	add	r4, r4, r3
30015670:	eb00019a 	bl	30015ce0 <__aeabi_idiv>
30015674:	e59f3034 	ldr	r3, [pc, #52]	; 300156b0 <GregorianDay+0xf0>
30015678:	e0844000 	add	r4, r4, r0
3001567c:	e0204593 	mla	r0, r3, r5, r4
30015680:	e5963010 	ldr	r3, [r6, #16]
30015684:	e28d2030 	add	r2, sp, #48	; 0x30
30015688:	e0823103 	add	r3, r2, r3, lsl #2
3001568c:	e5133034 	ldr	r3, [r3, #-52]
30015690:	e0800003 	add	r0, r0, r3
30015694:	e0800007 	add	r0, r0, r7
30015698:	e3a01007 	mov	r1, #7	; 0x7
3001569c:	eb000217 	bl	30015f00 <__aeabi_idivmod>
300156a0:	e5861018 	str	r1, [r6, #24]
300156a4:	e28dd034 	add	sp, sp, #52	; 0x34
300156a8:	e8bd80f0 	pop	{r4, r5, r6, r7, pc}
300156ac:	30016ddc 	.word	0x30016ddc
300156b0:	0000016d 	.word	0x0000016d

300156b4 <to_tm>:
300156b4:	e92d4070 	push	{r4, r5, r6, lr}
300156b8:	e1a06001 	mov	r6, r1
300156bc:	e59f10ec 	ldr	r1, [pc, #236]	; 300157b0 <to_tm+0xfc>
300156c0:	e1a04000 	mov	r4, r0
300156c4:	eb000185 	bl	30015ce0 <__aeabi_idiv>
300156c8:	e59f10e0 	ldr	r1, [pc, #224]	; 300157b0 <to_tm+0xfc>
300156cc:	e1a05000 	mov	r5, r0
300156d0:	e1a00004 	mov	r0, r4
300156d4:	eb000209 	bl	30015f00 <__aeabi_idivmod>
300156d8:	e1a04001 	mov	r4, r1
300156dc:	e1a00001 	mov	r0, r1
300156e0:	e3a01ee1 	mov	r1, #3600	; 0xe10
300156e4:	eb00017d 	bl	30015ce0 <__aeabi_idiv>
300156e8:	e3a01ee1 	mov	r1, #3600	; 0xe10
300156ec:	e5860008 	str	r0, [r6, #8]
300156f0:	e1a00004 	mov	r0, r4
300156f4:	eb000201 	bl	30015f00 <__aeabi_idivmod>
300156f8:	e1a04001 	mov	r4, r1
300156fc:	e1a00001 	mov	r0, r1
30015700:	e3a0103c 	mov	r1, #60	; 0x3c
30015704:	eb000175 	bl	30015ce0 <__aeabi_idiv>
30015708:	e3a0103c 	mov	r1, #60	; 0x3c
3001570c:	e5860004 	str	r0, [r6, #4]
30015710:	e1a00004 	mov	r0, r4
30015714:	eb0001f9 	bl	30015f00 <__aeabi_idivmod>
30015718:	e59f2094 	ldr	r2, [pc, #148]	; 300157b4 <to_tm+0x100>
3001571c:	e5861000 	str	r1, [r6]
30015720:	ea000004 	b	30015738 <to_tm+0x84>
30015724:	e3510000 	cmp	r1, #0	; 0x0
30015728:	11a03000 	movne	r3, r0
3001572c:	01a0300c 	moveq	r3, ip
30015730:	e0635005 	rsb	r5, r3, r5
30015734:	e2822001 	add	r2, r2, #1	; 0x1
30015738:	e59fc078 	ldr	ip, [pc, #120]	; 300157b8 <to_tm+0x104>
3001573c:	e59f0078 	ldr	r0, [pc, #120]	; 300157bc <to_tm+0x108>
30015740:	e2121003 	ands	r1, r2, #3	; 0x3
30015744:	01a0300c 	moveq	r3, ip
30015748:	11a03000 	movne	r3, r0
3001574c:	e1550003 	cmp	r5, r3
30015750:	aafffff3 	bge	30015724 <to_tm+0x70>
30015754:	e3510000 	cmp	r1, #0	; 0x0
30015758:	059f3060 	ldreq	r3, [pc, #96]	; 300157c0 <to_tm+0x10c>
3001575c:	e5862014 	str	r2, [r6, #20]
30015760:	03a0201d 	moveq	r2, #29	; 0x1d
30015764:	05832004 	streq	r2, [r3, #4]
30015768:	e3a01001 	mov	r1, #1	; 0x1
3001576c:	e3a03000 	mov	r3, #0	; 0x0
30015770:	ea000001 	b	3001577c <to_tm+0xc8>
30015774:	e0625005 	rsb	r5, r2, r5
30015778:	e2811001 	add	r1, r1, #1	; 0x1
3001577c:	e59f003c 	ldr	r0, [pc, #60]	; 300157c0 <to_tm+0x10c>
30015780:	e7902003 	ldr	r2, [r0, r3]
30015784:	e1550002 	cmp	r5, r2
30015788:	e2833004 	add	r3, r3, #4	; 0x4
3001578c:	aafffff8 	bge	30015774 <to_tm+0xc0>
30015790:	e3a0301c 	mov	r3, #28	; 0x1c
30015794:	e5803004 	str	r3, [r0, #4]
30015798:	e2852001 	add	r2, r5, #1	; 0x1
3001579c:	e1a00006 	mov	r0, r6
300157a0:	e5861010 	str	r1, [r6, #16]
300157a4:	e586200c 	str	r2, [r6, #12]
300157a8:	e8bd4070 	pop	{r4, r5, r6, lr}
300157ac:	eaffff83 	b	300155c0 <GregorianDay>
300157b0:	00015180 	.word	0x00015180
300157b4:	000007b2 	.word	0x000007b2
300157b8:	0000016e 	.word	0x0000016e
300157bc:	0000016d 	.word	0x0000016d
300157c0:	3001bd58 	.word	0x3001bd58

300157c4 <mktime>:
300157c4:	e92d44f0 	push	{r4, r5, r6, r7, sl, lr}
300157c8:	e2414002 	sub	r4, r1, #2	; 0x2
300157cc:	e3540000 	cmp	r4, #0	; 0x0
300157d0:	e1a06000 	mov	r6, r0
300157d4:	e1a0a003 	mov	sl, r3
300157d8:	d2406001 	suble	r6, r0, #1	; 0x1
300157dc:	e59d301c 	ldr	r3, [sp, #28]
300157e0:	e59f5068 	ldr	r5, [pc, #104]	; 30015850 <mktime+0x8c>
300157e4:	d281400a 	addle	r4, r1, #10	; 0xa
300157e8:	e1a00006 	mov	r0, r6
300157ec:	e3a01e19 	mov	r1, #400	; 0x190
300157f0:	e1a07002 	mov	r7, r2
300157f4:	e0835005 	add	r5, r3, r5
300157f8:	eb0000b5 	bl	30015ad4 <__aeabi_uidiv>
300157fc:	e1a02126 	lsr	r2, r6, #2
30015800:	e59f304c 	ldr	r3, [pc, #76]	; 30015854 <mktime+0x90>
30015804:	e0822000 	add	r2, r2, r0
30015808:	e0822007 	add	r2, r2, r7
3001580c:	e0000493 	mul	r0, r3, r4
30015810:	e3a0100c 	mov	r1, #12	; 0xc
30015814:	e2433002 	sub	r3, r3, #2	; 0x2
30015818:	e0242693 	mla	r4, r3, r6, r2
3001581c:	eb0000ac 	bl	30015ad4 <__aeabi_uidiv>
30015820:	e3a01064 	mov	r1, #100	; 0x64
30015824:	e0844000 	add	r4, r4, r0
30015828:	e1a00006 	mov	r0, r6
3001582c:	eb0000a8 	bl	30015ad4 <__aeabi_uidiv>
30015830:	e3a03018 	mov	r3, #24	; 0x18
30015834:	e0604004 	rsb	r4, r0, r4
30015838:	e021a493 	mla	r1, r3, r4, sl
3001583c:	e59d3018 	ldr	r3, [sp, #24]
30015840:	e3a0203c 	mov	r2, #60	; 0x3c
30015844:	e0233192 	mla	r3, r2, r1, r3
30015848:	e0205392 	mla	r0, r2, r3, r5
3001584c:	e8bd84f0 	pop	{r4, r5, r6, r7, sl, pc}
30015850:	86b1bf80 	.word	0x86b1bf80
30015854:	0000016f 	.word	0x0000016f

30015858 <bcd2bin>:
30015858:	e200200f 	and	r2, r0, #15	; 0xf
3001585c:	e3a0300a 	mov	r3, #10	; 0xa
30015860:	e1a00220 	lsr	r0, r0, #4
30015864:	e0202093 	mla	r0, r3, r0, r2
30015868:	e1a0f00e 	mov	pc, lr

3001586c <bin2bcd>:
3001586c:	e92d4070 	push	{r4, r5, r6, lr}
30015870:	e3a0400a 	mov	r4, #10	; 0xa
30015874:	e1a01004 	mov	r1, r4
30015878:	e1a05000 	mov	r5, r0
3001587c:	eb000094 	bl	30015ad4 <__aeabi_uidiv>
30015880:	e1a01004 	mov	r1, r4
30015884:	e1a04200 	lsl	r4, r0, #4
30015888:	e1a00005 	mov	r0, r5
3001588c:	eb00010b 	bl	30015cc0 <__aeabi_uidivmod>
30015890:	e1844001 	orr	r4, r4, r1
30015894:	e20440ff 	and	r4, r4, #255	; 0xff
30015898:	e1a00004 	mov	r0, r4
3001589c:	e8bd8070 	pop	{r4, r5, r6, pc}

300158a0 <SetRTC_Access>:
300158a0:	e3500000 	cmp	r0, #0	; 0x0
300158a4:	03a02457 	moveq	r2, #1459617792	; 0x57000000
300158a8:	05d23040 	ldrbeq	r3, [r2, #64]
300158ac:	03833001 	orreq	r3, r3, #1	; 0x1
300158b0:	0a000004 	beq	300158c8 <SetRTC_Access+0x28>
300158b4:	e3500001 	cmp	r0, #1	; 0x1
300158b8:	11a0f00e 	movne	pc, lr
300158bc:	e3a02457 	mov	r2, #1459617792	; 0x57000000
300158c0:	e5d23040 	ldrb	r3, [r2, #64]
300158c4:	e20330fe 	and	r3, r3, #254	; 0xfe
300158c8:	e5c23040 	strb	r3, [r2, #64]
300158cc:	e1a0f00e 	mov	pc, lr

300158d0 <rtc_get>:
300158d0:	e92d4eff 	push	{r0, r1, r2, r3, r4, r5, r6, r7, r9, sl, fp, lr}
300158d4:	e1a07000 	mov	r7, r0
300158d8:	e3a00000 	mov	r0, #0	; 0x0
300158dc:	ebffffef 	bl	300158a0 <SetRTC_Access>
300158e0:	e3a06457 	mov	r6, #1459617792	; 0x57000000
300158e4:	e5d62070 	ldrb	r2, [r6, #112]
300158e8:	e5d61074 	ldrb	r1, [r6, #116]
300158ec:	e5d60078 	ldrb	r0, [r6, #120]
300158f0:	e5d6c07c 	ldrb	ip, [r6, #124]
300158f4:	e5d6e080 	ldrb	lr, [r6, #128]
300158f8:	e5d64084 	ldrb	r4, [r6, #132]
300158fc:	e5d65088 	ldrb	r5, [r6, #136]
30015900:	e5d63070 	ldrb	r3, [r6, #112]
30015904:	e1520003 	cmp	r2, r3
30015908:	e5cd4000 	strb	r4, [sp]
3001590c:	e1a0a001 	mov	sl, r1
30015910:	e1a09000 	mov	r9, r0
30015914:	e1a0b00c 	mov	fp, ip
30015918:	e5cde008 	strb	lr, [sp, #8]
3001591c:	e20550ff 	and	r5, r5, #255	; 0xff
30015920:	e1a04003 	mov	r4, r3
30015924:	1affffed 	bne	300158e0 <rtc_get+0x10>
30015928:	e3a00001 	mov	r0, #1	; 0x1
3001592c:	e5d63054 	ldrb	r3, [r6, #84]
30015930:	e5d63058 	ldrb	r3, [r6, #88]
30015934:	e5d6305c 	ldrb	r3, [r6, #92]
30015938:	e5d63060 	ldrb	r3, [r6, #96]
3001593c:	e5d63064 	ldrb	r3, [r6, #100]
30015940:	e5d63068 	ldrb	r3, [r6, #104]
30015944:	e5d63050 	ldrb	r3, [r6, #80]
30015948:	ebffffd4 	bl	300158a0 <SetRTC_Access>
3001594c:	e204007f 	and	r0, r4, #127	; 0x7f
30015950:	ebffffc0 	bl	30015858 <bcd2bin>
30015954:	e5870000 	str	r0, [r7]
30015958:	e20a007f 	and	r0, sl, #127	; 0x7f
3001595c:	ebffffbd 	bl	30015858 <bcd2bin>
30015960:	e5870004 	str	r0, [r7, #4]
30015964:	e209003f 	and	r0, r9, #63	; 0x3f
30015968:	ebffffba 	bl	30015858 <bcd2bin>
3001596c:	e5870008 	str	r0, [r7, #8]
30015970:	e20b003f 	and	r0, fp, #63	; 0x3f
30015974:	ebffffb7 	bl	30015858 <bcd2bin>
30015978:	e5dd3000 	ldrb	r3, [sp]
3001597c:	e587000c 	str	r0, [r7, #12]
30015980:	e203001f 	and	r0, r3, #31	; 0x1f
30015984:	ebffffb3 	bl	30015858 <bcd2bin>
30015988:	e5870010 	str	r0, [r7, #16]
3001598c:	e1a00005 	mov	r0, r5
30015990:	ebffffb0 	bl	30015858 <bcd2bin>
30015994:	e5dd3008 	ldrb	r3, [sp, #8]
30015998:	e1a04000 	mov	r4, r0
3001599c:	e5870014 	str	r0, [r7, #20]
300159a0:	e2030007 	and	r0, r3, #7	; 0x7
300159a4:	ebffffab 	bl	30015858 <bcd2bin>
300159a8:	e3540045 	cmp	r4, #69	; 0x45
300159ac:	c2843e76 	addgt	r3, r4, #1888	; 0x760
300159b0:	e5870018 	str	r0, [r7, #24]
300159b4:	d2843e7d 	addle	r3, r4, #2000	; 0x7d0
300159b8:	e3a00000 	mov	r0, #0	; 0x0
300159bc:	c283300c 	addgt	r3, r3, #12	; 0xc
300159c0:	e5873014 	str	r3, [r7, #20]
300159c4:	e5870020 	str	r0, [r7, #32]
300159c8:	e587001c 	str	r0, [r7, #28]
300159cc:	e28dd010 	add	sp, sp, #16	; 0x10
300159d0:	e8bd8ef0 	pop	{r4, r5, r6, r7, r9, sl, fp, pc}

300159d4 <rtc_set>:
300159d4:	e92d4ef0 	push	{r4, r5, r6, r7, r9, sl, fp, lr}
300159d8:	e3a01064 	mov	r1, #100	; 0x64
300159dc:	e1a04000 	mov	r4, r0
300159e0:	e5900014 	ldr	r0, [r0, #20]
300159e4:	eb000145 	bl	30015f00 <__aeabi_idivmod>
300159e8:	e1a00001 	mov	r0, r1
300159ec:	ebffff9e 	bl	3001586c <bin2bcd>
300159f0:	e1a0b000 	mov	fp, r0
300159f4:	e5940010 	ldr	r0, [r4, #16]
300159f8:	ebffff9b 	bl	3001586c <bin2bcd>
300159fc:	e1a09000 	mov	r9, r0
30015a00:	e5940018 	ldr	r0, [r4, #24]
30015a04:	ebffff98 	bl	3001586c <bin2bcd>
30015a08:	e1a0a000 	mov	sl, r0
30015a0c:	e594000c 	ldr	r0, [r4, #12]
30015a10:	ebffff95 	bl	3001586c <bin2bcd>
30015a14:	e1a07000 	mov	r7, r0
30015a18:	e5940008 	ldr	r0, [r4, #8]
30015a1c:	ebffff92 	bl	3001586c <bin2bcd>
30015a20:	e1a06000 	mov	r6, r0
30015a24:	e5940004 	ldr	r0, [r4, #4]
30015a28:	ebffff8f 	bl	3001586c <bin2bcd>
30015a2c:	e1a05000 	mov	r5, r0
30015a30:	e5940000 	ldr	r0, [r4]
30015a34:	ebffff8c 	bl	3001586c <bin2bcd>
30015a38:	e1a04000 	mov	r4, r0
30015a3c:	e3a00000 	mov	r0, #0	; 0x0
30015a40:	ebffff96 	bl	300158a0 <SetRTC_Access>
30015a44:	e3a03457 	mov	r3, #1459617792	; 0x57000000
30015a48:	e5c34070 	strb	r4, [r3, #112]
30015a4c:	e3a00001 	mov	r0, #1	; 0x1
30015a50:	e5c35074 	strb	r5, [r3, #116]
30015a54:	e5c36078 	strb	r6, [r3, #120]
30015a58:	e5c3707c 	strb	r7, [r3, #124]
30015a5c:	e5c3a080 	strb	sl, [r3, #128]
30015a60:	e5c39084 	strb	r9, [r3, #132]
30015a64:	e5c3b088 	strb	fp, [r3, #136]
30015a68:	ebffff8c 	bl	300158a0 <SetRTC_Access>
30015a6c:	e3a00000 	mov	r0, #0	; 0x0
30015a70:	e8bd8ef0 	pop	{r4, r5, r6, r7, r9, sl, fp, pc}

30015a74 <rtc_reset>:
30015a74:	e3a03457 	mov	r3, #1459617792	; 0x57000000
30015a78:	e5d32040 	ldrb	r2, [r3, #64]
30015a7c:	e20220f1 	and	r2, r2, #241	; 0xf1
30015a80:	e3822008 	orr	r2, r2, #8	; 0x8
30015a84:	e5c32040 	strb	r2, [r3, #64]
30015a88:	e5d32040 	ldrb	r2, [r3, #64]
30015a8c:	e20220f6 	and	r2, r2, #246	; 0xf6
30015a90:	e5c32040 	strb	r2, [r3, #64]
30015a94:	e1a0f00e 	mov	pc, lr

30015a98 <cleanup_before_linux>:
30015a98:	e92d4010 	push	{r4, lr}
30015a9c:	ebffaa8e 	bl	300004dc <disable_interrupts>
30015aa0:	ebffee1e 	bl	30011320 <icache_disable>
30015aa4:	ebffee26 	bl	30011344 <dcache_disable>
30015aa8:	e3a03000 	mov	r3, #0	; 0x0
30015aac:	ee073f17 	mcr	15, 0, r3, cr7, cr7, {0}
30015ab0:	e3a00000 	mov	r0, #0	; 0x0
30015ab4:	e8bd8010 	pop	{r4, pc}

30015ab8 <raise>:
30015ab8:	e1a01000 	mov	r1, r0
30015abc:	e92d4010 	push	{r4, lr}
30015ac0:	e59f0008 	ldr	r0, [pc, #8]	; 30015ad0 <raise+0x18>
30015ac4:	ebffc20e 	bl	30006304 <printf>
30015ac8:	e3a00000 	mov	r0, #0	; 0x0
30015acc:	e8bd8010 	pop	{r4, pc}
30015ad0:	3001b2a4 	.word	0x3001b2a4

30015ad4 <__aeabi_uidiv>:
30015ad4:	e2512001 	subs	r2, r1, #1	; 0x1
30015ad8:	012fff1e 	bxeq	lr
30015adc:	3a000074 	bcc	30015cb4 <__aeabi_uidiv+0x1e0>
30015ae0:	e1500001 	cmp	r0, r1
30015ae4:	9a00006b 	bls	30015c98 <__aeabi_uidiv+0x1c4>
30015ae8:	e1110002 	tst	r1, r2
30015aec:	0a00006c 	beq	30015ca4 <__aeabi_uidiv+0x1d0>
30015af0:	e16f3f10 	clz	r3, r0
30015af4:	e16f2f11 	clz	r2, r1
30015af8:	e0423003 	sub	r3, r2, r3
30015afc:	e273301f 	rsbs	r3, r3, #31	; 0x1f
30015b00:	10833083 	addne	r3, r3, r3, lsl #1
30015b04:	e3a02000 	mov	r2, #0	; 0x0
30015b08:	108ff103 	addne	pc, pc, r3, lsl #2
30015b0c:	e1a00000 	nop			(mov r0,r0)
30015b10:	e1500f81 	cmp	r0, r1, lsl #31
30015b14:	e0a22002 	adc	r2, r2, r2
30015b18:	20400f81 	subcs	r0, r0, r1, lsl #31
30015b1c:	e1500f01 	cmp	r0, r1, lsl #30
30015b20:	e0a22002 	adc	r2, r2, r2
30015b24:	20400f01 	subcs	r0, r0, r1, lsl #30
30015b28:	e1500e81 	cmp	r0, r1, lsl #29
30015b2c:	e0a22002 	adc	r2, r2, r2
30015b30:	20400e81 	subcs	r0, r0, r1, lsl #29
30015b34:	e1500e01 	cmp	r0, r1, lsl #28
30015b38:	e0a22002 	adc	r2, r2, r2
30015b3c:	20400e01 	subcs	r0, r0, r1, lsl #28
30015b40:	e1500d81 	cmp	r0, r1, lsl #27
30015b44:	e0a22002 	adc	r2, r2, r2
30015b48:	20400d81 	subcs	r0, r0, r1, lsl #27
30015b4c:	e1500d01 	cmp	r0, r1, lsl #26
30015b50:	e0a22002 	adc	r2, r2, r2
30015b54:	20400d01 	subcs	r0, r0, r1, lsl #26
30015b58:	e1500c81 	cmp	r0, r1, lsl #25
30015b5c:	e0a22002 	adc	r2, r2, r2
30015b60:	20400c81 	subcs	r0, r0, r1, lsl #25
30015b64:	e1500c01 	cmp	r0, r1, lsl #24
30015b68:	e0a22002 	adc	r2, r2, r2
30015b6c:	20400c01 	subcs	r0, r0, r1, lsl #24
30015b70:	e1500b81 	cmp	r0, r1, lsl #23
30015b74:	e0a22002 	adc	r2, r2, r2
30015b78:	20400b81 	subcs	r0, r0, r1, lsl #23
30015b7c:	e1500b01 	cmp	r0, r1, lsl #22
30015b80:	e0a22002 	adc	r2, r2, r2
30015b84:	20400b01 	subcs	r0, r0, r1, lsl #22
30015b88:	e1500a81 	cmp	r0, r1, lsl #21
30015b8c:	e0a22002 	adc	r2, r2, r2
30015b90:	20400a81 	subcs	r0, r0, r1, lsl #21
30015b94:	e1500a01 	cmp	r0, r1, lsl #20
30015b98:	e0a22002 	adc	r2, r2, r2
30015b9c:	20400a01 	subcs	r0, r0, r1, lsl #20
30015ba0:	e1500981 	cmp	r0, r1, lsl #19
30015ba4:	e0a22002 	adc	r2, r2, r2
30015ba8:	20400981 	subcs	r0, r0, r1, lsl #19
30015bac:	e1500901 	cmp	r0, r1, lsl #18
30015bb0:	e0a22002 	adc	r2, r2, r2
30015bb4:	20400901 	subcs	r0, r0, r1, lsl #18
30015bb8:	e1500881 	cmp	r0, r1, lsl #17
30015bbc:	e0a22002 	adc	r2, r2, r2
30015bc0:	20400881 	subcs	r0, r0, r1, lsl #17
30015bc4:	e1500801 	cmp	r0, r1, lsl #16
30015bc8:	e0a22002 	adc	r2, r2, r2
30015bcc:	20400801 	subcs	r0, r0, r1, lsl #16
30015bd0:	e1500781 	cmp	r0, r1, lsl #15
30015bd4:	e0a22002 	adc	r2, r2, r2
30015bd8:	20400781 	subcs	r0, r0, r1, lsl #15
30015bdc:	e1500701 	cmp	r0, r1, lsl #14
30015be0:	e0a22002 	adc	r2, r2, r2
30015be4:	20400701 	subcs	r0, r0, r1, lsl #14
30015be8:	e1500681 	cmp	r0, r1, lsl #13
30015bec:	e0a22002 	adc	r2, r2, r2
30015bf0:	20400681 	subcs	r0, r0, r1, lsl #13
30015bf4:	e1500601 	cmp	r0, r1, lsl #12
30015bf8:	e0a22002 	adc	r2, r2, r2
30015bfc:	20400601 	subcs	r0, r0, r1, lsl #12
30015c00:	e1500581 	cmp	r0, r1, lsl #11
30015c04:	e0a22002 	adc	r2, r2, r2
30015c08:	20400581 	subcs	r0, r0, r1, lsl #11
30015c0c:	e1500501 	cmp	r0, r1, lsl #10
30015c10:	e0a22002 	adc	r2, r2, r2
30015c14:	20400501 	subcs	r0, r0, r1, lsl #10
30015c18:	e1500481 	cmp	r0, r1, lsl #9
30015c1c:	e0a22002 	adc	r2, r2, r2
30015c20:	20400481 	subcs	r0, r0, r1, lsl #9
30015c24:	e1500401 	cmp	r0, r1, lsl #8
30015c28:	e0a22002 	adc	r2, r2, r2
30015c2c:	20400401 	subcs	r0, r0, r1, lsl #8
30015c30:	e1500381 	cmp	r0, r1, lsl #7
30015c34:	e0a22002 	adc	r2, r2, r2
30015c38:	20400381 	subcs	r0, r0, r1, lsl #7
30015c3c:	e1500301 	cmp	r0, r1, lsl #6
30015c40:	e0a22002 	adc	r2, r2, r2
30015c44:	20400301 	subcs	r0, r0, r1, lsl #6
30015c48:	e1500281 	cmp	r0, r1, lsl #5
30015c4c:	e0a22002 	adc	r2, r2, r2
30015c50:	20400281 	subcs	r0, r0, r1, lsl #5
30015c54:	e1500201 	cmp	r0, r1, lsl #4
30015c58:	e0a22002 	adc	r2, r2, r2
30015c5c:	20400201 	subcs	r0, r0, r1, lsl #4
30015c60:	e1500181 	cmp	r0, r1, lsl #3
30015c64:	e0a22002 	adc	r2, r2, r2
30015c68:	20400181 	subcs	r0, r0, r1, lsl #3
30015c6c:	e1500101 	cmp	r0, r1, lsl #2
30015c70:	e0a22002 	adc	r2, r2, r2
30015c74:	20400101 	subcs	r0, r0, r1, lsl #2
30015c78:	e1500081 	cmp	r0, r1, lsl #1
30015c7c:	e0a22002 	adc	r2, r2, r2
30015c80:	20400081 	subcs	r0, r0, r1, lsl #1
30015c84:	e1500001 	cmp	r0, r1
30015c88:	e0a22002 	adc	r2, r2, r2
30015c8c:	20400001 	subcs	r0, r0, r1
30015c90:	e1a00002 	mov	r0, r2
30015c94:	e12fff1e 	bx	lr
30015c98:	03a00001 	moveq	r0, #1	; 0x1
30015c9c:	13a00000 	movne	r0, #0	; 0x0
30015ca0:	e12fff1e 	bx	lr
30015ca4:	e16f2f11 	clz	r2, r1
30015ca8:	e262201f 	rsb	r2, r2, #31	; 0x1f
30015cac:	e1a00230 	lsr	r0, r0, r2
30015cb0:	e12fff1e 	bx	lr
30015cb4:	e3500000 	cmp	r0, #0	; 0x0
30015cb8:	13e00000 	mvnne	r0, #0	; 0x0
30015cbc:	ea000097 	b	30015f20 <__aeabi_idiv0>

30015cc0 <__aeabi_uidivmod>:
30015cc0:	e3510000 	cmp	r1, #0	; 0x0
30015cc4:	0afffffa 	beq	30015cb4 <__aeabi_uidiv+0x1e0>
30015cc8:	e92d4003 	push	{r0, r1, lr}
30015ccc:	ebffff80 	bl	30015ad4 <__aeabi_uidiv>
30015cd0:	e8bd4006 	pop	{r1, r2, lr}
30015cd4:	e0030092 	mul	r3, r2, r0
30015cd8:	e0411003 	sub	r1, r1, r3
30015cdc:	e12fff1e 	bx	lr

30015ce0 <__aeabi_idiv>:
30015ce0:	e3510000 	cmp	r1, #0	; 0x0
30015ce4:	0a000081 	beq	30015ef0 <.divsi3_nodiv0+0x208>

30015ce8 <.divsi3_nodiv0>:
30015ce8:	e020c001 	eor	ip, r0, r1
30015cec:	42611000 	rsbmi	r1, r1, #0	; 0x0
30015cf0:	e2512001 	subs	r2, r1, #1	; 0x1
30015cf4:	0a000070 	beq	30015ebc <.divsi3_nodiv0+0x1d4>
30015cf8:	e1b03000 	movs	r3, r0
30015cfc:	42603000 	rsbmi	r3, r0, #0	; 0x0
30015d00:	e1530001 	cmp	r3, r1
30015d04:	9a00006f 	bls	30015ec8 <.divsi3_nodiv0+0x1e0>
30015d08:	e1110002 	tst	r1, r2
30015d0c:	0a000071 	beq	30015ed8 <.divsi3_nodiv0+0x1f0>
30015d10:	e16f2f13 	clz	r2, r3
30015d14:	e16f0f11 	clz	r0, r1
30015d18:	e0402002 	sub	r2, r0, r2
30015d1c:	e272201f 	rsbs	r2, r2, #31	; 0x1f
30015d20:	10822082 	addne	r2, r2, r2, lsl #1
30015d24:	e3a00000 	mov	r0, #0	; 0x0
30015d28:	108ff102 	addne	pc, pc, r2, lsl #2
30015d2c:	e1a00000 	nop			(mov r0,r0)
30015d30:	e1530f81 	cmp	r3, r1, lsl #31
30015d34:	e0a00000 	adc	r0, r0, r0
30015d38:	20433f81 	subcs	r3, r3, r1, lsl #31
30015d3c:	e1530f01 	cmp	r3, r1, lsl #30
30015d40:	e0a00000 	adc	r0, r0, r0
30015d44:	20433f01 	subcs	r3, r3, r1, lsl #30
30015d48:	e1530e81 	cmp	r3, r1, lsl #29
30015d4c:	e0a00000 	adc	r0, r0, r0
30015d50:	20433e81 	subcs	r3, r3, r1, lsl #29
30015d54:	e1530e01 	cmp	r3, r1, lsl #28
30015d58:	e0a00000 	adc	r0, r0, r0
30015d5c:	20433e01 	subcs	r3, r3, r1, lsl #28
30015d60:	e1530d81 	cmp	r3, r1, lsl #27
30015d64:	e0a00000 	adc	r0, r0, r0
30015d68:	20433d81 	subcs	r3, r3, r1, lsl #27
30015d6c:	e1530d01 	cmp	r3, r1, lsl #26
30015d70:	e0a00000 	adc	r0, r0, r0
30015d74:	20433d01 	subcs	r3, r3, r1, lsl #26
30015d78:	e1530c81 	cmp	r3, r1, lsl #25
30015d7c:	e0a00000 	adc	r0, r0, r0
30015d80:	20433c81 	subcs	r3, r3, r1, lsl #25
30015d84:	e1530c01 	cmp	r3, r1, lsl #24
30015d88:	e0a00000 	adc	r0, r0, r0
30015d8c:	20433c01 	subcs	r3, r3, r1, lsl #24
30015d90:	e1530b81 	cmp	r3, r1, lsl #23
30015d94:	e0a00000 	adc	r0, r0, r0
30015d98:	20433b81 	subcs	r3, r3, r1, lsl #23
30015d9c:	e1530b01 	cmp	r3, r1, lsl #22
30015da0:	e0a00000 	adc	r0, r0, r0
30015da4:	20433b01 	subcs	r3, r3, r1, lsl #22
30015da8:	e1530a81 	cmp	r3, r1, lsl #21
30015dac:	e0a00000 	adc	r0, r0, r0
30015db0:	20433a81 	subcs	r3, r3, r1, lsl #21
30015db4:	e1530a01 	cmp	r3, r1, lsl #20
30015db8:	e0a00000 	adc	r0, r0, r0
30015dbc:	20433a01 	subcs	r3, r3, r1, lsl #20
30015dc0:	e1530981 	cmp	r3, r1, lsl #19
30015dc4:	e0a00000 	adc	r0, r0, r0
30015dc8:	20433981 	subcs	r3, r3, r1, lsl #19
30015dcc:	e1530901 	cmp	r3, r1, lsl #18
30015dd0:	e0a00000 	adc	r0, r0, r0
30015dd4:	20433901 	subcs	r3, r3, r1, lsl #18
30015dd8:	e1530881 	cmp	r3, r1, lsl #17
30015ddc:	e0a00000 	adc	r0, r0, r0
30015de0:	20433881 	subcs	r3, r3, r1, lsl #17
30015de4:	e1530801 	cmp	r3, r1, lsl #16
30015de8:	e0a00000 	adc	r0, r0, r0
30015dec:	20433801 	subcs	r3, r3, r1, lsl #16
30015df0:	e1530781 	cmp	r3, r1, lsl #15
30015df4:	e0a00000 	adc	r0, r0, r0
30015df8:	20433781 	subcs	r3, r3, r1, lsl #15
30015dfc:	e1530701 	cmp	r3, r1, lsl #14
30015e00:	e0a00000 	adc	r0, r0, r0
30015e04:	20433701 	subcs	r3, r3, r1, lsl #14
30015e08:	e1530681 	cmp	r3, r1, lsl #13
30015e0c:	e0a00000 	adc	r0, r0, r0
30015e10:	20433681 	subcs	r3, r3, r1, lsl #13
30015e14:	e1530601 	cmp	r3, r1, lsl #12
30015e18:	e0a00000 	adc	r0, r0, r0
30015e1c:	20433601 	subcs	r3, r3, r1, lsl #12
30015e20:	e1530581 	cmp	r3, r1, lsl #11
30015e24:	e0a00000 	adc	r0, r0, r0
30015e28:	20433581 	subcs	r3, r3, r1, lsl #11
30015e2c:	e1530501 	cmp	r3, r1, lsl #10
30015e30:	e0a00000 	adc	r0, r0, r0
30015e34:	20433501 	subcs	r3, r3, r1, lsl #10
30015e38:	e1530481 	cmp	r3, r1, lsl #9
30015e3c:	e0a00000 	adc	r0, r0, r0
30015e40:	20433481 	subcs	r3, r3, r1, lsl #9
30015e44:	e1530401 	cmp	r3, r1, lsl #8
30015e48:	e0a00000 	adc	r0, r0, r0
30015e4c:	20433401 	subcs	r3, r3, r1, lsl #8
30015e50:	e1530381 	cmp	r3, r1, lsl #7
30015e54:	e0a00000 	adc	r0, r0, r0
30015e58:	20433381 	subcs	r3, r3, r1, lsl #7
30015e5c:	e1530301 	cmp	r3, r1, lsl #6
30015e60:	e0a00000 	adc	r0, r0, r0
30015e64:	20433301 	subcs	r3, r3, r1, lsl #6
30015e68:	e1530281 	cmp	r3, r1, lsl #5
30015e6c:	e0a00000 	adc	r0, r0, r0
30015e70:	20433281 	subcs	r3, r3, r1, lsl #5
30015e74:	e1530201 	cmp	r3, r1, lsl #4
30015e78:	e0a00000 	adc	r0, r0, r0
30015e7c:	20433201 	subcs	r3, r3, r1, lsl #4
30015e80:	e1530181 	cmp	r3, r1, lsl #3
30015e84:	e0a00000 	adc	r0, r0, r0
30015e88:	20433181 	subcs	r3, r3, r1, lsl #3
30015e8c:	e1530101 	cmp	r3, r1, lsl #2
30015e90:	e0a00000 	adc	r0, r0, r0
30015e94:	20433101 	subcs	r3, r3, r1, lsl #2
30015e98:	e1530081 	cmp	r3, r1, lsl #1
30015e9c:	e0a00000 	adc	r0, r0, r0
30015ea0:	20433081 	subcs	r3, r3, r1, lsl #1
30015ea4:	e1530001 	cmp	r3, r1
30015ea8:	e0a00000 	adc	r0, r0, r0
30015eac:	20433001 	subcs	r3, r3, r1
30015eb0:	e35c0000 	cmp	ip, #0	; 0x0
30015eb4:	42600000 	rsbmi	r0, r0, #0	; 0x0
30015eb8:	e12fff1e 	bx	lr
30015ebc:	e13c0000 	teq	ip, r0
30015ec0:	42600000 	rsbmi	r0, r0, #0	; 0x0
30015ec4:	e12fff1e 	bx	lr
30015ec8:	33a00000 	movcc	r0, #0	; 0x0
30015ecc:	01a00fcc 	asreq	r0, ip, #31
30015ed0:	03800001 	orreq	r0, r0, #1	; 0x1
30015ed4:	e12fff1e 	bx	lr
30015ed8:	e16f2f11 	clz	r2, r1
30015edc:	e262201f 	rsb	r2, r2, #31	; 0x1f
30015ee0:	e35c0000 	cmp	ip, #0	; 0x0
30015ee4:	e1a00233 	lsr	r0, r3, r2
30015ee8:	42600000 	rsbmi	r0, r0, #0	; 0x0
30015eec:	e12fff1e 	bx	lr
30015ef0:	e3500000 	cmp	r0, #0	; 0x0
30015ef4:	c3e00102 	mvngt	r0, #-2147483648	; 0x80000000
30015ef8:	b3a00102 	movlt	r0, #-2147483648	; 0x80000000
30015efc:	ea000007 	b	30015f20 <__aeabi_idiv0>

30015f00 <__aeabi_idivmod>:
30015f00:	e3510000 	cmp	r1, #0	; 0x0
30015f04:	0afffff9 	beq	30015ef0 <.divsi3_nodiv0+0x208>
30015f08:	e92d4003 	push	{r0, r1, lr}
30015f0c:	ebffff75 	bl	30015ce8 <.divsi3_nodiv0>
30015f10:	e8bd4006 	pop	{r1, r2, lr}
30015f14:	e0030092 	mul	r3, r2, r0
30015f18:	e0411003 	sub	r1, r1, r3
30015f1c:	e12fff1e 	bx	lr

30015f20 <__aeabi_idiv0>:
30015f20:	e92d4002 	push	{r1, lr}
30015f24:	e3a00008 	mov	r0, #8	; 0x8
30015f28:	ebfffee2 	bl	30015ab8 <raise>
30015f2c:	e8bd8002 	pop	{r1, pc}
